
One-Bee-Firmware_v0.1.elf:     file format elf32-littlearm

Sections:
Idx Name          Size      VMA       LMA       File off  Algn
  0 .isr_vector   000000bc  08000000  08000000  00001000  2**0
                  CONTENTS, ALLOC, LOAD, READONLY, DATA
  1 .text         000084d4  080000bc  080000bc  000010bc  2**2
                  CONTENTS, ALLOC, LOAD, READONLY, CODE
  2 .rodata       000004b0  08008590  08008590  00009590  2**3
                  CONTENTS, ALLOC, LOAD, READONLY, DATA
  3 .ARM.extab    00000000  08008a40  08008a40  0000a1cc  2**0
                  CONTENTS
  4 .ARM          00000000  08008a40  08008a40  0000a1cc  2**0
                  CONTENTS
  5 .preinit_array 00000000  08008a40  08008a40  0000a1cc  2**0
                  CONTENTS, ALLOC, LOAD, DATA
  6 .init_array   00000004  08008a40  08008a40  00009a40  2**2
                  CONTENTS, ALLOC, LOAD, READONLY, DATA
  7 .fini_array   00000004  08008a44  08008a44  00009a44  2**2
                  CONTENTS, ALLOC, LOAD, READONLY, DATA
  8 .data         000001cc  20000000  08008a48  0000a000  2**2
                  CONTENTS, ALLOC, LOAD, DATA
  9 .bss          00000188  200001cc  08008c14  0000a1cc  2**2
                  ALLOC
 10 ._user_heap_stack 00000604  20000354  08008c14  0000a354  2**0
                  ALLOC
 11 .ARM.attributes 00000028  00000000  00000000  0000a1cc  2**0
                  CONTENTS, READONLY
 12 .debug_info   0000303c  00000000  00000000  0000a1f4  2**0
                  CONTENTS, READONLY, DEBUGGING, OCTETS
 13 .debug_abbrev 00000f46  00000000  00000000  0000d230  2**0
                  CONTENTS, READONLY, DEBUGGING, OCTETS
 14 .debug_aranges 00000318  00000000  00000000  0000e178  2**3
                  CONTENTS, READONLY, DEBUGGING, OCTETS
 15 .debug_rnglists 00000223  00000000  00000000  0000e490  2**0
                  CONTENTS, READONLY, DEBUGGING, OCTETS
 16 .debug_macro  0000ec29  00000000  00000000  0000e6b3  2**0
                  CONTENTS, READONLY, DEBUGGING, OCTETS
 17 .debug_line   00004727  00000000  00000000  0001d2dc  2**0
                  CONTENTS, READONLY, DEBUGGING, OCTETS
 18 .debug_str    0004b475  00000000  00000000  00021a03  2**0
                  CONTENTS, READONLY, DEBUGGING, OCTETS
 19 .comment      00000043  00000000  00000000  0006ce78  2**0
                  CONTENTS, READONLY
 20 .debug_frame  00001ed0  00000000  00000000  0006cebc  2**2
                  CONTENTS, READONLY, DEBUGGING, OCTETS
 21 .debug_line_str 00000080  00000000  00000000  0006ed8c  2**0
                  CONTENTS, READONLY, DEBUGGING, OCTETS

Disassembly of section .text:

080000bc <__do_global_dtors_aux>:
 80000bc:	b510      	push	{r4, lr}
 80000be:	4c06      	ldr	r4, [pc, #24]	@ (80000d8 <__do_global_dtors_aux+0x1c>)
 80000c0:	7823      	ldrb	r3, [r4, #0]
 80000c2:	2b00      	cmp	r3, #0
 80000c4:	d107      	bne.n	80000d6 <__do_global_dtors_aux+0x1a>
 80000c6:	4b05      	ldr	r3, [pc, #20]	@ (80000dc <__do_global_dtors_aux+0x20>)
 80000c8:	2b00      	cmp	r3, #0
 80000ca:	d002      	beq.n	80000d2 <__do_global_dtors_aux+0x16>
 80000cc:	4804      	ldr	r0, [pc, #16]	@ (80000e0 <__do_global_dtors_aux+0x24>)
 80000ce:	e000      	b.n	80000d2 <__do_global_dtors_aux+0x16>
 80000d0:	bf00      	nop
 80000d2:	2301      	movs	r3, #1
 80000d4:	7023      	strb	r3, [r4, #0]
 80000d6:	bd10      	pop	{r4, pc}
 80000d8:	200001cc 	.word	0x200001cc
 80000dc:	00000000 	.word	0x00000000
 80000e0:	08008578 	.word	0x08008578

080000e4 <frame_dummy>:
 80000e4:	4b04      	ldr	r3, [pc, #16]	@ (80000f8 <frame_dummy+0x14>)
 80000e6:	b510      	push	{r4, lr}
 80000e8:	2b00      	cmp	r3, #0
 80000ea:	d003      	beq.n	80000f4 <frame_dummy+0x10>
 80000ec:	4903      	ldr	r1, [pc, #12]	@ (80000fc <frame_dummy+0x18>)
 80000ee:	4804      	ldr	r0, [pc, #16]	@ (8000100 <frame_dummy+0x1c>)
 80000f0:	e000      	b.n	80000f4 <frame_dummy+0x10>
 80000f2:	bf00      	nop
 80000f4:	bd10      	pop	{r4, pc}
 80000f6:	46c0      	nop			@ (mov r8, r8)
 80000f8:	00000000 	.word	0x00000000
 80000fc:	200001d0 	.word	0x200001d0
 8000100:	08008578 	.word	0x08008578

08000104 <strlen>:
 8000104:	2300      	movs	r3, #0
 8000106:	5cc2      	ldrb	r2, [r0, r3]
 8000108:	3301      	adds	r3, #1
 800010a:	2a00      	cmp	r2, #0
 800010c:	d1fb      	bne.n	8000106 <strlen+0x2>
 800010e:	1e58      	subs	r0, r3, #1
 8000110:	4770      	bx	lr
	...

08000114 <__gnu_thumb1_case_uqi>:
 8000114:	b402      	push	{r1}
 8000116:	4671      	mov	r1, lr
 8000118:	0849      	lsrs	r1, r1, #1
 800011a:	0049      	lsls	r1, r1, #1
 800011c:	5c09      	ldrb	r1, [r1, r0]
 800011e:	0049      	lsls	r1, r1, #1
 8000120:	448e      	add	lr, r1
 8000122:	bc02      	pop	{r1}
 8000124:	4770      	bx	lr
 8000126:	46c0      	nop			@ (mov r8, r8)

08000128 <__gnu_thumb1_case_shi>:
 8000128:	b403      	push	{r0, r1}
 800012a:	4671      	mov	r1, lr
 800012c:	0849      	lsrs	r1, r1, #1
 800012e:	0040      	lsls	r0, r0, #1
 8000130:	0049      	lsls	r1, r1, #1
 8000132:	5e09      	ldrsh	r1, [r1, r0]
 8000134:	0049      	lsls	r1, r1, #1
 8000136:	448e      	add	lr, r1
 8000138:	bc03      	pop	{r0, r1}
 800013a:	4770      	bx	lr

0800013c <__udivsi3>:
 800013c:	2200      	movs	r2, #0
 800013e:	0843      	lsrs	r3, r0, #1
 8000140:	428b      	cmp	r3, r1
 8000142:	d374      	bcc.n	800022e <__udivsi3+0xf2>
 8000144:	0903      	lsrs	r3, r0, #4
 8000146:	428b      	cmp	r3, r1
 8000148:	d35f      	bcc.n	800020a <__udivsi3+0xce>
 800014a:	0a03      	lsrs	r3, r0, #8
 800014c:	428b      	cmp	r3, r1
 800014e:	d344      	bcc.n	80001da <__udivsi3+0x9e>
 8000150:	0b03      	lsrs	r3, r0, #12
 8000152:	428b      	cmp	r3, r1
 8000154:	d328      	bcc.n	80001a8 <__udivsi3+0x6c>
 8000156:	0c03      	lsrs	r3, r0, #16
 8000158:	428b      	cmp	r3, r1
 800015a:	d30d      	bcc.n	8000178 <__udivsi3+0x3c>
 800015c:	22ff      	movs	r2, #255	@ 0xff
 800015e:	0209      	lsls	r1, r1, #8
 8000160:	ba12      	rev	r2, r2
 8000162:	0c03      	lsrs	r3, r0, #16
 8000164:	428b      	cmp	r3, r1
 8000166:	d302      	bcc.n	800016e <__udivsi3+0x32>
 8000168:	1212      	asrs	r2, r2, #8
 800016a:	0209      	lsls	r1, r1, #8
 800016c:	d065      	beq.n	800023a <__udivsi3+0xfe>
 800016e:	0b03      	lsrs	r3, r0, #12
 8000170:	428b      	cmp	r3, r1
 8000172:	d319      	bcc.n	80001a8 <__udivsi3+0x6c>
 8000174:	e000      	b.n	8000178 <__udivsi3+0x3c>
 8000176:	0a09      	lsrs	r1, r1, #8
 8000178:	0bc3      	lsrs	r3, r0, #15
 800017a:	428b      	cmp	r3, r1
 800017c:	d301      	bcc.n	8000182 <__udivsi3+0x46>
 800017e:	03cb      	lsls	r3, r1, #15
 8000180:	1ac0      	subs	r0, r0, r3
 8000182:	4152      	adcs	r2, r2
 8000184:	0b83      	lsrs	r3, r0, #14
 8000186:	428b      	cmp	r3, r1
 8000188:	d301      	bcc.n	800018e <__udivsi3+0x52>
 800018a:	038b      	lsls	r3, r1, #14
 800018c:	1ac0      	subs	r0, r0, r3
 800018e:	4152      	adcs	r2, r2
 8000190:	0b43      	lsrs	r3, r0, #13
 8000192:	428b      	cmp	r3, r1
 8000194:	d301      	bcc.n	800019a <__udivsi3+0x5e>
 8000196:	034b      	lsls	r3, r1, #13
 8000198:	1ac0      	subs	r0, r0, r3
 800019a:	4152      	adcs	r2, r2
 800019c:	0b03      	lsrs	r3, r0, #12
 800019e:	428b      	cmp	r3, r1
 80001a0:	d301      	bcc.n	80001a6 <__udivsi3+0x6a>
 80001a2:	030b      	lsls	r3, r1, #12
 80001a4:	1ac0      	subs	r0, r0, r3
 80001a6:	4152      	adcs	r2, r2
 80001a8:	0ac3      	lsrs	r3, r0, #11
 80001aa:	428b      	cmp	r3, r1
 80001ac:	d301      	bcc.n	80001b2 <__udivsi3+0x76>
 80001ae:	02cb      	lsls	r3, r1, #11
 80001b0:	1ac0      	subs	r0, r0, r3
 80001b2:	4152      	adcs	r2, r2
 80001b4:	0a83      	lsrs	r3, r0, #10
 80001b6:	428b      	cmp	r3, r1
 80001b8:	d301      	bcc.n	80001be <__udivsi3+0x82>
 80001ba:	028b      	lsls	r3, r1, #10
 80001bc:	1ac0      	subs	r0, r0, r3
 80001be:	4152      	adcs	r2, r2
 80001c0:	0a43      	lsrs	r3, r0, #9
 80001c2:	428b      	cmp	r3, r1
 80001c4:	d301      	bcc.n	80001ca <__udivsi3+0x8e>
 80001c6:	024b      	lsls	r3, r1, #9
 80001c8:	1ac0      	subs	r0, r0, r3
 80001ca:	4152      	adcs	r2, r2
 80001cc:	0a03      	lsrs	r3, r0, #8
 80001ce:	428b      	cmp	r3, r1
 80001d0:	d301      	bcc.n	80001d6 <__udivsi3+0x9a>
 80001d2:	020b      	lsls	r3, r1, #8
 80001d4:	1ac0      	subs	r0, r0, r3
 80001d6:	4152      	adcs	r2, r2
 80001d8:	d2cd      	bcs.n	8000176 <__udivsi3+0x3a>
 80001da:	09c3      	lsrs	r3, r0, #7
 80001dc:	428b      	cmp	r3, r1
 80001de:	d301      	bcc.n	80001e4 <__udivsi3+0xa8>
 80001e0:	01cb      	lsls	r3, r1, #7
 80001e2:	1ac0      	subs	r0, r0, r3
 80001e4:	4152      	adcs	r2, r2
 80001e6:	0983      	lsrs	r3, r0, #6
 80001e8:	428b      	cmp	r3, r1
 80001ea:	d301      	bcc.n	80001f0 <__udivsi3+0xb4>
 80001ec:	018b      	lsls	r3, r1, #6
 80001ee:	1ac0      	subs	r0, r0, r3
 80001f0:	4152      	adcs	r2, r2
 80001f2:	0943      	lsrs	r3, r0, #5
 80001f4:	428b      	cmp	r3, r1
 80001f6:	d301      	bcc.n	80001fc <__udivsi3+0xc0>
 80001f8:	014b      	lsls	r3, r1, #5
 80001fa:	1ac0      	subs	r0, r0, r3
 80001fc:	4152      	adcs	r2, r2
 80001fe:	0903      	lsrs	r3, r0, #4
 8000200:	428b      	cmp	r3, r1
 8000202:	d301      	bcc.n	8000208 <__udivsi3+0xcc>
 8000204:	010b      	lsls	r3, r1, #4
 8000206:	1ac0      	subs	r0, r0, r3
 8000208:	4152      	adcs	r2, r2
 800020a:	08c3      	lsrs	r3, r0, #3
 800020c:	428b      	cmp	r3, r1
 800020e:	d301      	bcc.n	8000214 <__udivsi3+0xd8>
 8000210:	00cb      	lsls	r3, r1, #3
 8000212:	1ac0      	subs	r0, r0, r3
 8000214:	4152      	adcs	r2, r2
 8000216:	0883      	lsrs	r3, r0, #2
 8000218:	428b      	cmp	r3, r1
 800021a:	d301      	bcc.n	8000220 <__udivsi3+0xe4>
 800021c:	008b      	lsls	r3, r1, #2
 800021e:	1ac0      	subs	r0, r0, r3
 8000220:	4152      	adcs	r2, r2
 8000222:	0843      	lsrs	r3, r0, #1
 8000224:	428b      	cmp	r3, r1
 8000226:	d301      	bcc.n	800022c <__udivsi3+0xf0>
 8000228:	004b      	lsls	r3, r1, #1
 800022a:	1ac0      	subs	r0, r0, r3
 800022c:	4152      	adcs	r2, r2
 800022e:	1a41      	subs	r1, r0, r1
 8000230:	d200      	bcs.n	8000234 <__udivsi3+0xf8>
 8000232:	4601      	mov	r1, r0
 8000234:	4152      	adcs	r2, r2
 8000236:	4610      	mov	r0, r2
 8000238:	4770      	bx	lr
 800023a:	e7ff      	b.n	800023c <__udivsi3+0x100>
 800023c:	b501      	push	{r0, lr}
 800023e:	2000      	movs	r0, #0
 8000240:	f000 f8f0 	bl	8000424 <__aeabi_idiv0>
 8000244:	bd02      	pop	{r1, pc}
 8000246:	46c0      	nop			@ (mov r8, r8)

08000248 <__aeabi_uidivmod>:
 8000248:	2900      	cmp	r1, #0
 800024a:	d0f7      	beq.n	800023c <__udivsi3+0x100>
 800024c:	e776      	b.n	800013c <__udivsi3>
 800024e:	4770      	bx	lr

08000250 <__divsi3>:
 8000250:	4603      	mov	r3, r0
 8000252:	430b      	orrs	r3, r1
 8000254:	d47f      	bmi.n	8000356 <__divsi3+0x106>
 8000256:	2200      	movs	r2, #0
 8000258:	0843      	lsrs	r3, r0, #1
 800025a:	428b      	cmp	r3, r1
 800025c:	d374      	bcc.n	8000348 <__divsi3+0xf8>
 800025e:	0903      	lsrs	r3, r0, #4
 8000260:	428b      	cmp	r3, r1
 8000262:	d35f      	bcc.n	8000324 <__divsi3+0xd4>
 8000264:	0a03      	lsrs	r3, r0, #8
 8000266:	428b      	cmp	r3, r1
 8000268:	d344      	bcc.n	80002f4 <__divsi3+0xa4>
 800026a:	0b03      	lsrs	r3, r0, #12
 800026c:	428b      	cmp	r3, r1
 800026e:	d328      	bcc.n	80002c2 <__divsi3+0x72>
 8000270:	0c03      	lsrs	r3, r0, #16
 8000272:	428b      	cmp	r3, r1
 8000274:	d30d      	bcc.n	8000292 <__divsi3+0x42>
 8000276:	22ff      	movs	r2, #255	@ 0xff
 8000278:	0209      	lsls	r1, r1, #8
 800027a:	ba12      	rev	r2, r2
 800027c:	0c03      	lsrs	r3, r0, #16
 800027e:	428b      	cmp	r3, r1
 8000280:	d302      	bcc.n	8000288 <__divsi3+0x38>
 8000282:	1212      	asrs	r2, r2, #8
 8000284:	0209      	lsls	r1, r1, #8
 8000286:	d065      	beq.n	8000354 <__divsi3+0x104>
 8000288:	0b03      	lsrs	r3, r0, #12
 800028a:	428b      	cmp	r3, r1
 800028c:	d319      	bcc.n	80002c2 <__divsi3+0x72>
 800028e:	e000      	b.n	8000292 <__divsi3+0x42>
 8000290:	0a09      	lsrs	r1, r1, #8
 8000292:	0bc3      	lsrs	r3, r0, #15
 8000294:	428b      	cmp	r3, r1
 8000296:	d301      	bcc.n	800029c <__divsi3+0x4c>
 8000298:	03cb      	lsls	r3, r1, #15
 800029a:	1ac0      	subs	r0, r0, r3
 800029c:	4152      	adcs	r2, r2
 800029e:	0b83      	lsrs	r3, r0, #14
 80002a0:	428b      	cmp	r3, r1
 80002a2:	d301      	bcc.n	80002a8 <__divsi3+0x58>
 80002a4:	038b      	lsls	r3, r1, #14
 80002a6:	1ac0      	subs	r0, r0, r3
 80002a8:	4152      	adcs	r2, r2
 80002aa:	0b43      	lsrs	r3, r0, #13
 80002ac:	428b      	cmp	r3, r1
 80002ae:	d301      	bcc.n	80002b4 <__divsi3+0x64>
 80002b0:	034b      	lsls	r3, r1, #13
 80002b2:	1ac0      	subs	r0, r0, r3
 80002b4:	4152      	adcs	r2, r2
 80002b6:	0b03      	lsrs	r3, r0, #12
 80002b8:	428b      	cmp	r3, r1
 80002ba:	d301      	bcc.n	80002c0 <__divsi3+0x70>
 80002bc:	030b      	lsls	r3, r1, #12
 80002be:	1ac0      	subs	r0, r0, r3
 80002c0:	4152      	adcs	r2, r2
 80002c2:	0ac3      	lsrs	r3, r0, #11
 80002c4:	428b      	cmp	r3, r1
 80002c6:	d301      	bcc.n	80002cc <__divsi3+0x7c>
 80002c8:	02cb      	lsls	r3, r1, #11
 80002ca:	1ac0      	subs	r0, r0, r3
 80002cc:	4152      	adcs	r2, r2
 80002ce:	0a83      	lsrs	r3, r0, #10
 80002d0:	428b      	cmp	r3, r1
 80002d2:	d301      	bcc.n	80002d8 <__divsi3+0x88>
 80002d4:	028b      	lsls	r3, r1, #10
 80002d6:	1ac0      	subs	r0, r0, r3
 80002d8:	4152      	adcs	r2, r2
 80002da:	0a43      	lsrs	r3, r0, #9
 80002dc:	428b      	cmp	r3, r1
 80002de:	d301      	bcc.n	80002e4 <__divsi3+0x94>
 80002e0:	024b      	lsls	r3, r1, #9
 80002e2:	1ac0      	subs	r0, r0, r3
 80002e4:	4152      	adcs	r2, r2
 80002e6:	0a03      	lsrs	r3, r0, #8
 80002e8:	428b      	cmp	r3, r1
 80002ea:	d301      	bcc.n	80002f0 <__divsi3+0xa0>
 80002ec:	020b      	lsls	r3, r1, #8
 80002ee:	1ac0      	subs	r0, r0, r3
 80002f0:	4152      	adcs	r2, r2
 80002f2:	d2cd      	bcs.n	8000290 <__divsi3+0x40>
 80002f4:	09c3      	lsrs	r3, r0, #7
 80002f6:	428b      	cmp	r3, r1
 80002f8:	d301      	bcc.n	80002fe <__divsi3+0xae>
 80002fa:	01cb      	lsls	r3, r1, #7
 80002fc:	1ac0      	subs	r0, r0, r3
 80002fe:	4152      	adcs	r2, r2
 8000300:	0983      	lsrs	r3, r0, #6
 8000302:	428b      	cmp	r3, r1
 8000304:	d301      	bcc.n	800030a <__divsi3+0xba>
 8000306:	018b      	lsls	r3, r1, #6
 8000308:	1ac0      	subs	r0, r0, r3
 800030a:	4152      	adcs	r2, r2
 800030c:	0943      	lsrs	r3, r0, #5
 800030e:	428b      	cmp	r3, r1
 8000310:	d301      	bcc.n	8000316 <__divsi3+0xc6>
 8000312:	014b      	lsls	r3, r1, #5
 8000314:	1ac0      	subs	r0, r0, r3
 8000316:	4152      	adcs	r2, r2
 8000318:	0903      	lsrs	r3, r0, #4
 800031a:	428b      	cmp	r3, r1
 800031c:	d301      	bcc.n	8000322 <__divsi3+0xd2>
 800031e:	010b      	lsls	r3, r1, #4
 8000320:	1ac0      	subs	r0, r0, r3
 8000322:	4152      	adcs	r2, r2
 8000324:	08c3      	lsrs	r3, r0, #3
 8000326:	428b      	cmp	r3, r1
 8000328:	d301      	bcc.n	800032e <__divsi3+0xde>
 800032a:	00cb      	lsls	r3, r1, #3
 800032c:	1ac0      	subs	r0, r0, r3
 800032e:	4152      	adcs	r2, r2
 8000330:	0883      	lsrs	r3, r0, #2
 8000332:	428b      	cmp	r3, r1
 8000334:	d301      	bcc.n	800033a <__divsi3+0xea>
 8000336:	008b      	lsls	r3, r1, #2
 8000338:	1ac0      	subs	r0, r0, r3
 800033a:	4152      	adcs	r2, r2
 800033c:	0843      	lsrs	r3, r0, #1
 800033e:	428b      	cmp	r3, r1
 8000340:	d301      	bcc.n	8000346 <__divsi3+0xf6>
 8000342:	004b      	lsls	r3, r1, #1
 8000344:	1ac0      	subs	r0, r0, r3
 8000346:	4152      	adcs	r2, r2
 8000348:	1a41      	subs	r1, r0, r1
 800034a:	d200      	bcs.n	800034e <__divsi3+0xfe>
 800034c:	4601      	mov	r1, r0
 800034e:	4152      	adcs	r2, r2
 8000350:	4610      	mov	r0, r2
 8000352:	4770      	bx	lr
 8000354:	e05d      	b.n	8000412 <__divsi3+0x1c2>
 8000356:	0fca      	lsrs	r2, r1, #31
 8000358:	d000      	beq.n	800035c <__divsi3+0x10c>
 800035a:	4249      	negs	r1, r1
 800035c:	1003      	asrs	r3, r0, #32
 800035e:	d300      	bcc.n	8000362 <__divsi3+0x112>
 8000360:	4240      	negs	r0, r0
 8000362:	4053      	eors	r3, r2
 8000364:	2200      	movs	r2, #0
 8000366:	469c      	mov	ip, r3
 8000368:	0903      	lsrs	r3, r0, #4
 800036a:	428b      	cmp	r3, r1
 800036c:	d32d      	bcc.n	80003ca <__divsi3+0x17a>
 800036e:	0a03      	lsrs	r3, r0, #8
 8000370:	428b      	cmp	r3, r1
 8000372:	d312      	bcc.n	800039a <__divsi3+0x14a>
 8000374:	22fc      	movs	r2, #252	@ 0xfc
 8000376:	0189      	lsls	r1, r1, #6
 8000378:	ba12      	rev	r2, r2
 800037a:	0a03      	lsrs	r3, r0, #8
 800037c:	428b      	cmp	r3, r1
 800037e:	d30c      	bcc.n	800039a <__divsi3+0x14a>
 8000380:	0189      	lsls	r1, r1, #6
 8000382:	1192      	asrs	r2, r2, #6
 8000384:	428b      	cmp	r3, r1
 8000386:	d308      	bcc.n	800039a <__divsi3+0x14a>
 8000388:	0189      	lsls	r1, r1, #6
 800038a:	1192      	asrs	r2, r2, #6
 800038c:	428b      	cmp	r3, r1
 800038e:	d304      	bcc.n	800039a <__divsi3+0x14a>
 8000390:	0189      	lsls	r1, r1, #6
 8000392:	d03a      	beq.n	800040a <__divsi3+0x1ba>
 8000394:	1192      	asrs	r2, r2, #6
 8000396:	e000      	b.n	800039a <__divsi3+0x14a>
 8000398:	0989      	lsrs	r1, r1, #6
 800039a:	09c3      	lsrs	r3, r0, #7
 800039c:	428b      	cmp	r3, r1
 800039e:	d301      	bcc.n	80003a4 <__divsi3+0x154>
 80003a0:	01cb      	lsls	r3, r1, #7
 80003a2:	1ac0      	subs	r0, r0, r3
 80003a4:	4152      	adcs	r2, r2
 80003a6:	0983      	lsrs	r3, r0, #6
 80003a8:	428b      	cmp	r3, r1
 80003aa:	d301      	bcc.n	80003b0 <__divsi3+0x160>
 80003ac:	018b      	lsls	r3, r1, #6
 80003ae:	1ac0      	subs	r0, r0, r3
 80003b0:	4152      	adcs	r2, r2
 80003b2:	0943      	lsrs	r3, r0, #5
 80003b4:	428b      	cmp	r3, r1
 80003b6:	d301      	bcc.n	80003bc <__divsi3+0x16c>
 80003b8:	014b      	lsls	r3, r1, #5
 80003ba:	1ac0      	subs	r0, r0, r3
 80003bc:	4152      	adcs	r2, r2
 80003be:	0903      	lsrs	r3, r0, #4
 80003c0:	428b      	cmp	r3, r1
 80003c2:	d301      	bcc.n	80003c8 <__divsi3+0x178>
 80003c4:	010b      	lsls	r3, r1, #4
 80003c6:	1ac0      	subs	r0, r0, r3
 80003c8:	4152      	adcs	r2, r2
 80003ca:	08c3      	lsrs	r3, r0, #3
 80003cc:	428b      	cmp	r3, r1
 80003ce:	d301      	bcc.n	80003d4 <__divsi3+0x184>
 80003d0:	00cb      	lsls	r3, r1, #3
 80003d2:	1ac0      	subs	r0, r0, r3
 80003d4:	4152      	adcs	r2, r2
 80003d6:	0883      	lsrs	r3, r0, #2
 80003d8:	428b      	cmp	r3, r1
 80003da:	d301      	bcc.n	80003e0 <__divsi3+0x190>
 80003dc:	008b      	lsls	r3, r1, #2
 80003de:	1ac0      	subs	r0, r0, r3
 80003e0:	4152      	adcs	r2, r2
 80003e2:	d2d9      	bcs.n	8000398 <__divsi3+0x148>
 80003e4:	0843      	lsrs	r3, r0, #1
 80003e6:	428b      	cmp	r3, r1
 80003e8:	d301      	bcc.n	80003ee <__divsi3+0x19e>
 80003ea:	004b      	lsls	r3, r1, #1
 80003ec:	1ac0      	subs	r0, r0, r3
 80003ee:	4152      	adcs	r2, r2
 80003f0:	1a41      	subs	r1, r0, r1
 80003f2:	d200      	bcs.n	80003f6 <__divsi3+0x1a6>
 80003f4:	4601      	mov	r1, r0
 80003f6:	4663      	mov	r3, ip
 80003f8:	4152      	adcs	r2, r2
 80003fa:	105b      	asrs	r3, r3, #1
 80003fc:	4610      	mov	r0, r2
 80003fe:	d301      	bcc.n	8000404 <__divsi3+0x1b4>
 8000400:	4240      	negs	r0, r0
 8000402:	2b00      	cmp	r3, #0
 8000404:	d500      	bpl.n	8000408 <__divsi3+0x1b8>
 8000406:	4249      	negs	r1, r1
 8000408:	4770      	bx	lr
 800040a:	4663      	mov	r3, ip
 800040c:	105b      	asrs	r3, r3, #1
 800040e:	d300      	bcc.n	8000412 <__divsi3+0x1c2>
 8000410:	4240      	negs	r0, r0
 8000412:	b501      	push	{r0, lr}
 8000414:	2000      	movs	r0, #0
 8000416:	f000 f805 	bl	8000424 <__aeabi_idiv0>
 800041a:	bd02      	pop	{r1, pc}

0800041c <__aeabi_idivmod>:
 800041c:	2900      	cmp	r1, #0
 800041e:	d0f8      	beq.n	8000412 <__divsi3+0x1c2>
 8000420:	e716      	b.n	8000250 <__divsi3>
 8000422:	4770      	bx	lr

08000424 <__aeabi_idiv0>:
 8000424:	4770      	bx	lr
 8000426:	46c0      	nop			@ (mov r8, r8)

08000428 <__aeabi_cdrcmple>:
 8000428:	4684      	mov	ip, r0
 800042a:	0010      	movs	r0, r2
 800042c:	4662      	mov	r2, ip
 800042e:	468c      	mov	ip, r1
 8000430:	0019      	movs	r1, r3
 8000432:	4663      	mov	r3, ip
 8000434:	e000      	b.n	8000438 <__aeabi_cdcmpeq>
 8000436:	46c0      	nop			@ (mov r8, r8)

08000438 <__aeabi_cdcmpeq>:
 8000438:	b51f      	push	{r0, r1, r2, r3, r4, lr}
 800043a:	f001 faf5 	bl	8001a28 <__ledf2>
 800043e:	2800      	cmp	r0, #0
 8000440:	d401      	bmi.n	8000446 <__aeabi_cdcmpeq+0xe>
 8000442:	2100      	movs	r1, #0
 8000444:	42c8      	cmn	r0, r1
 8000446:	bd1f      	pop	{r0, r1, r2, r3, r4, pc}

08000448 <__aeabi_dcmpeq>:
 8000448:	b510      	push	{r4, lr}
 800044a:	f001 fa35 	bl	80018b8 <__eqdf2>
 800044e:	4240      	negs	r0, r0
 8000450:	3001      	adds	r0, #1
 8000452:	bd10      	pop	{r4, pc}

08000454 <__aeabi_dcmplt>:
 8000454:	b510      	push	{r4, lr}
 8000456:	f001 fae7 	bl	8001a28 <__ledf2>
 800045a:	2800      	cmp	r0, #0
 800045c:	db01      	blt.n	8000462 <__aeabi_dcmplt+0xe>
 800045e:	2000      	movs	r0, #0
 8000460:	bd10      	pop	{r4, pc}
 8000462:	2001      	movs	r0, #1
 8000464:	bd10      	pop	{r4, pc}
 8000466:	46c0      	nop			@ (mov r8, r8)

08000468 <__aeabi_dcmple>:
 8000468:	b510      	push	{r4, lr}
 800046a:	f001 fadd 	bl	8001a28 <__ledf2>
 800046e:	2800      	cmp	r0, #0
 8000470:	dd01      	ble.n	8000476 <__aeabi_dcmple+0xe>
 8000472:	2000      	movs	r0, #0
 8000474:	bd10      	pop	{r4, pc}
 8000476:	2001      	movs	r0, #1
 8000478:	bd10      	pop	{r4, pc}
 800047a:	46c0      	nop			@ (mov r8, r8)

0800047c <__aeabi_dcmpgt>:
 800047c:	b510      	push	{r4, lr}
 800047e:	f001 fa5f 	bl	8001940 <__gedf2>
 8000482:	2800      	cmp	r0, #0
 8000484:	dc01      	bgt.n	800048a <__aeabi_dcmpgt+0xe>
 8000486:	2000      	movs	r0, #0
 8000488:	bd10      	pop	{r4, pc}
 800048a:	2001      	movs	r0, #1
 800048c:	bd10      	pop	{r4, pc}
 800048e:	46c0      	nop			@ (mov r8, r8)

08000490 <__aeabi_dcmpge>:
 8000490:	b510      	push	{r4, lr}
 8000492:	f001 fa55 	bl	8001940 <__gedf2>
 8000496:	2800      	cmp	r0, #0
 8000498:	da01      	bge.n	800049e <__aeabi_dcmpge+0xe>
 800049a:	2000      	movs	r0, #0
 800049c:	bd10      	pop	{r4, pc}
 800049e:	2001      	movs	r0, #1
 80004a0:	bd10      	pop	{r4, pc}
 80004a2:	46c0      	nop			@ (mov r8, r8)

080004a4 <__aeabi_cfrcmple>:
 80004a4:	4684      	mov	ip, r0
 80004a6:	0008      	movs	r0, r1
 80004a8:	4661      	mov	r1, ip
 80004aa:	e7ff      	b.n	80004ac <__aeabi_cfcmpeq>

080004ac <__aeabi_cfcmpeq>:
 80004ac:	b51f      	push	{r0, r1, r2, r3, r4, lr}
 80004ae:	f000 f931 	bl	8000714 <__lesf2>
 80004b2:	2800      	cmp	r0, #0
 80004b4:	d401      	bmi.n	80004ba <__aeabi_cfcmpeq+0xe>
 80004b6:	2100      	movs	r1, #0
 80004b8:	42c8      	cmn	r0, r1
 80004ba:	bd1f      	pop	{r0, r1, r2, r3, r4, pc}

080004bc <__aeabi_fcmpeq>:
 80004bc:	b510      	push	{r4, lr}
 80004be:	f000 f8b1 	bl	8000624 <__eqsf2>
 80004c2:	4240      	negs	r0, r0
 80004c4:	3001      	adds	r0, #1
 80004c6:	bd10      	pop	{r4, pc}

080004c8 <__aeabi_fcmplt>:
 80004c8:	b510      	push	{r4, lr}
 80004ca:	f000 f923 	bl	8000714 <__lesf2>
 80004ce:	2800      	cmp	r0, #0
 80004d0:	db01      	blt.n	80004d6 <__aeabi_fcmplt+0xe>
 80004d2:	2000      	movs	r0, #0
 80004d4:	bd10      	pop	{r4, pc}
 80004d6:	2001      	movs	r0, #1
 80004d8:	bd10      	pop	{r4, pc}
 80004da:	46c0      	nop			@ (mov r8, r8)

080004dc <__aeabi_fcmple>:
 80004dc:	b510      	push	{r4, lr}
 80004de:	f000 f919 	bl	8000714 <__lesf2>
 80004e2:	2800      	cmp	r0, #0
 80004e4:	dd01      	ble.n	80004ea <__aeabi_fcmple+0xe>
 80004e6:	2000      	movs	r0, #0
 80004e8:	bd10      	pop	{r4, pc}
 80004ea:	2001      	movs	r0, #1
 80004ec:	bd10      	pop	{r4, pc}
 80004ee:	46c0      	nop			@ (mov r8, r8)

080004f0 <__aeabi_fcmpgt>:
 80004f0:	b510      	push	{r4, lr}
 80004f2:	f000 f8bf 	bl	8000674 <__gesf2>
 80004f6:	2800      	cmp	r0, #0
 80004f8:	dc01      	bgt.n	80004fe <__aeabi_fcmpgt+0xe>
 80004fa:	2000      	movs	r0, #0
 80004fc:	bd10      	pop	{r4, pc}
 80004fe:	2001      	movs	r0, #1
 8000500:	bd10      	pop	{r4, pc}
 8000502:	46c0      	nop			@ (mov r8, r8)

08000504 <__aeabi_fcmpge>:
 8000504:	b510      	push	{r4, lr}
 8000506:	f000 f8b5 	bl	8000674 <__gesf2>
 800050a:	2800      	cmp	r0, #0
 800050c:	da01      	bge.n	8000512 <__aeabi_fcmpge+0xe>
 800050e:	2000      	movs	r0, #0
 8000510:	bd10      	pop	{r4, pc}
 8000512:	2001      	movs	r0, #1
 8000514:	bd10      	pop	{r4, pc}
 8000516:	46c0      	nop			@ (mov r8, r8)

08000518 <__aeabi_f2uiz>:
 8000518:	219e      	movs	r1, #158	@ 0x9e
 800051a:	b510      	push	{r4, lr}
 800051c:	05c9      	lsls	r1, r1, #23
 800051e:	1c04      	adds	r4, r0, #0
 8000520:	f7ff fff0 	bl	8000504 <__aeabi_fcmpge>
 8000524:	2800      	cmp	r0, #0
 8000526:	d103      	bne.n	8000530 <__aeabi_f2uiz+0x18>
 8000528:	1c20      	adds	r0, r4, #0
 800052a:	f000 fae5 	bl	8000af8 <__aeabi_f2iz>
 800052e:	bd10      	pop	{r4, pc}
 8000530:	219e      	movs	r1, #158	@ 0x9e
 8000532:	1c20      	adds	r0, r4, #0
 8000534:	05c9      	lsls	r1, r1, #23
 8000536:	f000 f93b 	bl	80007b0 <__aeabi_fsub>
 800053a:	f000 fadd 	bl	8000af8 <__aeabi_f2iz>
 800053e:	2380      	movs	r3, #128	@ 0x80
 8000540:	061b      	lsls	r3, r3, #24
 8000542:	469c      	mov	ip, r3
 8000544:	4460      	add	r0, ip
 8000546:	e7f2      	b.n	800052e <__aeabi_f2uiz+0x16>

08000548 <__aeabi_d2uiz>:
 8000548:	b570      	push	{r4, r5, r6, lr}
 800054a:	2200      	movs	r2, #0
 800054c:	4b0c      	ldr	r3, [pc, #48]	@ (8000580 <__aeabi_d2uiz+0x38>)
 800054e:	0004      	movs	r4, r0
 8000550:	000d      	movs	r5, r1
 8000552:	f7ff ff9d 	bl	8000490 <__aeabi_dcmpge>
 8000556:	2800      	cmp	r0, #0
 8000558:	d104      	bne.n	8000564 <__aeabi_d2uiz+0x1c>
 800055a:	0020      	movs	r0, r4
 800055c:	0029      	movs	r1, r5
 800055e:	f002 f95b 	bl	8002818 <__aeabi_d2iz>
 8000562:	bd70      	pop	{r4, r5, r6, pc}
 8000564:	4b06      	ldr	r3, [pc, #24]	@ (8000580 <__aeabi_d2uiz+0x38>)
 8000566:	2200      	movs	r2, #0
 8000568:	0020      	movs	r0, r4
 800056a:	0029      	movs	r1, r5
 800056c:	f001 fd96 	bl	800209c <__aeabi_dsub>
 8000570:	f002 f952 	bl	8002818 <__aeabi_d2iz>
 8000574:	2380      	movs	r3, #128	@ 0x80
 8000576:	061b      	lsls	r3, r3, #24
 8000578:	469c      	mov	ip, r3
 800057a:	4460      	add	r0, ip
 800057c:	e7f1      	b.n	8000562 <__aeabi_d2uiz+0x1a>
 800057e:	46c0      	nop			@ (mov r8, r8)
 8000580:	41e00000 	.word	0x41e00000

08000584 <__aeabi_d2lz>:
 8000584:	b570      	push	{r4, r5, r6, lr}
 8000586:	2200      	movs	r2, #0
 8000588:	2300      	movs	r3, #0
 800058a:	0004      	movs	r4, r0
 800058c:	000d      	movs	r5, r1
 800058e:	f7ff ff61 	bl	8000454 <__aeabi_dcmplt>
 8000592:	2800      	cmp	r0, #0
 8000594:	d108      	bne.n	80005a8 <__aeabi_d2lz+0x24>
 8000596:	0020      	movs	r0, r4
 8000598:	0029      	movs	r1, r5
 800059a:	f000 f80f 	bl	80005bc <__aeabi_d2ulz>
 800059e:	0002      	movs	r2, r0
 80005a0:	000b      	movs	r3, r1
 80005a2:	0010      	movs	r0, r2
 80005a4:	0019      	movs	r1, r3
 80005a6:	bd70      	pop	{r4, r5, r6, pc}
 80005a8:	2380      	movs	r3, #128	@ 0x80
 80005aa:	061b      	lsls	r3, r3, #24
 80005ac:	18e9      	adds	r1, r5, r3
 80005ae:	0020      	movs	r0, r4
 80005b0:	f000 f804 	bl	80005bc <__aeabi_d2ulz>
 80005b4:	2300      	movs	r3, #0
 80005b6:	4242      	negs	r2, r0
 80005b8:	418b      	sbcs	r3, r1
 80005ba:	e7f2      	b.n	80005a2 <__aeabi_d2lz+0x1e>

080005bc <__aeabi_d2ulz>:
 80005bc:	b570      	push	{r4, r5, r6, lr}
 80005be:	2200      	movs	r2, #0
 80005c0:	4b0b      	ldr	r3, [pc, #44]	@ (80005f0 <__aeabi_d2ulz+0x34>)
 80005c2:	000d      	movs	r5, r1
 80005c4:	0004      	movs	r4, r0
 80005c6:	f001 faa1 	bl	8001b0c <__aeabi_dmul>
 80005ca:	f7ff ffbd 	bl	8000548 <__aeabi_d2uiz>
 80005ce:	0006      	movs	r6, r0
 80005d0:	f002 f98c 	bl	80028ec <__aeabi_ui2d>
 80005d4:	2200      	movs	r2, #0
 80005d6:	4b07      	ldr	r3, [pc, #28]	@ (80005f4 <__aeabi_d2ulz+0x38>)
 80005d8:	f001 fa98 	bl	8001b0c <__aeabi_dmul>
 80005dc:	0002      	movs	r2, r0
 80005de:	000b      	movs	r3, r1
 80005e0:	0020      	movs	r0, r4
 80005e2:	0029      	movs	r1, r5
 80005e4:	f001 fd5a 	bl	800209c <__aeabi_dsub>
 80005e8:	f7ff ffae 	bl	8000548 <__aeabi_d2uiz>
 80005ec:	0031      	movs	r1, r6
 80005ee:	bd70      	pop	{r4, r5, r6, pc}
 80005f0:	3df00000 	.word	0x3df00000
 80005f4:	41f00000 	.word	0x41f00000

080005f8 <__aeabi_l2d>:
 80005f8:	b570      	push	{r4, r5, r6, lr}
 80005fa:	0006      	movs	r6, r0
 80005fc:	0008      	movs	r0, r1
 80005fe:	f002 f947 	bl	8002890 <__aeabi_i2d>
 8000602:	2200      	movs	r2, #0
 8000604:	4b06      	ldr	r3, [pc, #24]	@ (8000620 <__aeabi_l2d+0x28>)
 8000606:	f001 fa81 	bl	8001b0c <__aeabi_dmul>
 800060a:	000d      	movs	r5, r1
 800060c:	0004      	movs	r4, r0
 800060e:	0030      	movs	r0, r6
 8000610:	f002 f96c 	bl	80028ec <__aeabi_ui2d>
 8000614:	002b      	movs	r3, r5
 8000616:	0022      	movs	r2, r4
 8000618:	f000 fad0 	bl	8000bbc <__aeabi_dadd>
 800061c:	bd70      	pop	{r4, r5, r6, pc}
 800061e:	46c0      	nop			@ (mov r8, r8)
 8000620:	41f00000 	.word	0x41f00000

08000624 <__eqsf2>:
 8000624:	b570      	push	{r4, r5, r6, lr}
 8000626:	0042      	lsls	r2, r0, #1
 8000628:	024e      	lsls	r6, r1, #9
 800062a:	004c      	lsls	r4, r1, #1
 800062c:	0245      	lsls	r5, r0, #9
 800062e:	0a6d      	lsrs	r5, r5, #9
 8000630:	0e12      	lsrs	r2, r2, #24
 8000632:	0fc3      	lsrs	r3, r0, #31
 8000634:	0a76      	lsrs	r6, r6, #9
 8000636:	0e24      	lsrs	r4, r4, #24
 8000638:	0fc9      	lsrs	r1, r1, #31
 800063a:	2aff      	cmp	r2, #255	@ 0xff
 800063c:	d010      	beq.n	8000660 <__eqsf2+0x3c>
 800063e:	2cff      	cmp	r4, #255	@ 0xff
 8000640:	d00c      	beq.n	800065c <__eqsf2+0x38>
 8000642:	2001      	movs	r0, #1
 8000644:	42a2      	cmp	r2, r4
 8000646:	d10a      	bne.n	800065e <__eqsf2+0x3a>
 8000648:	42b5      	cmp	r5, r6
 800064a:	d108      	bne.n	800065e <__eqsf2+0x3a>
 800064c:	428b      	cmp	r3, r1
 800064e:	d00f      	beq.n	8000670 <__eqsf2+0x4c>
 8000650:	2a00      	cmp	r2, #0
 8000652:	d104      	bne.n	800065e <__eqsf2+0x3a>
 8000654:	0028      	movs	r0, r5
 8000656:	1e43      	subs	r3, r0, #1
 8000658:	4198      	sbcs	r0, r3
 800065a:	e000      	b.n	800065e <__eqsf2+0x3a>
 800065c:	2001      	movs	r0, #1
 800065e:	bd70      	pop	{r4, r5, r6, pc}
 8000660:	2001      	movs	r0, #1
 8000662:	2cff      	cmp	r4, #255	@ 0xff
 8000664:	d1fb      	bne.n	800065e <__eqsf2+0x3a>
 8000666:	4335      	orrs	r5, r6
 8000668:	d1f9      	bne.n	800065e <__eqsf2+0x3a>
 800066a:	404b      	eors	r3, r1
 800066c:	0018      	movs	r0, r3
 800066e:	e7f6      	b.n	800065e <__eqsf2+0x3a>
 8000670:	2000      	movs	r0, #0
 8000672:	e7f4      	b.n	800065e <__eqsf2+0x3a>

08000674 <__gesf2>:
 8000674:	b530      	push	{r4, r5, lr}
 8000676:	0042      	lsls	r2, r0, #1
 8000678:	0244      	lsls	r4, r0, #9
 800067a:	024d      	lsls	r5, r1, #9
 800067c:	0fc3      	lsrs	r3, r0, #31
 800067e:	0048      	lsls	r0, r1, #1
 8000680:	0a64      	lsrs	r4, r4, #9
 8000682:	0e12      	lsrs	r2, r2, #24
 8000684:	0a6d      	lsrs	r5, r5, #9
 8000686:	0e00      	lsrs	r0, r0, #24
 8000688:	0fc9      	lsrs	r1, r1, #31
 800068a:	2aff      	cmp	r2, #255	@ 0xff
 800068c:	d019      	beq.n	80006c2 <__gesf2+0x4e>
 800068e:	28ff      	cmp	r0, #255	@ 0xff
 8000690:	d00b      	beq.n	80006aa <__gesf2+0x36>
 8000692:	2a00      	cmp	r2, #0
 8000694:	d11e      	bne.n	80006d4 <__gesf2+0x60>
 8000696:	2800      	cmp	r0, #0
 8000698:	d10b      	bne.n	80006b2 <__gesf2+0x3e>
 800069a:	2d00      	cmp	r5, #0
 800069c:	d027      	beq.n	80006ee <__gesf2+0x7a>
 800069e:	2c00      	cmp	r4, #0
 80006a0:	d134      	bne.n	800070c <__gesf2+0x98>
 80006a2:	2900      	cmp	r1, #0
 80006a4:	d02f      	beq.n	8000706 <__gesf2+0x92>
 80006a6:	0008      	movs	r0, r1
 80006a8:	bd30      	pop	{r4, r5, pc}
 80006aa:	2d00      	cmp	r5, #0
 80006ac:	d128      	bne.n	8000700 <__gesf2+0x8c>
 80006ae:	2a00      	cmp	r2, #0
 80006b0:	d101      	bne.n	80006b6 <__gesf2+0x42>
 80006b2:	2c00      	cmp	r4, #0
 80006b4:	d0f5      	beq.n	80006a2 <__gesf2+0x2e>
 80006b6:	428b      	cmp	r3, r1
 80006b8:	d107      	bne.n	80006ca <__gesf2+0x56>
 80006ba:	2b00      	cmp	r3, #0
 80006bc:	d023      	beq.n	8000706 <__gesf2+0x92>
 80006be:	0018      	movs	r0, r3
 80006c0:	e7f2      	b.n	80006a8 <__gesf2+0x34>
 80006c2:	2c00      	cmp	r4, #0
 80006c4:	d11c      	bne.n	8000700 <__gesf2+0x8c>
 80006c6:	28ff      	cmp	r0, #255	@ 0xff
 80006c8:	d014      	beq.n	80006f4 <__gesf2+0x80>
 80006ca:	1e58      	subs	r0, r3, #1
 80006cc:	2302      	movs	r3, #2
 80006ce:	4018      	ands	r0, r3
 80006d0:	3801      	subs	r0, #1
 80006d2:	e7e9      	b.n	80006a8 <__gesf2+0x34>
 80006d4:	2800      	cmp	r0, #0
 80006d6:	d0f8      	beq.n	80006ca <__gesf2+0x56>
 80006d8:	428b      	cmp	r3, r1
 80006da:	d1f6      	bne.n	80006ca <__gesf2+0x56>
 80006dc:	4282      	cmp	r2, r0
 80006de:	dcf4      	bgt.n	80006ca <__gesf2+0x56>
 80006e0:	dbeb      	blt.n	80006ba <__gesf2+0x46>
 80006e2:	42ac      	cmp	r4, r5
 80006e4:	d8f1      	bhi.n	80006ca <__gesf2+0x56>
 80006e6:	2000      	movs	r0, #0
 80006e8:	42ac      	cmp	r4, r5
 80006ea:	d2dd      	bcs.n	80006a8 <__gesf2+0x34>
 80006ec:	e7e5      	b.n	80006ba <__gesf2+0x46>
 80006ee:	2c00      	cmp	r4, #0
 80006f0:	d0da      	beq.n	80006a8 <__gesf2+0x34>
 80006f2:	e7ea      	b.n	80006ca <__gesf2+0x56>
 80006f4:	2d00      	cmp	r5, #0
 80006f6:	d103      	bne.n	8000700 <__gesf2+0x8c>
 80006f8:	428b      	cmp	r3, r1
 80006fa:	d1e6      	bne.n	80006ca <__gesf2+0x56>
 80006fc:	2000      	movs	r0, #0
 80006fe:	e7d3      	b.n	80006a8 <__gesf2+0x34>
 8000700:	2002      	movs	r0, #2
 8000702:	4240      	negs	r0, r0
 8000704:	e7d0      	b.n	80006a8 <__gesf2+0x34>
 8000706:	2001      	movs	r0, #1
 8000708:	4240      	negs	r0, r0
 800070a:	e7cd      	b.n	80006a8 <__gesf2+0x34>
 800070c:	428b      	cmp	r3, r1
 800070e:	d0e8      	beq.n	80006e2 <__gesf2+0x6e>
 8000710:	e7db      	b.n	80006ca <__gesf2+0x56>
 8000712:	46c0      	nop			@ (mov r8, r8)

08000714 <__lesf2>:
 8000714:	b530      	push	{r4, r5, lr}
 8000716:	0042      	lsls	r2, r0, #1
 8000718:	0244      	lsls	r4, r0, #9
 800071a:	024d      	lsls	r5, r1, #9
 800071c:	0fc3      	lsrs	r3, r0, #31
 800071e:	0048      	lsls	r0, r1, #1
 8000720:	0a64      	lsrs	r4, r4, #9
 8000722:	0e12      	lsrs	r2, r2, #24
 8000724:	0a6d      	lsrs	r5, r5, #9
 8000726:	0e00      	lsrs	r0, r0, #24
 8000728:	0fc9      	lsrs	r1, r1, #31
 800072a:	2aff      	cmp	r2, #255	@ 0xff
 800072c:	d01a      	beq.n	8000764 <__lesf2+0x50>
 800072e:	28ff      	cmp	r0, #255	@ 0xff
 8000730:	d00e      	beq.n	8000750 <__lesf2+0x3c>
 8000732:	2a00      	cmp	r2, #0
 8000734:	d11e      	bne.n	8000774 <__lesf2+0x60>
 8000736:	2800      	cmp	r0, #0
 8000738:	d10e      	bne.n	8000758 <__lesf2+0x44>
 800073a:	2d00      	cmp	r5, #0
 800073c:	d02a      	beq.n	8000794 <__lesf2+0x80>
 800073e:	2c00      	cmp	r4, #0
 8000740:	d00c      	beq.n	800075c <__lesf2+0x48>
 8000742:	428b      	cmp	r3, r1
 8000744:	d01d      	beq.n	8000782 <__lesf2+0x6e>
 8000746:	1e58      	subs	r0, r3, #1
 8000748:	2302      	movs	r3, #2
 800074a:	4018      	ands	r0, r3
 800074c:	3801      	subs	r0, #1
 800074e:	e010      	b.n	8000772 <__lesf2+0x5e>
 8000750:	2d00      	cmp	r5, #0
 8000752:	d10d      	bne.n	8000770 <__lesf2+0x5c>
 8000754:	2a00      	cmp	r2, #0
 8000756:	d120      	bne.n	800079a <__lesf2+0x86>
 8000758:	2c00      	cmp	r4, #0
 800075a:	d11e      	bne.n	800079a <__lesf2+0x86>
 800075c:	2900      	cmp	r1, #0
 800075e:	d023      	beq.n	80007a8 <__lesf2+0x94>
 8000760:	0008      	movs	r0, r1
 8000762:	e006      	b.n	8000772 <__lesf2+0x5e>
 8000764:	2c00      	cmp	r4, #0
 8000766:	d103      	bne.n	8000770 <__lesf2+0x5c>
 8000768:	28ff      	cmp	r0, #255	@ 0xff
 800076a:	d1ec      	bne.n	8000746 <__lesf2+0x32>
 800076c:	2d00      	cmp	r5, #0
 800076e:	d017      	beq.n	80007a0 <__lesf2+0x8c>
 8000770:	2002      	movs	r0, #2
 8000772:	bd30      	pop	{r4, r5, pc}
 8000774:	2800      	cmp	r0, #0
 8000776:	d0e6      	beq.n	8000746 <__lesf2+0x32>
 8000778:	428b      	cmp	r3, r1
 800077a:	d1e4      	bne.n	8000746 <__lesf2+0x32>
 800077c:	4282      	cmp	r2, r0
 800077e:	dce2      	bgt.n	8000746 <__lesf2+0x32>
 8000780:	db04      	blt.n	800078c <__lesf2+0x78>
 8000782:	42ac      	cmp	r4, r5
 8000784:	d8df      	bhi.n	8000746 <__lesf2+0x32>
 8000786:	2000      	movs	r0, #0
 8000788:	42ac      	cmp	r4, r5
 800078a:	d2f2      	bcs.n	8000772 <__lesf2+0x5e>
 800078c:	2b00      	cmp	r3, #0
 800078e:	d00b      	beq.n	80007a8 <__lesf2+0x94>
 8000790:	0018      	movs	r0, r3
 8000792:	e7ee      	b.n	8000772 <__lesf2+0x5e>
 8000794:	2c00      	cmp	r4, #0
 8000796:	d0ec      	beq.n	8000772 <__lesf2+0x5e>
 8000798:	e7d5      	b.n	8000746 <__lesf2+0x32>
 800079a:	428b      	cmp	r3, r1
 800079c:	d1d3      	bne.n	8000746 <__lesf2+0x32>
 800079e:	e7f5      	b.n	800078c <__lesf2+0x78>
 80007a0:	2000      	movs	r0, #0
 80007a2:	428b      	cmp	r3, r1
 80007a4:	d0e5      	beq.n	8000772 <__lesf2+0x5e>
 80007a6:	e7ce      	b.n	8000746 <__lesf2+0x32>
 80007a8:	2001      	movs	r0, #1
 80007aa:	4240      	negs	r0, r0
 80007ac:	e7e1      	b.n	8000772 <__lesf2+0x5e>
 80007ae:	46c0      	nop			@ (mov r8, r8)

080007b0 <__aeabi_fsub>:
 80007b0:	b5f8      	push	{r3, r4, r5, r6, r7, lr}
 80007b2:	4647      	mov	r7, r8
 80007b4:	46ce      	mov	lr, r9
 80007b6:	024e      	lsls	r6, r1, #9
 80007b8:	0243      	lsls	r3, r0, #9
 80007ba:	0045      	lsls	r5, r0, #1
 80007bc:	0a72      	lsrs	r2, r6, #9
 80007be:	0fc4      	lsrs	r4, r0, #31
 80007c0:	0048      	lsls	r0, r1, #1
 80007c2:	b580      	push	{r7, lr}
 80007c4:	4694      	mov	ip, r2
 80007c6:	0a5f      	lsrs	r7, r3, #9
 80007c8:	0e2d      	lsrs	r5, r5, #24
 80007ca:	099b      	lsrs	r3, r3, #6
 80007cc:	0e00      	lsrs	r0, r0, #24
 80007ce:	0fc9      	lsrs	r1, r1, #31
 80007d0:	09b6      	lsrs	r6, r6, #6
 80007d2:	28ff      	cmp	r0, #255	@ 0xff
 80007d4:	d024      	beq.n	8000820 <__aeabi_fsub+0x70>
 80007d6:	2201      	movs	r2, #1
 80007d8:	4051      	eors	r1, r2
 80007da:	1a2a      	subs	r2, r5, r0
 80007dc:	428c      	cmp	r4, r1
 80007de:	d00f      	beq.n	8000800 <__aeabi_fsub+0x50>
 80007e0:	2a00      	cmp	r2, #0
 80007e2:	dc00      	bgt.n	80007e6 <__aeabi_fsub+0x36>
 80007e4:	e16a      	b.n	8000abc <__aeabi_fsub+0x30c>
 80007e6:	2800      	cmp	r0, #0
 80007e8:	d135      	bne.n	8000856 <__aeabi_fsub+0xa6>
 80007ea:	2e00      	cmp	r6, #0
 80007ec:	d100      	bne.n	80007f0 <__aeabi_fsub+0x40>
 80007ee:	e0a2      	b.n	8000936 <__aeabi_fsub+0x186>
 80007f0:	1e51      	subs	r1, r2, #1
 80007f2:	2a01      	cmp	r2, #1
 80007f4:	d100      	bne.n	80007f8 <__aeabi_fsub+0x48>
 80007f6:	e124      	b.n	8000a42 <__aeabi_fsub+0x292>
 80007f8:	2aff      	cmp	r2, #255	@ 0xff
 80007fa:	d021      	beq.n	8000840 <__aeabi_fsub+0x90>
 80007fc:	000a      	movs	r2, r1
 80007fe:	e02f      	b.n	8000860 <__aeabi_fsub+0xb0>
 8000800:	2a00      	cmp	r2, #0
 8000802:	dc00      	bgt.n	8000806 <__aeabi_fsub+0x56>
 8000804:	e167      	b.n	8000ad6 <__aeabi_fsub+0x326>
 8000806:	2800      	cmp	r0, #0
 8000808:	d05e      	beq.n	80008c8 <__aeabi_fsub+0x118>
 800080a:	2dff      	cmp	r5, #255	@ 0xff
 800080c:	d018      	beq.n	8000840 <__aeabi_fsub+0x90>
 800080e:	2180      	movs	r1, #128	@ 0x80
 8000810:	04c9      	lsls	r1, r1, #19
 8000812:	430e      	orrs	r6, r1
 8000814:	2a1b      	cmp	r2, #27
 8000816:	dc00      	bgt.n	800081a <__aeabi_fsub+0x6a>
 8000818:	e076      	b.n	8000908 <__aeabi_fsub+0x158>
 800081a:	002a      	movs	r2, r5
 800081c:	3301      	adds	r3, #1
 800081e:	e032      	b.n	8000886 <__aeabi_fsub+0xd6>
 8000820:	002a      	movs	r2, r5
 8000822:	3aff      	subs	r2, #255	@ 0xff
 8000824:	4691      	mov	r9, r2
 8000826:	2e00      	cmp	r6, #0
 8000828:	d042      	beq.n	80008b0 <__aeabi_fsub+0x100>
 800082a:	428c      	cmp	r4, r1
 800082c:	d055      	beq.n	80008da <__aeabi_fsub+0x12a>
 800082e:	464a      	mov	r2, r9
 8000830:	2a00      	cmp	r2, #0
 8000832:	d100      	bne.n	8000836 <__aeabi_fsub+0x86>
 8000834:	e09c      	b.n	8000970 <__aeabi_fsub+0x1c0>
 8000836:	2d00      	cmp	r5, #0
 8000838:	d100      	bne.n	800083c <__aeabi_fsub+0x8c>
 800083a:	e077      	b.n	800092c <__aeabi_fsub+0x17c>
 800083c:	000c      	movs	r4, r1
 800083e:	0033      	movs	r3, r6
 8000840:	08db      	lsrs	r3, r3, #3
 8000842:	2b00      	cmp	r3, #0
 8000844:	d100      	bne.n	8000848 <__aeabi_fsub+0x98>
 8000846:	e06e      	b.n	8000926 <__aeabi_fsub+0x176>
 8000848:	2280      	movs	r2, #128	@ 0x80
 800084a:	03d2      	lsls	r2, r2, #15
 800084c:	4313      	orrs	r3, r2
 800084e:	025b      	lsls	r3, r3, #9
 8000850:	20ff      	movs	r0, #255	@ 0xff
 8000852:	0a5b      	lsrs	r3, r3, #9
 8000854:	e024      	b.n	80008a0 <__aeabi_fsub+0xf0>
 8000856:	2dff      	cmp	r5, #255	@ 0xff
 8000858:	d0f2      	beq.n	8000840 <__aeabi_fsub+0x90>
 800085a:	2180      	movs	r1, #128	@ 0x80
 800085c:	04c9      	lsls	r1, r1, #19
 800085e:	430e      	orrs	r6, r1
 8000860:	2101      	movs	r1, #1
 8000862:	2a1b      	cmp	r2, #27
 8000864:	dc08      	bgt.n	8000878 <__aeabi_fsub+0xc8>
 8000866:	0031      	movs	r1, r6
 8000868:	2020      	movs	r0, #32
 800086a:	40d1      	lsrs	r1, r2
 800086c:	1a82      	subs	r2, r0, r2
 800086e:	4096      	lsls	r6, r2
 8000870:	0032      	movs	r2, r6
 8000872:	1e50      	subs	r0, r2, #1
 8000874:	4182      	sbcs	r2, r0
 8000876:	4311      	orrs	r1, r2
 8000878:	1a5b      	subs	r3, r3, r1
 800087a:	015a      	lsls	r2, r3, #5
 800087c:	d460      	bmi.n	8000940 <__aeabi_fsub+0x190>
 800087e:	2107      	movs	r1, #7
 8000880:	002a      	movs	r2, r5
 8000882:	4019      	ands	r1, r3
 8000884:	d057      	beq.n	8000936 <__aeabi_fsub+0x186>
 8000886:	210f      	movs	r1, #15
 8000888:	4019      	ands	r1, r3
 800088a:	2904      	cmp	r1, #4
 800088c:	d000      	beq.n	8000890 <__aeabi_fsub+0xe0>
 800088e:	3304      	adds	r3, #4
 8000890:	0159      	lsls	r1, r3, #5
 8000892:	d550      	bpl.n	8000936 <__aeabi_fsub+0x186>
 8000894:	1c50      	adds	r0, r2, #1
 8000896:	2afe      	cmp	r2, #254	@ 0xfe
 8000898:	d045      	beq.n	8000926 <__aeabi_fsub+0x176>
 800089a:	019b      	lsls	r3, r3, #6
 800089c:	b2c0      	uxtb	r0, r0
 800089e:	0a5b      	lsrs	r3, r3, #9
 80008a0:	05c0      	lsls	r0, r0, #23
 80008a2:	4318      	orrs	r0, r3
 80008a4:	07e4      	lsls	r4, r4, #31
 80008a6:	4320      	orrs	r0, r4
 80008a8:	bcc0      	pop	{r6, r7}
 80008aa:	46b9      	mov	r9, r7
 80008ac:	46b0      	mov	r8, r6
 80008ae:	bdf8      	pop	{r3, r4, r5, r6, r7, pc}
 80008b0:	2201      	movs	r2, #1
 80008b2:	4051      	eors	r1, r2
 80008b4:	428c      	cmp	r4, r1
 80008b6:	d1ba      	bne.n	800082e <__aeabi_fsub+0x7e>
 80008b8:	464a      	mov	r2, r9
 80008ba:	2a00      	cmp	r2, #0
 80008bc:	d010      	beq.n	80008e0 <__aeabi_fsub+0x130>
 80008be:	2d00      	cmp	r5, #0
 80008c0:	d100      	bne.n	80008c4 <__aeabi_fsub+0x114>
 80008c2:	e098      	b.n	80009f6 <__aeabi_fsub+0x246>
 80008c4:	2300      	movs	r3, #0
 80008c6:	e7bb      	b.n	8000840 <__aeabi_fsub+0x90>
 80008c8:	2e00      	cmp	r6, #0
 80008ca:	d034      	beq.n	8000936 <__aeabi_fsub+0x186>
 80008cc:	1e51      	subs	r1, r2, #1
 80008ce:	2a01      	cmp	r2, #1
 80008d0:	d06e      	beq.n	80009b0 <__aeabi_fsub+0x200>
 80008d2:	2aff      	cmp	r2, #255	@ 0xff
 80008d4:	d0b4      	beq.n	8000840 <__aeabi_fsub+0x90>
 80008d6:	000a      	movs	r2, r1
 80008d8:	e79c      	b.n	8000814 <__aeabi_fsub+0x64>
 80008da:	2a00      	cmp	r2, #0
 80008dc:	d000      	beq.n	80008e0 <__aeabi_fsub+0x130>
 80008de:	e088      	b.n	80009f2 <__aeabi_fsub+0x242>
 80008e0:	20fe      	movs	r0, #254	@ 0xfe
 80008e2:	1c6a      	adds	r2, r5, #1
 80008e4:	4210      	tst	r0, r2
 80008e6:	d000      	beq.n	80008ea <__aeabi_fsub+0x13a>
 80008e8:	e092      	b.n	8000a10 <__aeabi_fsub+0x260>
 80008ea:	2d00      	cmp	r5, #0
 80008ec:	d000      	beq.n	80008f0 <__aeabi_fsub+0x140>
 80008ee:	e0a4      	b.n	8000a3a <__aeabi_fsub+0x28a>
 80008f0:	2b00      	cmp	r3, #0
 80008f2:	d100      	bne.n	80008f6 <__aeabi_fsub+0x146>
 80008f4:	e0cb      	b.n	8000a8e <__aeabi_fsub+0x2de>
 80008f6:	2e00      	cmp	r6, #0
 80008f8:	d000      	beq.n	80008fc <__aeabi_fsub+0x14c>
 80008fa:	e0ca      	b.n	8000a92 <__aeabi_fsub+0x2e2>
 80008fc:	2200      	movs	r2, #0
 80008fe:	08db      	lsrs	r3, r3, #3
 8000900:	025b      	lsls	r3, r3, #9
 8000902:	0a5b      	lsrs	r3, r3, #9
 8000904:	b2d0      	uxtb	r0, r2
 8000906:	e7cb      	b.n	80008a0 <__aeabi_fsub+0xf0>
 8000908:	0031      	movs	r1, r6
 800090a:	2020      	movs	r0, #32
 800090c:	40d1      	lsrs	r1, r2
 800090e:	1a82      	subs	r2, r0, r2
 8000910:	4096      	lsls	r6, r2
 8000912:	0032      	movs	r2, r6
 8000914:	1e50      	subs	r0, r2, #1
 8000916:	4182      	sbcs	r2, r0
 8000918:	430a      	orrs	r2, r1
 800091a:	189b      	adds	r3, r3, r2
 800091c:	015a      	lsls	r2, r3, #5
 800091e:	d5ae      	bpl.n	800087e <__aeabi_fsub+0xce>
 8000920:	1c6a      	adds	r2, r5, #1
 8000922:	2dfe      	cmp	r5, #254	@ 0xfe
 8000924:	d14a      	bne.n	80009bc <__aeabi_fsub+0x20c>
 8000926:	20ff      	movs	r0, #255	@ 0xff
 8000928:	2300      	movs	r3, #0
 800092a:	e7b9      	b.n	80008a0 <__aeabi_fsub+0xf0>
 800092c:	22ff      	movs	r2, #255	@ 0xff
 800092e:	2b00      	cmp	r3, #0
 8000930:	d14b      	bne.n	80009ca <__aeabi_fsub+0x21a>
 8000932:	000c      	movs	r4, r1
 8000934:	0033      	movs	r3, r6
 8000936:	08db      	lsrs	r3, r3, #3
 8000938:	2aff      	cmp	r2, #255	@ 0xff
 800093a:	d100      	bne.n	800093e <__aeabi_fsub+0x18e>
 800093c:	e781      	b.n	8000842 <__aeabi_fsub+0x92>
 800093e:	e7df      	b.n	8000900 <__aeabi_fsub+0x150>
 8000940:	019f      	lsls	r7, r3, #6
 8000942:	09bf      	lsrs	r7, r7, #6
 8000944:	0038      	movs	r0, r7
 8000946:	f002 f8c1 	bl	8002acc <__clzsi2>
 800094a:	3805      	subs	r0, #5
 800094c:	4087      	lsls	r7, r0
 800094e:	4285      	cmp	r5, r0
 8000950:	dc21      	bgt.n	8000996 <__aeabi_fsub+0x1e6>
 8000952:	003b      	movs	r3, r7
 8000954:	2120      	movs	r1, #32
 8000956:	1b42      	subs	r2, r0, r5
 8000958:	3201      	adds	r2, #1
 800095a:	40d3      	lsrs	r3, r2
 800095c:	1a8a      	subs	r2, r1, r2
 800095e:	4097      	lsls	r7, r2
 8000960:	1e7a      	subs	r2, r7, #1
 8000962:	4197      	sbcs	r7, r2
 8000964:	2200      	movs	r2, #0
 8000966:	433b      	orrs	r3, r7
 8000968:	0759      	lsls	r1, r3, #29
 800096a:	d000      	beq.n	800096e <__aeabi_fsub+0x1be>
 800096c:	e78b      	b.n	8000886 <__aeabi_fsub+0xd6>
 800096e:	e78f      	b.n	8000890 <__aeabi_fsub+0xe0>
 8000970:	20fe      	movs	r0, #254	@ 0xfe
 8000972:	1c6a      	adds	r2, r5, #1
 8000974:	4210      	tst	r0, r2
 8000976:	d112      	bne.n	800099e <__aeabi_fsub+0x1ee>
 8000978:	2d00      	cmp	r5, #0
 800097a:	d152      	bne.n	8000a22 <__aeabi_fsub+0x272>
 800097c:	2b00      	cmp	r3, #0
 800097e:	d07c      	beq.n	8000a7a <__aeabi_fsub+0x2ca>
 8000980:	2e00      	cmp	r6, #0
 8000982:	d0bb      	beq.n	80008fc <__aeabi_fsub+0x14c>
 8000984:	1b9a      	subs	r2, r3, r6
 8000986:	0150      	lsls	r0, r2, #5
 8000988:	d400      	bmi.n	800098c <__aeabi_fsub+0x1dc>
 800098a:	e08b      	b.n	8000aa4 <__aeabi_fsub+0x2f4>
 800098c:	2401      	movs	r4, #1
 800098e:	2200      	movs	r2, #0
 8000990:	1af3      	subs	r3, r6, r3
 8000992:	400c      	ands	r4, r1
 8000994:	e7e8      	b.n	8000968 <__aeabi_fsub+0x1b8>
 8000996:	4b56      	ldr	r3, [pc, #344]	@ (8000af0 <__aeabi_fsub+0x340>)
 8000998:	1a2a      	subs	r2, r5, r0
 800099a:	403b      	ands	r3, r7
 800099c:	e7e4      	b.n	8000968 <__aeabi_fsub+0x1b8>
 800099e:	1b9f      	subs	r7, r3, r6
 80009a0:	017a      	lsls	r2, r7, #5
 80009a2:	d446      	bmi.n	8000a32 <__aeabi_fsub+0x282>
 80009a4:	2f00      	cmp	r7, #0
 80009a6:	d1cd      	bne.n	8000944 <__aeabi_fsub+0x194>
 80009a8:	2400      	movs	r4, #0
 80009aa:	2000      	movs	r0, #0
 80009ac:	2300      	movs	r3, #0
 80009ae:	e777      	b.n	80008a0 <__aeabi_fsub+0xf0>
 80009b0:	199b      	adds	r3, r3, r6
 80009b2:	2501      	movs	r5, #1
 80009b4:	3201      	adds	r2, #1
 80009b6:	0159      	lsls	r1, r3, #5
 80009b8:	d400      	bmi.n	80009bc <__aeabi_fsub+0x20c>
 80009ba:	e760      	b.n	800087e <__aeabi_fsub+0xce>
 80009bc:	2101      	movs	r1, #1
 80009be:	484d      	ldr	r0, [pc, #308]	@ (8000af4 <__aeabi_fsub+0x344>)
 80009c0:	4019      	ands	r1, r3
 80009c2:	085b      	lsrs	r3, r3, #1
 80009c4:	4003      	ands	r3, r0
 80009c6:	430b      	orrs	r3, r1
 80009c8:	e7ce      	b.n	8000968 <__aeabi_fsub+0x1b8>
 80009ca:	1e57      	subs	r7, r2, #1
 80009cc:	2a01      	cmp	r2, #1
 80009ce:	d05a      	beq.n	8000a86 <__aeabi_fsub+0x2d6>
 80009d0:	000c      	movs	r4, r1
 80009d2:	2aff      	cmp	r2, #255	@ 0xff
 80009d4:	d033      	beq.n	8000a3e <__aeabi_fsub+0x28e>
 80009d6:	2201      	movs	r2, #1
 80009d8:	2f1b      	cmp	r7, #27
 80009da:	dc07      	bgt.n	80009ec <__aeabi_fsub+0x23c>
 80009dc:	2120      	movs	r1, #32
 80009de:	1bc9      	subs	r1, r1, r7
 80009e0:	001a      	movs	r2, r3
 80009e2:	408b      	lsls	r3, r1
 80009e4:	40fa      	lsrs	r2, r7
 80009e6:	1e59      	subs	r1, r3, #1
 80009e8:	418b      	sbcs	r3, r1
 80009ea:	431a      	orrs	r2, r3
 80009ec:	0005      	movs	r5, r0
 80009ee:	1ab3      	subs	r3, r6, r2
 80009f0:	e743      	b.n	800087a <__aeabi_fsub+0xca>
 80009f2:	2d00      	cmp	r5, #0
 80009f4:	d123      	bne.n	8000a3e <__aeabi_fsub+0x28e>
 80009f6:	22ff      	movs	r2, #255	@ 0xff
 80009f8:	2b00      	cmp	r3, #0
 80009fa:	d09b      	beq.n	8000934 <__aeabi_fsub+0x184>
 80009fc:	1e51      	subs	r1, r2, #1
 80009fe:	2a01      	cmp	r2, #1
 8000a00:	d0d6      	beq.n	80009b0 <__aeabi_fsub+0x200>
 8000a02:	2aff      	cmp	r2, #255	@ 0xff
 8000a04:	d01b      	beq.n	8000a3e <__aeabi_fsub+0x28e>
 8000a06:	291b      	cmp	r1, #27
 8000a08:	dd2c      	ble.n	8000a64 <__aeabi_fsub+0x2b4>
 8000a0a:	0002      	movs	r2, r0
 8000a0c:	1c73      	adds	r3, r6, #1
 8000a0e:	e73a      	b.n	8000886 <__aeabi_fsub+0xd6>
 8000a10:	2aff      	cmp	r2, #255	@ 0xff
 8000a12:	d088      	beq.n	8000926 <__aeabi_fsub+0x176>
 8000a14:	199b      	adds	r3, r3, r6
 8000a16:	085b      	lsrs	r3, r3, #1
 8000a18:	0759      	lsls	r1, r3, #29
 8000a1a:	d000      	beq.n	8000a1e <__aeabi_fsub+0x26e>
 8000a1c:	e733      	b.n	8000886 <__aeabi_fsub+0xd6>
 8000a1e:	08db      	lsrs	r3, r3, #3
 8000a20:	e76e      	b.n	8000900 <__aeabi_fsub+0x150>
 8000a22:	2b00      	cmp	r3, #0
 8000a24:	d110      	bne.n	8000a48 <__aeabi_fsub+0x298>
 8000a26:	2e00      	cmp	r6, #0
 8000a28:	d043      	beq.n	8000ab2 <__aeabi_fsub+0x302>
 8000a2a:	2401      	movs	r4, #1
 8000a2c:	0033      	movs	r3, r6
 8000a2e:	400c      	ands	r4, r1
 8000a30:	e706      	b.n	8000840 <__aeabi_fsub+0x90>
 8000a32:	2401      	movs	r4, #1
 8000a34:	1af7      	subs	r7, r6, r3
 8000a36:	400c      	ands	r4, r1
 8000a38:	e784      	b.n	8000944 <__aeabi_fsub+0x194>
 8000a3a:	2b00      	cmp	r3, #0
 8000a3c:	d104      	bne.n	8000a48 <__aeabi_fsub+0x298>
 8000a3e:	0033      	movs	r3, r6
 8000a40:	e6fe      	b.n	8000840 <__aeabi_fsub+0x90>
 8000a42:	2501      	movs	r5, #1
 8000a44:	1b9b      	subs	r3, r3, r6
 8000a46:	e718      	b.n	800087a <__aeabi_fsub+0xca>
 8000a48:	2e00      	cmp	r6, #0
 8000a4a:	d100      	bne.n	8000a4e <__aeabi_fsub+0x29e>
 8000a4c:	e6f8      	b.n	8000840 <__aeabi_fsub+0x90>
 8000a4e:	2280      	movs	r2, #128	@ 0x80
 8000a50:	03d2      	lsls	r2, r2, #15
 8000a52:	4297      	cmp	r7, r2
 8000a54:	d304      	bcc.n	8000a60 <__aeabi_fsub+0x2b0>
 8000a56:	4594      	cmp	ip, r2
 8000a58:	d202      	bcs.n	8000a60 <__aeabi_fsub+0x2b0>
 8000a5a:	2401      	movs	r4, #1
 8000a5c:	0033      	movs	r3, r6
 8000a5e:	400c      	ands	r4, r1
 8000a60:	08db      	lsrs	r3, r3, #3
 8000a62:	e6f1      	b.n	8000848 <__aeabi_fsub+0x98>
 8000a64:	001a      	movs	r2, r3
 8000a66:	2520      	movs	r5, #32
 8000a68:	40ca      	lsrs	r2, r1
 8000a6a:	1a69      	subs	r1, r5, r1
 8000a6c:	408b      	lsls	r3, r1
 8000a6e:	1e59      	subs	r1, r3, #1
 8000a70:	418b      	sbcs	r3, r1
 8000a72:	4313      	orrs	r3, r2
 8000a74:	0005      	movs	r5, r0
 8000a76:	199b      	adds	r3, r3, r6
 8000a78:	e750      	b.n	800091c <__aeabi_fsub+0x16c>
 8000a7a:	2e00      	cmp	r6, #0
 8000a7c:	d094      	beq.n	80009a8 <__aeabi_fsub+0x1f8>
 8000a7e:	2401      	movs	r4, #1
 8000a80:	0033      	movs	r3, r6
 8000a82:	400c      	ands	r4, r1
 8000a84:	e73a      	b.n	80008fc <__aeabi_fsub+0x14c>
 8000a86:	000c      	movs	r4, r1
 8000a88:	2501      	movs	r5, #1
 8000a8a:	1af3      	subs	r3, r6, r3
 8000a8c:	e6f5      	b.n	800087a <__aeabi_fsub+0xca>
 8000a8e:	0033      	movs	r3, r6
 8000a90:	e734      	b.n	80008fc <__aeabi_fsub+0x14c>
 8000a92:	199b      	adds	r3, r3, r6
 8000a94:	2200      	movs	r2, #0
 8000a96:	0159      	lsls	r1, r3, #5
 8000a98:	d5c1      	bpl.n	8000a1e <__aeabi_fsub+0x26e>
 8000a9a:	4a15      	ldr	r2, [pc, #84]	@ (8000af0 <__aeabi_fsub+0x340>)
 8000a9c:	4013      	ands	r3, r2
 8000a9e:	08db      	lsrs	r3, r3, #3
 8000aa0:	2201      	movs	r2, #1
 8000aa2:	e72d      	b.n	8000900 <__aeabi_fsub+0x150>
 8000aa4:	2a00      	cmp	r2, #0
 8000aa6:	d100      	bne.n	8000aaa <__aeabi_fsub+0x2fa>
 8000aa8:	e77e      	b.n	80009a8 <__aeabi_fsub+0x1f8>
 8000aaa:	0013      	movs	r3, r2
 8000aac:	2200      	movs	r2, #0
 8000aae:	08db      	lsrs	r3, r3, #3
 8000ab0:	e726      	b.n	8000900 <__aeabi_fsub+0x150>
 8000ab2:	2380      	movs	r3, #128	@ 0x80
 8000ab4:	2400      	movs	r4, #0
 8000ab6:	20ff      	movs	r0, #255	@ 0xff
 8000ab8:	03db      	lsls	r3, r3, #15
 8000aba:	e6f1      	b.n	80008a0 <__aeabi_fsub+0xf0>
 8000abc:	2a00      	cmp	r2, #0
 8000abe:	d100      	bne.n	8000ac2 <__aeabi_fsub+0x312>
 8000ac0:	e756      	b.n	8000970 <__aeabi_fsub+0x1c0>
 8000ac2:	1b47      	subs	r7, r0, r5
 8000ac4:	003a      	movs	r2, r7
 8000ac6:	2d00      	cmp	r5, #0
 8000ac8:	d100      	bne.n	8000acc <__aeabi_fsub+0x31c>
 8000aca:	e730      	b.n	800092e <__aeabi_fsub+0x17e>
 8000acc:	2280      	movs	r2, #128	@ 0x80
 8000ace:	04d2      	lsls	r2, r2, #19
 8000ad0:	000c      	movs	r4, r1
 8000ad2:	4313      	orrs	r3, r2
 8000ad4:	e77f      	b.n	80009d6 <__aeabi_fsub+0x226>
 8000ad6:	2a00      	cmp	r2, #0
 8000ad8:	d100      	bne.n	8000adc <__aeabi_fsub+0x32c>
 8000ada:	e701      	b.n	80008e0 <__aeabi_fsub+0x130>
 8000adc:	1b41      	subs	r1, r0, r5
 8000ade:	2d00      	cmp	r5, #0
 8000ae0:	d101      	bne.n	8000ae6 <__aeabi_fsub+0x336>
 8000ae2:	000a      	movs	r2, r1
 8000ae4:	e788      	b.n	80009f8 <__aeabi_fsub+0x248>
 8000ae6:	2280      	movs	r2, #128	@ 0x80
 8000ae8:	04d2      	lsls	r2, r2, #19
 8000aea:	4313      	orrs	r3, r2
 8000aec:	e78b      	b.n	8000a06 <__aeabi_fsub+0x256>
 8000aee:	46c0      	nop			@ (mov r8, r8)
 8000af0:	fbffffff 	.word	0xfbffffff
 8000af4:	7dffffff 	.word	0x7dffffff

08000af8 <__aeabi_f2iz>:
 8000af8:	0241      	lsls	r1, r0, #9
 8000afa:	0042      	lsls	r2, r0, #1
 8000afc:	0fc3      	lsrs	r3, r0, #31
 8000afe:	0a49      	lsrs	r1, r1, #9
 8000b00:	2000      	movs	r0, #0
 8000b02:	0e12      	lsrs	r2, r2, #24
 8000b04:	2a7e      	cmp	r2, #126	@ 0x7e
 8000b06:	dd03      	ble.n	8000b10 <__aeabi_f2iz+0x18>
 8000b08:	2a9d      	cmp	r2, #157	@ 0x9d
 8000b0a:	dd02      	ble.n	8000b12 <__aeabi_f2iz+0x1a>
 8000b0c:	4a09      	ldr	r2, [pc, #36]	@ (8000b34 <__aeabi_f2iz+0x3c>)
 8000b0e:	1898      	adds	r0, r3, r2
 8000b10:	4770      	bx	lr
 8000b12:	2080      	movs	r0, #128	@ 0x80
 8000b14:	0400      	lsls	r0, r0, #16
 8000b16:	4301      	orrs	r1, r0
 8000b18:	2a95      	cmp	r2, #149	@ 0x95
 8000b1a:	dc07      	bgt.n	8000b2c <__aeabi_f2iz+0x34>
 8000b1c:	2096      	movs	r0, #150	@ 0x96
 8000b1e:	1a82      	subs	r2, r0, r2
 8000b20:	40d1      	lsrs	r1, r2
 8000b22:	4248      	negs	r0, r1
 8000b24:	2b00      	cmp	r3, #0
 8000b26:	d1f3      	bne.n	8000b10 <__aeabi_f2iz+0x18>
 8000b28:	0008      	movs	r0, r1
 8000b2a:	e7f1      	b.n	8000b10 <__aeabi_f2iz+0x18>
 8000b2c:	3a96      	subs	r2, #150	@ 0x96
 8000b2e:	4091      	lsls	r1, r2
 8000b30:	e7f7      	b.n	8000b22 <__aeabi_f2iz+0x2a>
 8000b32:	46c0      	nop			@ (mov r8, r8)
 8000b34:	7fffffff 	.word	0x7fffffff

08000b38 <__aeabi_ui2f>:
 8000b38:	b570      	push	{r4, r5, r6, lr}
 8000b3a:	1e04      	subs	r4, r0, #0
 8000b3c:	d00e      	beq.n	8000b5c <__aeabi_ui2f+0x24>
 8000b3e:	f001 ffc5 	bl	8002acc <__clzsi2>
 8000b42:	239e      	movs	r3, #158	@ 0x9e
 8000b44:	0001      	movs	r1, r0
 8000b46:	1a1b      	subs	r3, r3, r0
 8000b48:	2b96      	cmp	r3, #150	@ 0x96
 8000b4a:	dc0c      	bgt.n	8000b66 <__aeabi_ui2f+0x2e>
 8000b4c:	2808      	cmp	r0, #8
 8000b4e:	d02f      	beq.n	8000bb0 <__aeabi_ui2f+0x78>
 8000b50:	3908      	subs	r1, #8
 8000b52:	408c      	lsls	r4, r1
 8000b54:	0264      	lsls	r4, r4, #9
 8000b56:	0a64      	lsrs	r4, r4, #9
 8000b58:	b2d8      	uxtb	r0, r3
 8000b5a:	e001      	b.n	8000b60 <__aeabi_ui2f+0x28>
 8000b5c:	2000      	movs	r0, #0
 8000b5e:	2400      	movs	r4, #0
 8000b60:	05c0      	lsls	r0, r0, #23
 8000b62:	4320      	orrs	r0, r4
 8000b64:	bd70      	pop	{r4, r5, r6, pc}
 8000b66:	2b99      	cmp	r3, #153	@ 0x99
 8000b68:	dc16      	bgt.n	8000b98 <__aeabi_ui2f+0x60>
 8000b6a:	1f42      	subs	r2, r0, #5
 8000b6c:	2805      	cmp	r0, #5
 8000b6e:	d000      	beq.n	8000b72 <__aeabi_ui2f+0x3a>
 8000b70:	4094      	lsls	r4, r2
 8000b72:	0022      	movs	r2, r4
 8000b74:	4810      	ldr	r0, [pc, #64]	@ (8000bb8 <__aeabi_ui2f+0x80>)
 8000b76:	4002      	ands	r2, r0
 8000b78:	0765      	lsls	r5, r4, #29
 8000b7a:	d009      	beq.n	8000b90 <__aeabi_ui2f+0x58>
 8000b7c:	250f      	movs	r5, #15
 8000b7e:	402c      	ands	r4, r5
 8000b80:	2c04      	cmp	r4, #4
 8000b82:	d005      	beq.n	8000b90 <__aeabi_ui2f+0x58>
 8000b84:	3204      	adds	r2, #4
 8000b86:	0154      	lsls	r4, r2, #5
 8000b88:	d502      	bpl.n	8000b90 <__aeabi_ui2f+0x58>
 8000b8a:	239f      	movs	r3, #159	@ 0x9f
 8000b8c:	4002      	ands	r2, r0
 8000b8e:	1a5b      	subs	r3, r3, r1
 8000b90:	0192      	lsls	r2, r2, #6
 8000b92:	0a54      	lsrs	r4, r2, #9
 8000b94:	b2d8      	uxtb	r0, r3
 8000b96:	e7e3      	b.n	8000b60 <__aeabi_ui2f+0x28>
 8000b98:	0002      	movs	r2, r0
 8000b9a:	0020      	movs	r0, r4
 8000b9c:	321b      	adds	r2, #27
 8000b9e:	4090      	lsls	r0, r2
 8000ba0:	0002      	movs	r2, r0
 8000ba2:	1e50      	subs	r0, r2, #1
 8000ba4:	4182      	sbcs	r2, r0
 8000ba6:	2005      	movs	r0, #5
 8000ba8:	1a40      	subs	r0, r0, r1
 8000baa:	40c4      	lsrs	r4, r0
 8000bac:	4314      	orrs	r4, r2
 8000bae:	e7e0      	b.n	8000b72 <__aeabi_ui2f+0x3a>
 8000bb0:	0264      	lsls	r4, r4, #9
 8000bb2:	2096      	movs	r0, #150	@ 0x96
 8000bb4:	0a64      	lsrs	r4, r4, #9
 8000bb6:	e7d3      	b.n	8000b60 <__aeabi_ui2f+0x28>
 8000bb8:	fbffffff 	.word	0xfbffffff

08000bbc <__aeabi_dadd>:
 8000bbc:	b5f0      	push	{r4, r5, r6, r7, lr}
 8000bbe:	4657      	mov	r7, sl
 8000bc0:	464e      	mov	r6, r9
 8000bc2:	4645      	mov	r5, r8
 8000bc4:	46de      	mov	lr, fp
 8000bc6:	b5e0      	push	{r5, r6, r7, lr}
 8000bc8:	b083      	sub	sp, #12
 8000bca:	9000      	str	r0, [sp, #0]
 8000bcc:	9101      	str	r1, [sp, #4]
 8000bce:	030c      	lsls	r4, r1, #12
 8000bd0:	004f      	lsls	r7, r1, #1
 8000bd2:	0fce      	lsrs	r6, r1, #31
 8000bd4:	0a61      	lsrs	r1, r4, #9
 8000bd6:	9c00      	ldr	r4, [sp, #0]
 8000bd8:	031d      	lsls	r5, r3, #12
 8000bda:	0f64      	lsrs	r4, r4, #29
 8000bdc:	430c      	orrs	r4, r1
 8000bde:	9900      	ldr	r1, [sp, #0]
 8000be0:	9200      	str	r2, [sp, #0]
 8000be2:	9301      	str	r3, [sp, #4]
 8000be4:	00c8      	lsls	r0, r1, #3
 8000be6:	0059      	lsls	r1, r3, #1
 8000be8:	0d4b      	lsrs	r3, r1, #21
 8000bea:	4699      	mov	r9, r3
 8000bec:	9a00      	ldr	r2, [sp, #0]
 8000bee:	9b01      	ldr	r3, [sp, #4]
 8000bf0:	0a6d      	lsrs	r5, r5, #9
 8000bf2:	0fd9      	lsrs	r1, r3, #31
 8000bf4:	0f53      	lsrs	r3, r2, #29
 8000bf6:	432b      	orrs	r3, r5
 8000bf8:	469a      	mov	sl, r3
 8000bfa:	9b00      	ldr	r3, [sp, #0]
 8000bfc:	0d7f      	lsrs	r7, r7, #21
 8000bfe:	00da      	lsls	r2, r3, #3
 8000c00:	4694      	mov	ip, r2
 8000c02:	464a      	mov	r2, r9
 8000c04:	46b0      	mov	r8, r6
 8000c06:	1aba      	subs	r2, r7, r2
 8000c08:	428e      	cmp	r6, r1
 8000c0a:	d100      	bne.n	8000c0e <__aeabi_dadd+0x52>
 8000c0c:	e0b0      	b.n	8000d70 <__aeabi_dadd+0x1b4>
 8000c0e:	2a00      	cmp	r2, #0
 8000c10:	dc00      	bgt.n	8000c14 <__aeabi_dadd+0x58>
 8000c12:	e078      	b.n	8000d06 <__aeabi_dadd+0x14a>
 8000c14:	4649      	mov	r1, r9
 8000c16:	2900      	cmp	r1, #0
 8000c18:	d100      	bne.n	8000c1c <__aeabi_dadd+0x60>
 8000c1a:	e0e9      	b.n	8000df0 <__aeabi_dadd+0x234>
 8000c1c:	49c9      	ldr	r1, [pc, #804]	@ (8000f44 <__aeabi_dadd+0x388>)
 8000c1e:	428f      	cmp	r7, r1
 8000c20:	d100      	bne.n	8000c24 <__aeabi_dadd+0x68>
 8000c22:	e195      	b.n	8000f50 <__aeabi_dadd+0x394>
 8000c24:	2501      	movs	r5, #1
 8000c26:	2a38      	cmp	r2, #56	@ 0x38
 8000c28:	dc16      	bgt.n	8000c58 <__aeabi_dadd+0x9c>
 8000c2a:	2180      	movs	r1, #128	@ 0x80
 8000c2c:	4653      	mov	r3, sl
 8000c2e:	0409      	lsls	r1, r1, #16
 8000c30:	430b      	orrs	r3, r1
 8000c32:	469a      	mov	sl, r3
 8000c34:	2a1f      	cmp	r2, #31
 8000c36:	dd00      	ble.n	8000c3a <__aeabi_dadd+0x7e>
 8000c38:	e1e7      	b.n	800100a <__aeabi_dadd+0x44e>
 8000c3a:	2120      	movs	r1, #32
 8000c3c:	4655      	mov	r5, sl
 8000c3e:	1a8b      	subs	r3, r1, r2
 8000c40:	4661      	mov	r1, ip
 8000c42:	409d      	lsls	r5, r3
 8000c44:	40d1      	lsrs	r1, r2
 8000c46:	430d      	orrs	r5, r1
 8000c48:	4661      	mov	r1, ip
 8000c4a:	4099      	lsls	r1, r3
 8000c4c:	1e4b      	subs	r3, r1, #1
 8000c4e:	4199      	sbcs	r1, r3
 8000c50:	4653      	mov	r3, sl
 8000c52:	40d3      	lsrs	r3, r2
 8000c54:	430d      	orrs	r5, r1
 8000c56:	1ae4      	subs	r4, r4, r3
 8000c58:	1b45      	subs	r5, r0, r5
 8000c5a:	42a8      	cmp	r0, r5
 8000c5c:	4180      	sbcs	r0, r0
 8000c5e:	4240      	negs	r0, r0
 8000c60:	1a24      	subs	r4, r4, r0
 8000c62:	0223      	lsls	r3, r4, #8
 8000c64:	d400      	bmi.n	8000c68 <__aeabi_dadd+0xac>
 8000c66:	e10f      	b.n	8000e88 <__aeabi_dadd+0x2cc>
 8000c68:	0264      	lsls	r4, r4, #9
 8000c6a:	0a64      	lsrs	r4, r4, #9
 8000c6c:	2c00      	cmp	r4, #0
 8000c6e:	d100      	bne.n	8000c72 <__aeabi_dadd+0xb6>
 8000c70:	e139      	b.n	8000ee6 <__aeabi_dadd+0x32a>
 8000c72:	0020      	movs	r0, r4
 8000c74:	f001 ff2a 	bl	8002acc <__clzsi2>
 8000c78:	0003      	movs	r3, r0
 8000c7a:	3b08      	subs	r3, #8
 8000c7c:	2120      	movs	r1, #32
 8000c7e:	0028      	movs	r0, r5
 8000c80:	1aca      	subs	r2, r1, r3
 8000c82:	40d0      	lsrs	r0, r2
 8000c84:	409c      	lsls	r4, r3
 8000c86:	0002      	movs	r2, r0
 8000c88:	409d      	lsls	r5, r3
 8000c8a:	4322      	orrs	r2, r4
 8000c8c:	429f      	cmp	r7, r3
 8000c8e:	dd00      	ble.n	8000c92 <__aeabi_dadd+0xd6>
 8000c90:	e173      	b.n	8000f7a <__aeabi_dadd+0x3be>
 8000c92:	1bd8      	subs	r0, r3, r7
 8000c94:	3001      	adds	r0, #1
 8000c96:	1a09      	subs	r1, r1, r0
 8000c98:	002c      	movs	r4, r5
 8000c9a:	408d      	lsls	r5, r1
 8000c9c:	40c4      	lsrs	r4, r0
 8000c9e:	1e6b      	subs	r3, r5, #1
 8000ca0:	419d      	sbcs	r5, r3
 8000ca2:	0013      	movs	r3, r2
 8000ca4:	40c2      	lsrs	r2, r0
 8000ca6:	408b      	lsls	r3, r1
 8000ca8:	4325      	orrs	r5, r4
 8000caa:	2700      	movs	r7, #0
 8000cac:	0014      	movs	r4, r2
 8000cae:	431d      	orrs	r5, r3
 8000cb0:	076b      	lsls	r3, r5, #29
 8000cb2:	d009      	beq.n	8000cc8 <__aeabi_dadd+0x10c>
 8000cb4:	230f      	movs	r3, #15
 8000cb6:	402b      	ands	r3, r5
 8000cb8:	2b04      	cmp	r3, #4
 8000cba:	d005      	beq.n	8000cc8 <__aeabi_dadd+0x10c>
 8000cbc:	1d2b      	adds	r3, r5, #4
 8000cbe:	42ab      	cmp	r3, r5
 8000cc0:	41ad      	sbcs	r5, r5
 8000cc2:	426d      	negs	r5, r5
 8000cc4:	1964      	adds	r4, r4, r5
 8000cc6:	001d      	movs	r5, r3
 8000cc8:	0223      	lsls	r3, r4, #8
 8000cca:	d400      	bmi.n	8000cce <__aeabi_dadd+0x112>
 8000ccc:	e12d      	b.n	8000f2a <__aeabi_dadd+0x36e>
 8000cce:	4a9d      	ldr	r2, [pc, #628]	@ (8000f44 <__aeabi_dadd+0x388>)
 8000cd0:	3701      	adds	r7, #1
 8000cd2:	4297      	cmp	r7, r2
 8000cd4:	d100      	bne.n	8000cd8 <__aeabi_dadd+0x11c>
 8000cd6:	e0d3      	b.n	8000e80 <__aeabi_dadd+0x2c4>
 8000cd8:	4646      	mov	r6, r8
 8000cda:	499b      	ldr	r1, [pc, #620]	@ (8000f48 <__aeabi_dadd+0x38c>)
 8000cdc:	08ed      	lsrs	r5, r5, #3
 8000cde:	4021      	ands	r1, r4
 8000ce0:	074a      	lsls	r2, r1, #29
 8000ce2:	432a      	orrs	r2, r5
 8000ce4:	057c      	lsls	r4, r7, #21
 8000ce6:	024d      	lsls	r5, r1, #9
 8000ce8:	0b2d      	lsrs	r5, r5, #12
 8000cea:	0d64      	lsrs	r4, r4, #21
 8000cec:	0524      	lsls	r4, r4, #20
 8000cee:	432c      	orrs	r4, r5
 8000cf0:	07f6      	lsls	r6, r6, #31
 8000cf2:	4334      	orrs	r4, r6
 8000cf4:	0010      	movs	r0, r2
 8000cf6:	0021      	movs	r1, r4
 8000cf8:	b003      	add	sp, #12
 8000cfa:	bcf0      	pop	{r4, r5, r6, r7}
 8000cfc:	46bb      	mov	fp, r7
 8000cfe:	46b2      	mov	sl, r6
 8000d00:	46a9      	mov	r9, r5
 8000d02:	46a0      	mov	r8, r4
 8000d04:	bdf0      	pop	{r4, r5, r6, r7, pc}
 8000d06:	2a00      	cmp	r2, #0
 8000d08:	d100      	bne.n	8000d0c <__aeabi_dadd+0x150>
 8000d0a:	e084      	b.n	8000e16 <__aeabi_dadd+0x25a>
 8000d0c:	464a      	mov	r2, r9
 8000d0e:	1bd2      	subs	r2, r2, r7
 8000d10:	2f00      	cmp	r7, #0
 8000d12:	d000      	beq.n	8000d16 <__aeabi_dadd+0x15a>
 8000d14:	e16d      	b.n	8000ff2 <__aeabi_dadd+0x436>
 8000d16:	0025      	movs	r5, r4
 8000d18:	4305      	orrs	r5, r0
 8000d1a:	d100      	bne.n	8000d1e <__aeabi_dadd+0x162>
 8000d1c:	e127      	b.n	8000f6e <__aeabi_dadd+0x3b2>
 8000d1e:	1e56      	subs	r6, r2, #1
 8000d20:	2a01      	cmp	r2, #1
 8000d22:	d100      	bne.n	8000d26 <__aeabi_dadd+0x16a>
 8000d24:	e23b      	b.n	800119e <__aeabi_dadd+0x5e2>
 8000d26:	4d87      	ldr	r5, [pc, #540]	@ (8000f44 <__aeabi_dadd+0x388>)
 8000d28:	42aa      	cmp	r2, r5
 8000d2a:	d100      	bne.n	8000d2e <__aeabi_dadd+0x172>
 8000d2c:	e26a      	b.n	8001204 <__aeabi_dadd+0x648>
 8000d2e:	2501      	movs	r5, #1
 8000d30:	2e38      	cmp	r6, #56	@ 0x38
 8000d32:	dc12      	bgt.n	8000d5a <__aeabi_dadd+0x19e>
 8000d34:	0032      	movs	r2, r6
 8000d36:	2a1f      	cmp	r2, #31
 8000d38:	dd00      	ble.n	8000d3c <__aeabi_dadd+0x180>
 8000d3a:	e1f8      	b.n	800112e <__aeabi_dadd+0x572>
 8000d3c:	2620      	movs	r6, #32
 8000d3e:	0025      	movs	r5, r4
 8000d40:	1ab6      	subs	r6, r6, r2
 8000d42:	0007      	movs	r7, r0
 8000d44:	4653      	mov	r3, sl
 8000d46:	40b0      	lsls	r0, r6
 8000d48:	40d4      	lsrs	r4, r2
 8000d4a:	40b5      	lsls	r5, r6
 8000d4c:	40d7      	lsrs	r7, r2
 8000d4e:	1e46      	subs	r6, r0, #1
 8000d50:	41b0      	sbcs	r0, r6
 8000d52:	1b1b      	subs	r3, r3, r4
 8000d54:	469a      	mov	sl, r3
 8000d56:	433d      	orrs	r5, r7
 8000d58:	4305      	orrs	r5, r0
 8000d5a:	4662      	mov	r2, ip
 8000d5c:	1b55      	subs	r5, r2, r5
 8000d5e:	45ac      	cmp	ip, r5
 8000d60:	4192      	sbcs	r2, r2
 8000d62:	4653      	mov	r3, sl
 8000d64:	4252      	negs	r2, r2
 8000d66:	000e      	movs	r6, r1
 8000d68:	464f      	mov	r7, r9
 8000d6a:	4688      	mov	r8, r1
 8000d6c:	1a9c      	subs	r4, r3, r2
 8000d6e:	e778      	b.n	8000c62 <__aeabi_dadd+0xa6>
 8000d70:	2a00      	cmp	r2, #0
 8000d72:	dc00      	bgt.n	8000d76 <__aeabi_dadd+0x1ba>
 8000d74:	e08e      	b.n	8000e94 <__aeabi_dadd+0x2d8>
 8000d76:	4649      	mov	r1, r9
 8000d78:	2900      	cmp	r1, #0
 8000d7a:	d175      	bne.n	8000e68 <__aeabi_dadd+0x2ac>
 8000d7c:	4661      	mov	r1, ip
 8000d7e:	4653      	mov	r3, sl
 8000d80:	4319      	orrs	r1, r3
 8000d82:	d100      	bne.n	8000d86 <__aeabi_dadd+0x1ca>
 8000d84:	e0f6      	b.n	8000f74 <__aeabi_dadd+0x3b8>
 8000d86:	1e51      	subs	r1, r2, #1
 8000d88:	2a01      	cmp	r2, #1
 8000d8a:	d100      	bne.n	8000d8e <__aeabi_dadd+0x1d2>
 8000d8c:	e191      	b.n	80010b2 <__aeabi_dadd+0x4f6>
 8000d8e:	4d6d      	ldr	r5, [pc, #436]	@ (8000f44 <__aeabi_dadd+0x388>)
 8000d90:	42aa      	cmp	r2, r5
 8000d92:	d100      	bne.n	8000d96 <__aeabi_dadd+0x1da>
 8000d94:	e0dc      	b.n	8000f50 <__aeabi_dadd+0x394>
 8000d96:	2501      	movs	r5, #1
 8000d98:	2938      	cmp	r1, #56	@ 0x38
 8000d9a:	dc14      	bgt.n	8000dc6 <__aeabi_dadd+0x20a>
 8000d9c:	000a      	movs	r2, r1
 8000d9e:	2a1f      	cmp	r2, #31
 8000da0:	dd00      	ble.n	8000da4 <__aeabi_dadd+0x1e8>
 8000da2:	e1a2      	b.n	80010ea <__aeabi_dadd+0x52e>
 8000da4:	2120      	movs	r1, #32
 8000da6:	4653      	mov	r3, sl
 8000da8:	1a89      	subs	r1, r1, r2
 8000daa:	408b      	lsls	r3, r1
 8000dac:	001d      	movs	r5, r3
 8000dae:	4663      	mov	r3, ip
 8000db0:	40d3      	lsrs	r3, r2
 8000db2:	431d      	orrs	r5, r3
 8000db4:	4663      	mov	r3, ip
 8000db6:	408b      	lsls	r3, r1
 8000db8:	0019      	movs	r1, r3
 8000dba:	1e4b      	subs	r3, r1, #1
 8000dbc:	4199      	sbcs	r1, r3
 8000dbe:	4653      	mov	r3, sl
 8000dc0:	40d3      	lsrs	r3, r2
 8000dc2:	430d      	orrs	r5, r1
 8000dc4:	18e4      	adds	r4, r4, r3
 8000dc6:	182d      	adds	r5, r5, r0
 8000dc8:	4285      	cmp	r5, r0
 8000dca:	4180      	sbcs	r0, r0
 8000dcc:	4240      	negs	r0, r0
 8000dce:	1824      	adds	r4, r4, r0
 8000dd0:	0223      	lsls	r3, r4, #8
 8000dd2:	d559      	bpl.n	8000e88 <__aeabi_dadd+0x2cc>
 8000dd4:	4b5b      	ldr	r3, [pc, #364]	@ (8000f44 <__aeabi_dadd+0x388>)
 8000dd6:	3701      	adds	r7, #1
 8000dd8:	429f      	cmp	r7, r3
 8000dda:	d051      	beq.n	8000e80 <__aeabi_dadd+0x2c4>
 8000ddc:	2101      	movs	r1, #1
 8000dde:	4b5a      	ldr	r3, [pc, #360]	@ (8000f48 <__aeabi_dadd+0x38c>)
 8000de0:	086a      	lsrs	r2, r5, #1
 8000de2:	401c      	ands	r4, r3
 8000de4:	4029      	ands	r1, r5
 8000de6:	430a      	orrs	r2, r1
 8000de8:	07e5      	lsls	r5, r4, #31
 8000dea:	4315      	orrs	r5, r2
 8000dec:	0864      	lsrs	r4, r4, #1
 8000dee:	e75f      	b.n	8000cb0 <__aeabi_dadd+0xf4>
 8000df0:	4661      	mov	r1, ip
 8000df2:	4653      	mov	r3, sl
 8000df4:	4319      	orrs	r1, r3
 8000df6:	d100      	bne.n	8000dfa <__aeabi_dadd+0x23e>
 8000df8:	e0bc      	b.n	8000f74 <__aeabi_dadd+0x3b8>
 8000dfa:	1e51      	subs	r1, r2, #1
 8000dfc:	2a01      	cmp	r2, #1
 8000dfe:	d100      	bne.n	8000e02 <__aeabi_dadd+0x246>
 8000e00:	e164      	b.n	80010cc <__aeabi_dadd+0x510>
 8000e02:	4d50      	ldr	r5, [pc, #320]	@ (8000f44 <__aeabi_dadd+0x388>)
 8000e04:	42aa      	cmp	r2, r5
 8000e06:	d100      	bne.n	8000e0a <__aeabi_dadd+0x24e>
 8000e08:	e16a      	b.n	80010e0 <__aeabi_dadd+0x524>
 8000e0a:	2501      	movs	r5, #1
 8000e0c:	2938      	cmp	r1, #56	@ 0x38
 8000e0e:	dd00      	ble.n	8000e12 <__aeabi_dadd+0x256>
 8000e10:	e722      	b.n	8000c58 <__aeabi_dadd+0x9c>
 8000e12:	000a      	movs	r2, r1
 8000e14:	e70e      	b.n	8000c34 <__aeabi_dadd+0x78>
 8000e16:	4a4d      	ldr	r2, [pc, #308]	@ (8000f4c <__aeabi_dadd+0x390>)
 8000e18:	1c7d      	adds	r5, r7, #1
 8000e1a:	4215      	tst	r5, r2
 8000e1c:	d000      	beq.n	8000e20 <__aeabi_dadd+0x264>
 8000e1e:	e0d0      	b.n	8000fc2 <__aeabi_dadd+0x406>
 8000e20:	0025      	movs	r5, r4
 8000e22:	4662      	mov	r2, ip
 8000e24:	4653      	mov	r3, sl
 8000e26:	4305      	orrs	r5, r0
 8000e28:	431a      	orrs	r2, r3
 8000e2a:	2f00      	cmp	r7, #0
 8000e2c:	d000      	beq.n	8000e30 <__aeabi_dadd+0x274>
 8000e2e:	e137      	b.n	80010a0 <__aeabi_dadd+0x4e4>
 8000e30:	2d00      	cmp	r5, #0
 8000e32:	d100      	bne.n	8000e36 <__aeabi_dadd+0x27a>
 8000e34:	e1a8      	b.n	8001188 <__aeabi_dadd+0x5cc>
 8000e36:	2a00      	cmp	r2, #0
 8000e38:	d100      	bne.n	8000e3c <__aeabi_dadd+0x280>
 8000e3a:	e16a      	b.n	8001112 <__aeabi_dadd+0x556>
 8000e3c:	4663      	mov	r3, ip
 8000e3e:	1ac5      	subs	r5, r0, r3
 8000e40:	4653      	mov	r3, sl
 8000e42:	1ae2      	subs	r2, r4, r3
 8000e44:	42a8      	cmp	r0, r5
 8000e46:	419b      	sbcs	r3, r3
 8000e48:	425b      	negs	r3, r3
 8000e4a:	1ad3      	subs	r3, r2, r3
 8000e4c:	021a      	lsls	r2, r3, #8
 8000e4e:	d400      	bmi.n	8000e52 <__aeabi_dadd+0x296>
 8000e50:	e203      	b.n	800125a <__aeabi_dadd+0x69e>
 8000e52:	4663      	mov	r3, ip
 8000e54:	1a1d      	subs	r5, r3, r0
 8000e56:	45ac      	cmp	ip, r5
 8000e58:	4192      	sbcs	r2, r2
 8000e5a:	4653      	mov	r3, sl
 8000e5c:	4252      	negs	r2, r2
 8000e5e:	1b1c      	subs	r4, r3, r4
 8000e60:	000e      	movs	r6, r1
 8000e62:	4688      	mov	r8, r1
 8000e64:	1aa4      	subs	r4, r4, r2
 8000e66:	e723      	b.n	8000cb0 <__aeabi_dadd+0xf4>
 8000e68:	4936      	ldr	r1, [pc, #216]	@ (8000f44 <__aeabi_dadd+0x388>)
 8000e6a:	428f      	cmp	r7, r1
 8000e6c:	d070      	beq.n	8000f50 <__aeabi_dadd+0x394>
 8000e6e:	2501      	movs	r5, #1
 8000e70:	2a38      	cmp	r2, #56	@ 0x38
 8000e72:	dca8      	bgt.n	8000dc6 <__aeabi_dadd+0x20a>
 8000e74:	2180      	movs	r1, #128	@ 0x80
 8000e76:	4653      	mov	r3, sl
 8000e78:	0409      	lsls	r1, r1, #16
 8000e7a:	430b      	orrs	r3, r1
 8000e7c:	469a      	mov	sl, r3
 8000e7e:	e78e      	b.n	8000d9e <__aeabi_dadd+0x1e2>
 8000e80:	003c      	movs	r4, r7
 8000e82:	2500      	movs	r5, #0
 8000e84:	2200      	movs	r2, #0
 8000e86:	e731      	b.n	8000cec <__aeabi_dadd+0x130>
 8000e88:	2307      	movs	r3, #7
 8000e8a:	402b      	ands	r3, r5
 8000e8c:	2b00      	cmp	r3, #0
 8000e8e:	d000      	beq.n	8000e92 <__aeabi_dadd+0x2d6>
 8000e90:	e710      	b.n	8000cb4 <__aeabi_dadd+0xf8>
 8000e92:	e093      	b.n	8000fbc <__aeabi_dadd+0x400>
 8000e94:	2a00      	cmp	r2, #0
 8000e96:	d074      	beq.n	8000f82 <__aeabi_dadd+0x3c6>
 8000e98:	464a      	mov	r2, r9
 8000e9a:	1bd2      	subs	r2, r2, r7
 8000e9c:	2f00      	cmp	r7, #0
 8000e9e:	d100      	bne.n	8000ea2 <__aeabi_dadd+0x2e6>
 8000ea0:	e0c7      	b.n	8001032 <__aeabi_dadd+0x476>
 8000ea2:	4928      	ldr	r1, [pc, #160]	@ (8000f44 <__aeabi_dadd+0x388>)
 8000ea4:	4589      	cmp	r9, r1
 8000ea6:	d100      	bne.n	8000eaa <__aeabi_dadd+0x2ee>
 8000ea8:	e185      	b.n	80011b6 <__aeabi_dadd+0x5fa>
 8000eaa:	2501      	movs	r5, #1
 8000eac:	2a38      	cmp	r2, #56	@ 0x38
 8000eae:	dc12      	bgt.n	8000ed6 <__aeabi_dadd+0x31a>
 8000eb0:	2180      	movs	r1, #128	@ 0x80
 8000eb2:	0409      	lsls	r1, r1, #16
 8000eb4:	430c      	orrs	r4, r1
 8000eb6:	2a1f      	cmp	r2, #31
 8000eb8:	dd00      	ble.n	8000ebc <__aeabi_dadd+0x300>
 8000eba:	e1ab      	b.n	8001214 <__aeabi_dadd+0x658>
 8000ebc:	2120      	movs	r1, #32
 8000ebe:	0025      	movs	r5, r4
 8000ec0:	1a89      	subs	r1, r1, r2
 8000ec2:	0007      	movs	r7, r0
 8000ec4:	4088      	lsls	r0, r1
 8000ec6:	408d      	lsls	r5, r1
 8000ec8:	40d7      	lsrs	r7, r2
 8000eca:	1e41      	subs	r1, r0, #1
 8000ecc:	4188      	sbcs	r0, r1
 8000ece:	40d4      	lsrs	r4, r2
 8000ed0:	433d      	orrs	r5, r7
 8000ed2:	4305      	orrs	r5, r0
 8000ed4:	44a2      	add	sl, r4
 8000ed6:	4465      	add	r5, ip
 8000ed8:	4565      	cmp	r5, ip
 8000eda:	4192      	sbcs	r2, r2
 8000edc:	4252      	negs	r2, r2
 8000ede:	4452      	add	r2, sl
 8000ee0:	0014      	movs	r4, r2
 8000ee2:	464f      	mov	r7, r9
 8000ee4:	e774      	b.n	8000dd0 <__aeabi_dadd+0x214>
 8000ee6:	0028      	movs	r0, r5
 8000ee8:	f001 fdf0 	bl	8002acc <__clzsi2>
 8000eec:	0003      	movs	r3, r0
 8000eee:	3318      	adds	r3, #24
 8000ef0:	2b1f      	cmp	r3, #31
 8000ef2:	dc00      	bgt.n	8000ef6 <__aeabi_dadd+0x33a>
 8000ef4:	e6c2      	b.n	8000c7c <__aeabi_dadd+0xc0>
 8000ef6:	002a      	movs	r2, r5
 8000ef8:	3808      	subs	r0, #8
 8000efa:	4082      	lsls	r2, r0
 8000efc:	429f      	cmp	r7, r3
 8000efe:	dd00      	ble.n	8000f02 <__aeabi_dadd+0x346>
 8000f00:	e0a9      	b.n	8001056 <__aeabi_dadd+0x49a>
 8000f02:	1bdb      	subs	r3, r3, r7
 8000f04:	1c58      	adds	r0, r3, #1
 8000f06:	281f      	cmp	r0, #31
 8000f08:	dc00      	bgt.n	8000f0c <__aeabi_dadd+0x350>
 8000f0a:	e1ac      	b.n	8001266 <__aeabi_dadd+0x6aa>
 8000f0c:	0015      	movs	r5, r2
 8000f0e:	3b1f      	subs	r3, #31
 8000f10:	40dd      	lsrs	r5, r3
 8000f12:	2820      	cmp	r0, #32
 8000f14:	d005      	beq.n	8000f22 <__aeabi_dadd+0x366>
 8000f16:	2340      	movs	r3, #64	@ 0x40
 8000f18:	1a1b      	subs	r3, r3, r0
 8000f1a:	409a      	lsls	r2, r3
 8000f1c:	1e53      	subs	r3, r2, #1
 8000f1e:	419a      	sbcs	r2, r3
 8000f20:	4315      	orrs	r5, r2
 8000f22:	2307      	movs	r3, #7
 8000f24:	2700      	movs	r7, #0
 8000f26:	402b      	ands	r3, r5
 8000f28:	e7b0      	b.n	8000e8c <__aeabi_dadd+0x2d0>
 8000f2a:	08ed      	lsrs	r5, r5, #3
 8000f2c:	4b05      	ldr	r3, [pc, #20]	@ (8000f44 <__aeabi_dadd+0x388>)
 8000f2e:	0762      	lsls	r2, r4, #29
 8000f30:	432a      	orrs	r2, r5
 8000f32:	08e4      	lsrs	r4, r4, #3
 8000f34:	429f      	cmp	r7, r3
 8000f36:	d00f      	beq.n	8000f58 <__aeabi_dadd+0x39c>
 8000f38:	0324      	lsls	r4, r4, #12
 8000f3a:	0b25      	lsrs	r5, r4, #12
 8000f3c:	057c      	lsls	r4, r7, #21
 8000f3e:	0d64      	lsrs	r4, r4, #21
 8000f40:	e6d4      	b.n	8000cec <__aeabi_dadd+0x130>
 8000f42:	46c0      	nop			@ (mov r8, r8)
 8000f44:	000007ff 	.word	0x000007ff
 8000f48:	ff7fffff 	.word	0xff7fffff
 8000f4c:	000007fe 	.word	0x000007fe
 8000f50:	08c0      	lsrs	r0, r0, #3
 8000f52:	0762      	lsls	r2, r4, #29
 8000f54:	4302      	orrs	r2, r0
 8000f56:	08e4      	lsrs	r4, r4, #3
 8000f58:	0013      	movs	r3, r2
 8000f5a:	4323      	orrs	r3, r4
 8000f5c:	d100      	bne.n	8000f60 <__aeabi_dadd+0x3a4>
 8000f5e:	e186      	b.n	800126e <__aeabi_dadd+0x6b2>
 8000f60:	2580      	movs	r5, #128	@ 0x80
 8000f62:	032d      	lsls	r5, r5, #12
 8000f64:	4325      	orrs	r5, r4
 8000f66:	032d      	lsls	r5, r5, #12
 8000f68:	4cc3      	ldr	r4, [pc, #780]	@ (8001278 <__aeabi_dadd+0x6bc>)
 8000f6a:	0b2d      	lsrs	r5, r5, #12
 8000f6c:	e6be      	b.n	8000cec <__aeabi_dadd+0x130>
 8000f6e:	4660      	mov	r0, ip
 8000f70:	4654      	mov	r4, sl
 8000f72:	000e      	movs	r6, r1
 8000f74:	0017      	movs	r7, r2
 8000f76:	08c5      	lsrs	r5, r0, #3
 8000f78:	e7d8      	b.n	8000f2c <__aeabi_dadd+0x370>
 8000f7a:	4cc0      	ldr	r4, [pc, #768]	@ (800127c <__aeabi_dadd+0x6c0>)
 8000f7c:	1aff      	subs	r7, r7, r3
 8000f7e:	4014      	ands	r4, r2
 8000f80:	e696      	b.n	8000cb0 <__aeabi_dadd+0xf4>
 8000f82:	4abf      	ldr	r2, [pc, #764]	@ (8001280 <__aeabi_dadd+0x6c4>)
 8000f84:	1c79      	adds	r1, r7, #1
 8000f86:	4211      	tst	r1, r2
 8000f88:	d16b      	bne.n	8001062 <__aeabi_dadd+0x4a6>
 8000f8a:	0022      	movs	r2, r4
 8000f8c:	4302      	orrs	r2, r0
 8000f8e:	2f00      	cmp	r7, #0
 8000f90:	d000      	beq.n	8000f94 <__aeabi_dadd+0x3d8>
 8000f92:	e0db      	b.n	800114c <__aeabi_dadd+0x590>
 8000f94:	2a00      	cmp	r2, #0
 8000f96:	d100      	bne.n	8000f9a <__aeabi_dadd+0x3de>
 8000f98:	e12d      	b.n	80011f6 <__aeabi_dadd+0x63a>
 8000f9a:	4662      	mov	r2, ip
 8000f9c:	4653      	mov	r3, sl
 8000f9e:	431a      	orrs	r2, r3
 8000fa0:	d100      	bne.n	8000fa4 <__aeabi_dadd+0x3e8>
 8000fa2:	e0b6      	b.n	8001112 <__aeabi_dadd+0x556>
 8000fa4:	4663      	mov	r3, ip
 8000fa6:	18c5      	adds	r5, r0, r3
 8000fa8:	4285      	cmp	r5, r0
 8000faa:	4180      	sbcs	r0, r0
 8000fac:	4454      	add	r4, sl
 8000fae:	4240      	negs	r0, r0
 8000fb0:	1824      	adds	r4, r4, r0
 8000fb2:	0223      	lsls	r3, r4, #8
 8000fb4:	d502      	bpl.n	8000fbc <__aeabi_dadd+0x400>
 8000fb6:	000f      	movs	r7, r1
 8000fb8:	4bb0      	ldr	r3, [pc, #704]	@ (800127c <__aeabi_dadd+0x6c0>)
 8000fba:	401c      	ands	r4, r3
 8000fbc:	003a      	movs	r2, r7
 8000fbe:	0028      	movs	r0, r5
 8000fc0:	e7d8      	b.n	8000f74 <__aeabi_dadd+0x3b8>
 8000fc2:	4662      	mov	r2, ip
 8000fc4:	1a85      	subs	r5, r0, r2
 8000fc6:	42a8      	cmp	r0, r5
 8000fc8:	4192      	sbcs	r2, r2
 8000fca:	4653      	mov	r3, sl
 8000fcc:	4252      	negs	r2, r2
 8000fce:	4691      	mov	r9, r2
 8000fd0:	1ae3      	subs	r3, r4, r3
 8000fd2:	001a      	movs	r2, r3
 8000fd4:	464b      	mov	r3, r9
 8000fd6:	1ad2      	subs	r2, r2, r3
 8000fd8:	0013      	movs	r3, r2
 8000fda:	4691      	mov	r9, r2
 8000fdc:	021a      	lsls	r2, r3, #8
 8000fde:	d454      	bmi.n	800108a <__aeabi_dadd+0x4ce>
 8000fe0:	464a      	mov	r2, r9
 8000fe2:	464c      	mov	r4, r9
 8000fe4:	432a      	orrs	r2, r5
 8000fe6:	d000      	beq.n	8000fea <__aeabi_dadd+0x42e>
 8000fe8:	e640      	b.n	8000c6c <__aeabi_dadd+0xb0>
 8000fea:	2600      	movs	r6, #0
 8000fec:	2400      	movs	r4, #0
 8000fee:	2500      	movs	r5, #0
 8000ff0:	e67c      	b.n	8000cec <__aeabi_dadd+0x130>
 8000ff2:	4da1      	ldr	r5, [pc, #644]	@ (8001278 <__aeabi_dadd+0x6bc>)
 8000ff4:	45a9      	cmp	r9, r5
 8000ff6:	d100      	bne.n	8000ffa <__aeabi_dadd+0x43e>
 8000ff8:	e090      	b.n	800111c <__aeabi_dadd+0x560>
 8000ffa:	2501      	movs	r5, #1
 8000ffc:	2a38      	cmp	r2, #56	@ 0x38
 8000ffe:	dd00      	ble.n	8001002 <__aeabi_dadd+0x446>
 8001000:	e6ab      	b.n	8000d5a <__aeabi_dadd+0x19e>
 8001002:	2580      	movs	r5, #128	@ 0x80
 8001004:	042d      	lsls	r5, r5, #16
 8001006:	432c      	orrs	r4, r5
 8001008:	e695      	b.n	8000d36 <__aeabi_dadd+0x17a>
 800100a:	0011      	movs	r1, r2
 800100c:	4655      	mov	r5, sl
 800100e:	3920      	subs	r1, #32
 8001010:	40cd      	lsrs	r5, r1
 8001012:	46a9      	mov	r9, r5
 8001014:	2a20      	cmp	r2, #32
 8001016:	d006      	beq.n	8001026 <__aeabi_dadd+0x46a>
 8001018:	2140      	movs	r1, #64	@ 0x40
 800101a:	4653      	mov	r3, sl
 800101c:	1a8a      	subs	r2, r1, r2
 800101e:	4093      	lsls	r3, r2
 8001020:	4662      	mov	r2, ip
 8001022:	431a      	orrs	r2, r3
 8001024:	4694      	mov	ip, r2
 8001026:	4665      	mov	r5, ip
 8001028:	1e6b      	subs	r3, r5, #1
 800102a:	419d      	sbcs	r5, r3
 800102c:	464b      	mov	r3, r9
 800102e:	431d      	orrs	r5, r3
 8001030:	e612      	b.n	8000c58 <__aeabi_dadd+0x9c>
 8001032:	0021      	movs	r1, r4
 8001034:	4301      	orrs	r1, r0
 8001036:	d100      	bne.n	800103a <__aeabi_dadd+0x47e>
 8001038:	e0c4      	b.n	80011c4 <__aeabi_dadd+0x608>
 800103a:	1e51      	subs	r1, r2, #1
 800103c:	2a01      	cmp	r2, #1
 800103e:	d100      	bne.n	8001042 <__aeabi_dadd+0x486>
 8001040:	e0fb      	b.n	800123a <__aeabi_dadd+0x67e>
 8001042:	4d8d      	ldr	r5, [pc, #564]	@ (8001278 <__aeabi_dadd+0x6bc>)
 8001044:	42aa      	cmp	r2, r5
 8001046:	d100      	bne.n	800104a <__aeabi_dadd+0x48e>
 8001048:	e0b5      	b.n	80011b6 <__aeabi_dadd+0x5fa>
 800104a:	2501      	movs	r5, #1
 800104c:	2938      	cmp	r1, #56	@ 0x38
 800104e:	dd00      	ble.n	8001052 <__aeabi_dadd+0x496>
 8001050:	e741      	b.n	8000ed6 <__aeabi_dadd+0x31a>
 8001052:	000a      	movs	r2, r1
 8001054:	e72f      	b.n	8000eb6 <__aeabi_dadd+0x2fa>
 8001056:	4c89      	ldr	r4, [pc, #548]	@ (800127c <__aeabi_dadd+0x6c0>)
 8001058:	1aff      	subs	r7, r7, r3
 800105a:	4014      	ands	r4, r2
 800105c:	0762      	lsls	r2, r4, #29
 800105e:	08e4      	lsrs	r4, r4, #3
 8001060:	e76a      	b.n	8000f38 <__aeabi_dadd+0x37c>
 8001062:	4a85      	ldr	r2, [pc, #532]	@ (8001278 <__aeabi_dadd+0x6bc>)
 8001064:	4291      	cmp	r1, r2
 8001066:	d100      	bne.n	800106a <__aeabi_dadd+0x4ae>
 8001068:	e0e3      	b.n	8001232 <__aeabi_dadd+0x676>
 800106a:	4663      	mov	r3, ip
 800106c:	18c2      	adds	r2, r0, r3
 800106e:	4282      	cmp	r2, r0
 8001070:	4180      	sbcs	r0, r0
 8001072:	0023      	movs	r3, r4
 8001074:	4240      	negs	r0, r0
 8001076:	4453      	add	r3, sl
 8001078:	181b      	adds	r3, r3, r0
 800107a:	07dd      	lsls	r5, r3, #31
 800107c:	085c      	lsrs	r4, r3, #1
 800107e:	2307      	movs	r3, #7
 8001080:	0852      	lsrs	r2, r2, #1
 8001082:	4315      	orrs	r5, r2
 8001084:	000f      	movs	r7, r1
 8001086:	402b      	ands	r3, r5
 8001088:	e700      	b.n	8000e8c <__aeabi_dadd+0x2d0>
 800108a:	4663      	mov	r3, ip
 800108c:	1a1d      	subs	r5, r3, r0
 800108e:	45ac      	cmp	ip, r5
 8001090:	4192      	sbcs	r2, r2
 8001092:	4653      	mov	r3, sl
 8001094:	4252      	negs	r2, r2
 8001096:	1b1c      	subs	r4, r3, r4
 8001098:	000e      	movs	r6, r1
 800109a:	4688      	mov	r8, r1
 800109c:	1aa4      	subs	r4, r4, r2
 800109e:	e5e5      	b.n	8000c6c <__aeabi_dadd+0xb0>
 80010a0:	2d00      	cmp	r5, #0
 80010a2:	d000      	beq.n	80010a6 <__aeabi_dadd+0x4ea>
 80010a4:	e091      	b.n	80011ca <__aeabi_dadd+0x60e>
 80010a6:	2a00      	cmp	r2, #0
 80010a8:	d138      	bne.n	800111c <__aeabi_dadd+0x560>
 80010aa:	2480      	movs	r4, #128	@ 0x80
 80010ac:	2600      	movs	r6, #0
 80010ae:	0324      	lsls	r4, r4, #12
 80010b0:	e756      	b.n	8000f60 <__aeabi_dadd+0x3a4>
 80010b2:	4663      	mov	r3, ip
 80010b4:	18c5      	adds	r5, r0, r3
 80010b6:	4285      	cmp	r5, r0
 80010b8:	4180      	sbcs	r0, r0
 80010ba:	4454      	add	r4, sl
 80010bc:	4240      	negs	r0, r0
 80010be:	1824      	adds	r4, r4, r0
 80010c0:	2701      	movs	r7, #1
 80010c2:	0223      	lsls	r3, r4, #8
 80010c4:	d400      	bmi.n	80010c8 <__aeabi_dadd+0x50c>
 80010c6:	e6df      	b.n	8000e88 <__aeabi_dadd+0x2cc>
 80010c8:	2702      	movs	r7, #2
 80010ca:	e687      	b.n	8000ddc <__aeabi_dadd+0x220>
 80010cc:	4663      	mov	r3, ip
 80010ce:	1ac5      	subs	r5, r0, r3
 80010d0:	42a8      	cmp	r0, r5
 80010d2:	4180      	sbcs	r0, r0
 80010d4:	4653      	mov	r3, sl
 80010d6:	4240      	negs	r0, r0
 80010d8:	1ae4      	subs	r4, r4, r3
 80010da:	2701      	movs	r7, #1
 80010dc:	1a24      	subs	r4, r4, r0
 80010de:	e5c0      	b.n	8000c62 <__aeabi_dadd+0xa6>
 80010e0:	0762      	lsls	r2, r4, #29
 80010e2:	08c0      	lsrs	r0, r0, #3
 80010e4:	4302      	orrs	r2, r0
 80010e6:	08e4      	lsrs	r4, r4, #3
 80010e8:	e736      	b.n	8000f58 <__aeabi_dadd+0x39c>
 80010ea:	0011      	movs	r1, r2
 80010ec:	4653      	mov	r3, sl
 80010ee:	3920      	subs	r1, #32
 80010f0:	40cb      	lsrs	r3, r1
 80010f2:	4699      	mov	r9, r3
 80010f4:	2a20      	cmp	r2, #32
 80010f6:	d006      	beq.n	8001106 <__aeabi_dadd+0x54a>
 80010f8:	2140      	movs	r1, #64	@ 0x40
 80010fa:	4653      	mov	r3, sl
 80010fc:	1a8a      	subs	r2, r1, r2
 80010fe:	4093      	lsls	r3, r2
 8001100:	4662      	mov	r2, ip
 8001102:	431a      	orrs	r2, r3
 8001104:	4694      	mov	ip, r2
 8001106:	4665      	mov	r5, ip
 8001108:	1e6b      	subs	r3, r5, #1
 800110a:	419d      	sbcs	r5, r3
 800110c:	464b      	mov	r3, r9
 800110e:	431d      	orrs	r5, r3
 8001110:	e659      	b.n	8000dc6 <__aeabi_dadd+0x20a>
 8001112:	0762      	lsls	r2, r4, #29
 8001114:	08c0      	lsrs	r0, r0, #3
 8001116:	4302      	orrs	r2, r0
 8001118:	08e4      	lsrs	r4, r4, #3
 800111a:	e70d      	b.n	8000f38 <__aeabi_dadd+0x37c>
 800111c:	4653      	mov	r3, sl
 800111e:	075a      	lsls	r2, r3, #29
 8001120:	4663      	mov	r3, ip
 8001122:	08d8      	lsrs	r0, r3, #3
 8001124:	4653      	mov	r3, sl
 8001126:	000e      	movs	r6, r1
 8001128:	4302      	orrs	r2, r0
 800112a:	08dc      	lsrs	r4, r3, #3
 800112c:	e714      	b.n	8000f58 <__aeabi_dadd+0x39c>
 800112e:	0015      	movs	r5, r2
 8001130:	0026      	movs	r6, r4
 8001132:	3d20      	subs	r5, #32
 8001134:	40ee      	lsrs	r6, r5
 8001136:	2a20      	cmp	r2, #32
 8001138:	d003      	beq.n	8001142 <__aeabi_dadd+0x586>
 800113a:	2540      	movs	r5, #64	@ 0x40
 800113c:	1aaa      	subs	r2, r5, r2
 800113e:	4094      	lsls	r4, r2
 8001140:	4320      	orrs	r0, r4
 8001142:	1e42      	subs	r2, r0, #1
 8001144:	4190      	sbcs	r0, r2
 8001146:	0005      	movs	r5, r0
 8001148:	4335      	orrs	r5, r6
 800114a:	e606      	b.n	8000d5a <__aeabi_dadd+0x19e>
 800114c:	2a00      	cmp	r2, #0
 800114e:	d07c      	beq.n	800124a <__aeabi_dadd+0x68e>
 8001150:	4662      	mov	r2, ip
 8001152:	4653      	mov	r3, sl
 8001154:	08c0      	lsrs	r0, r0, #3
 8001156:	431a      	orrs	r2, r3
 8001158:	d100      	bne.n	800115c <__aeabi_dadd+0x5a0>
 800115a:	e6fa      	b.n	8000f52 <__aeabi_dadd+0x396>
 800115c:	0762      	lsls	r2, r4, #29
 800115e:	4310      	orrs	r0, r2
 8001160:	2280      	movs	r2, #128	@ 0x80
 8001162:	08e4      	lsrs	r4, r4, #3
 8001164:	0312      	lsls	r2, r2, #12
 8001166:	4214      	tst	r4, r2
 8001168:	d008      	beq.n	800117c <__aeabi_dadd+0x5c0>
 800116a:	08d9      	lsrs	r1, r3, #3
 800116c:	4211      	tst	r1, r2
 800116e:	d105      	bne.n	800117c <__aeabi_dadd+0x5c0>
 8001170:	4663      	mov	r3, ip
 8001172:	08d8      	lsrs	r0, r3, #3
 8001174:	4653      	mov	r3, sl
 8001176:	000c      	movs	r4, r1
 8001178:	075b      	lsls	r3, r3, #29
 800117a:	4318      	orrs	r0, r3
 800117c:	0f42      	lsrs	r2, r0, #29
 800117e:	00c0      	lsls	r0, r0, #3
 8001180:	08c0      	lsrs	r0, r0, #3
 8001182:	0752      	lsls	r2, r2, #29
 8001184:	4302      	orrs	r2, r0
 8001186:	e6e7      	b.n	8000f58 <__aeabi_dadd+0x39c>
 8001188:	2a00      	cmp	r2, #0
 800118a:	d100      	bne.n	800118e <__aeabi_dadd+0x5d2>
 800118c:	e72d      	b.n	8000fea <__aeabi_dadd+0x42e>
 800118e:	4663      	mov	r3, ip
 8001190:	08d8      	lsrs	r0, r3, #3
 8001192:	4653      	mov	r3, sl
 8001194:	075a      	lsls	r2, r3, #29
 8001196:	000e      	movs	r6, r1
 8001198:	4302      	orrs	r2, r0
 800119a:	08dc      	lsrs	r4, r3, #3
 800119c:	e6cc      	b.n	8000f38 <__aeabi_dadd+0x37c>
 800119e:	4663      	mov	r3, ip
 80011a0:	1a1d      	subs	r5, r3, r0
 80011a2:	45ac      	cmp	ip, r5
 80011a4:	4192      	sbcs	r2, r2
 80011a6:	4653      	mov	r3, sl
 80011a8:	4252      	negs	r2, r2
 80011aa:	1b1c      	subs	r4, r3, r4
 80011ac:	000e      	movs	r6, r1
 80011ae:	4688      	mov	r8, r1
 80011b0:	1aa4      	subs	r4, r4, r2
 80011b2:	3701      	adds	r7, #1
 80011b4:	e555      	b.n	8000c62 <__aeabi_dadd+0xa6>
 80011b6:	4663      	mov	r3, ip
 80011b8:	08d9      	lsrs	r1, r3, #3
 80011ba:	4653      	mov	r3, sl
 80011bc:	075a      	lsls	r2, r3, #29
 80011be:	430a      	orrs	r2, r1
 80011c0:	08dc      	lsrs	r4, r3, #3
 80011c2:	e6c9      	b.n	8000f58 <__aeabi_dadd+0x39c>
 80011c4:	4660      	mov	r0, ip
 80011c6:	4654      	mov	r4, sl
 80011c8:	e6d4      	b.n	8000f74 <__aeabi_dadd+0x3b8>
 80011ca:	08c0      	lsrs	r0, r0, #3
 80011cc:	2a00      	cmp	r2, #0
 80011ce:	d100      	bne.n	80011d2 <__aeabi_dadd+0x616>
 80011d0:	e6bf      	b.n	8000f52 <__aeabi_dadd+0x396>
 80011d2:	0762      	lsls	r2, r4, #29
 80011d4:	4310      	orrs	r0, r2
 80011d6:	2280      	movs	r2, #128	@ 0x80
 80011d8:	08e4      	lsrs	r4, r4, #3
 80011da:	0312      	lsls	r2, r2, #12
 80011dc:	4214      	tst	r4, r2
 80011de:	d0cd      	beq.n	800117c <__aeabi_dadd+0x5c0>
 80011e0:	08dd      	lsrs	r5, r3, #3
 80011e2:	4215      	tst	r5, r2
 80011e4:	d1ca      	bne.n	800117c <__aeabi_dadd+0x5c0>
 80011e6:	4663      	mov	r3, ip
 80011e8:	08d8      	lsrs	r0, r3, #3
 80011ea:	4653      	mov	r3, sl
 80011ec:	075b      	lsls	r3, r3, #29
 80011ee:	000e      	movs	r6, r1
 80011f0:	002c      	movs	r4, r5
 80011f2:	4318      	orrs	r0, r3
 80011f4:	e7c2      	b.n	800117c <__aeabi_dadd+0x5c0>
 80011f6:	4663      	mov	r3, ip
 80011f8:	08d9      	lsrs	r1, r3, #3
 80011fa:	4653      	mov	r3, sl
 80011fc:	075a      	lsls	r2, r3, #29
 80011fe:	430a      	orrs	r2, r1
 8001200:	08dc      	lsrs	r4, r3, #3
 8001202:	e699      	b.n	8000f38 <__aeabi_dadd+0x37c>
 8001204:	4663      	mov	r3, ip
 8001206:	08d8      	lsrs	r0, r3, #3
 8001208:	4653      	mov	r3, sl
 800120a:	075a      	lsls	r2, r3, #29
 800120c:	000e      	movs	r6, r1
 800120e:	4302      	orrs	r2, r0
 8001210:	08dc      	lsrs	r4, r3, #3
 8001212:	e6a1      	b.n	8000f58 <__aeabi_dadd+0x39c>
 8001214:	0011      	movs	r1, r2
 8001216:	0027      	movs	r7, r4
 8001218:	3920      	subs	r1, #32
 800121a:	40cf      	lsrs	r7, r1
 800121c:	2a20      	cmp	r2, #32
 800121e:	d003      	beq.n	8001228 <__aeabi_dadd+0x66c>
 8001220:	2140      	movs	r1, #64	@ 0x40
 8001222:	1a8a      	subs	r2, r1, r2
 8001224:	4094      	lsls	r4, r2
 8001226:	4320      	orrs	r0, r4
 8001228:	1e42      	subs	r2, r0, #1
 800122a:	4190      	sbcs	r0, r2
 800122c:	0005      	movs	r5, r0
 800122e:	433d      	orrs	r5, r7
 8001230:	e651      	b.n	8000ed6 <__aeabi_dadd+0x31a>
 8001232:	000c      	movs	r4, r1
 8001234:	2500      	movs	r5, #0
 8001236:	2200      	movs	r2, #0
 8001238:	e558      	b.n	8000cec <__aeabi_dadd+0x130>
 800123a:	4460      	add	r0, ip
 800123c:	4560      	cmp	r0, ip
 800123e:	4192      	sbcs	r2, r2
 8001240:	4454      	add	r4, sl
 8001242:	4252      	negs	r2, r2
 8001244:	0005      	movs	r5, r0
 8001246:	18a4      	adds	r4, r4, r2
 8001248:	e73a      	b.n	80010c0 <__aeabi_dadd+0x504>
 800124a:	4653      	mov	r3, sl
 800124c:	075a      	lsls	r2, r3, #29
 800124e:	4663      	mov	r3, ip
 8001250:	08d9      	lsrs	r1, r3, #3
 8001252:	4653      	mov	r3, sl
 8001254:	430a      	orrs	r2, r1
 8001256:	08dc      	lsrs	r4, r3, #3
 8001258:	e67e      	b.n	8000f58 <__aeabi_dadd+0x39c>
 800125a:	001a      	movs	r2, r3
 800125c:	001c      	movs	r4, r3
 800125e:	432a      	orrs	r2, r5
 8001260:	d000      	beq.n	8001264 <__aeabi_dadd+0x6a8>
 8001262:	e6ab      	b.n	8000fbc <__aeabi_dadd+0x400>
 8001264:	e6c1      	b.n	8000fea <__aeabi_dadd+0x42e>
 8001266:	2120      	movs	r1, #32
 8001268:	2500      	movs	r5, #0
 800126a:	1a09      	subs	r1, r1, r0
 800126c:	e519      	b.n	8000ca2 <__aeabi_dadd+0xe6>
 800126e:	2200      	movs	r2, #0
 8001270:	2500      	movs	r5, #0
 8001272:	4c01      	ldr	r4, [pc, #4]	@ (8001278 <__aeabi_dadd+0x6bc>)
 8001274:	e53a      	b.n	8000cec <__aeabi_dadd+0x130>
 8001276:	46c0      	nop			@ (mov r8, r8)
 8001278:	000007ff 	.word	0x000007ff
 800127c:	ff7fffff 	.word	0xff7fffff
 8001280:	000007fe 	.word	0x000007fe

08001284 <__aeabi_ddiv>:
 8001284:	b5f0      	push	{r4, r5, r6, r7, lr}
 8001286:	46de      	mov	lr, fp
 8001288:	4645      	mov	r5, r8
 800128a:	4657      	mov	r7, sl
 800128c:	464e      	mov	r6, r9
 800128e:	b5e0      	push	{r5, r6, r7, lr}
 8001290:	b087      	sub	sp, #28
 8001292:	9200      	str	r2, [sp, #0]
 8001294:	9301      	str	r3, [sp, #4]
 8001296:	030b      	lsls	r3, r1, #12
 8001298:	0b1b      	lsrs	r3, r3, #12
 800129a:	469b      	mov	fp, r3
 800129c:	0fca      	lsrs	r2, r1, #31
 800129e:	004b      	lsls	r3, r1, #1
 80012a0:	0004      	movs	r4, r0
 80012a2:	4680      	mov	r8, r0
 80012a4:	0d5b      	lsrs	r3, r3, #21
 80012a6:	9202      	str	r2, [sp, #8]
 80012a8:	d100      	bne.n	80012ac <__aeabi_ddiv+0x28>
 80012aa:	e16a      	b.n	8001582 <__aeabi_ddiv+0x2fe>
 80012ac:	4ad4      	ldr	r2, [pc, #848]	@ (8001600 <__aeabi_ddiv+0x37c>)
 80012ae:	4293      	cmp	r3, r2
 80012b0:	d100      	bne.n	80012b4 <__aeabi_ddiv+0x30>
 80012b2:	e18c      	b.n	80015ce <__aeabi_ddiv+0x34a>
 80012b4:	4659      	mov	r1, fp
 80012b6:	0f42      	lsrs	r2, r0, #29
 80012b8:	00c9      	lsls	r1, r1, #3
 80012ba:	430a      	orrs	r2, r1
 80012bc:	2180      	movs	r1, #128	@ 0x80
 80012be:	0409      	lsls	r1, r1, #16
 80012c0:	4311      	orrs	r1, r2
 80012c2:	00c2      	lsls	r2, r0, #3
 80012c4:	4690      	mov	r8, r2
 80012c6:	4acf      	ldr	r2, [pc, #828]	@ (8001604 <__aeabi_ddiv+0x380>)
 80012c8:	4689      	mov	r9, r1
 80012ca:	4692      	mov	sl, r2
 80012cc:	449a      	add	sl, r3
 80012ce:	2300      	movs	r3, #0
 80012d0:	2400      	movs	r4, #0
 80012d2:	9303      	str	r3, [sp, #12]
 80012d4:	9e00      	ldr	r6, [sp, #0]
 80012d6:	9f01      	ldr	r7, [sp, #4]
 80012d8:	033b      	lsls	r3, r7, #12
 80012da:	0b1b      	lsrs	r3, r3, #12
 80012dc:	469b      	mov	fp, r3
 80012de:	007b      	lsls	r3, r7, #1
 80012e0:	0030      	movs	r0, r6
 80012e2:	0d5b      	lsrs	r3, r3, #21
 80012e4:	0ffd      	lsrs	r5, r7, #31
 80012e6:	2b00      	cmp	r3, #0
 80012e8:	d100      	bne.n	80012ec <__aeabi_ddiv+0x68>
 80012ea:	e128      	b.n	800153e <__aeabi_ddiv+0x2ba>
 80012ec:	4ac4      	ldr	r2, [pc, #784]	@ (8001600 <__aeabi_ddiv+0x37c>)
 80012ee:	4293      	cmp	r3, r2
 80012f0:	d100      	bne.n	80012f4 <__aeabi_ddiv+0x70>
 80012f2:	e177      	b.n	80015e4 <__aeabi_ddiv+0x360>
 80012f4:	4659      	mov	r1, fp
 80012f6:	0f72      	lsrs	r2, r6, #29
 80012f8:	00c9      	lsls	r1, r1, #3
 80012fa:	430a      	orrs	r2, r1
 80012fc:	2180      	movs	r1, #128	@ 0x80
 80012fe:	0409      	lsls	r1, r1, #16
 8001300:	4311      	orrs	r1, r2
 8001302:	468b      	mov	fp, r1
 8001304:	49bf      	ldr	r1, [pc, #764]	@ (8001604 <__aeabi_ddiv+0x380>)
 8001306:	00f2      	lsls	r2, r6, #3
 8001308:	468c      	mov	ip, r1
 800130a:	4651      	mov	r1, sl
 800130c:	4463      	add	r3, ip
 800130e:	1acb      	subs	r3, r1, r3
 8001310:	469a      	mov	sl, r3
 8001312:	2300      	movs	r3, #0
 8001314:	9e02      	ldr	r6, [sp, #8]
 8001316:	406e      	eors	r6, r5
 8001318:	2c0f      	cmp	r4, #15
 800131a:	d827      	bhi.n	800136c <__aeabi_ddiv+0xe8>
 800131c:	49ba      	ldr	r1, [pc, #744]	@ (8001608 <__aeabi_ddiv+0x384>)
 800131e:	00a4      	lsls	r4, r4, #2
 8001320:	5909      	ldr	r1, [r1, r4]
 8001322:	468f      	mov	pc, r1
 8001324:	46cb      	mov	fp, r9
 8001326:	4642      	mov	r2, r8
 8001328:	9e02      	ldr	r6, [sp, #8]
 800132a:	9b03      	ldr	r3, [sp, #12]
 800132c:	2b02      	cmp	r3, #2
 800132e:	d016      	beq.n	800135e <__aeabi_ddiv+0xda>
 8001330:	2b03      	cmp	r3, #3
 8001332:	d100      	bne.n	8001336 <__aeabi_ddiv+0xb2>
 8001334:	e2a6      	b.n	8001884 <__aeabi_ddiv+0x600>
 8001336:	2b01      	cmp	r3, #1
 8001338:	d000      	beq.n	800133c <__aeabi_ddiv+0xb8>
 800133a:	e0df      	b.n	80014fc <__aeabi_ddiv+0x278>
 800133c:	2200      	movs	r2, #0
 800133e:	2300      	movs	r3, #0
 8001340:	2400      	movs	r4, #0
 8001342:	4690      	mov	r8, r2
 8001344:	051b      	lsls	r3, r3, #20
 8001346:	4323      	orrs	r3, r4
 8001348:	07f6      	lsls	r6, r6, #31
 800134a:	4333      	orrs	r3, r6
 800134c:	4640      	mov	r0, r8
 800134e:	0019      	movs	r1, r3
 8001350:	b007      	add	sp, #28
 8001352:	bcf0      	pop	{r4, r5, r6, r7}
 8001354:	46bb      	mov	fp, r7
 8001356:	46b2      	mov	sl, r6
 8001358:	46a9      	mov	r9, r5
 800135a:	46a0      	mov	r8, r4
 800135c:	bdf0      	pop	{r4, r5, r6, r7, pc}
 800135e:	2200      	movs	r2, #0
 8001360:	2400      	movs	r4, #0
 8001362:	4690      	mov	r8, r2
 8001364:	4ba6      	ldr	r3, [pc, #664]	@ (8001600 <__aeabi_ddiv+0x37c>)
 8001366:	e7ed      	b.n	8001344 <__aeabi_ddiv+0xc0>
 8001368:	002e      	movs	r6, r5
 800136a:	e7df      	b.n	800132c <__aeabi_ddiv+0xa8>
 800136c:	45cb      	cmp	fp, r9
 800136e:	d200      	bcs.n	8001372 <__aeabi_ddiv+0xee>
 8001370:	e1d4      	b.n	800171c <__aeabi_ddiv+0x498>
 8001372:	d100      	bne.n	8001376 <__aeabi_ddiv+0xf2>
 8001374:	e1cf      	b.n	8001716 <__aeabi_ddiv+0x492>
 8001376:	2301      	movs	r3, #1
 8001378:	425b      	negs	r3, r3
 800137a:	469c      	mov	ip, r3
 800137c:	4644      	mov	r4, r8
 800137e:	4648      	mov	r0, r9
 8001380:	2700      	movs	r7, #0
 8001382:	44e2      	add	sl, ip
 8001384:	465b      	mov	r3, fp
 8001386:	0e15      	lsrs	r5, r2, #24
 8001388:	021b      	lsls	r3, r3, #8
 800138a:	431d      	orrs	r5, r3
 800138c:	0c19      	lsrs	r1, r3, #16
 800138e:	042b      	lsls	r3, r5, #16
 8001390:	0212      	lsls	r2, r2, #8
 8001392:	9500      	str	r5, [sp, #0]
 8001394:	0c1d      	lsrs	r5, r3, #16
 8001396:	4691      	mov	r9, r2
 8001398:	9102      	str	r1, [sp, #8]
 800139a:	9503      	str	r5, [sp, #12]
 800139c:	f7fe ff54 	bl	8000248 <__aeabi_uidivmod>
 80013a0:	0002      	movs	r2, r0
 80013a2:	436a      	muls	r2, r5
 80013a4:	040b      	lsls	r3, r1, #16
 80013a6:	0c21      	lsrs	r1, r4, #16
 80013a8:	4680      	mov	r8, r0
 80013aa:	4319      	orrs	r1, r3
 80013ac:	428a      	cmp	r2, r1
 80013ae:	d909      	bls.n	80013c4 <__aeabi_ddiv+0x140>
 80013b0:	9d00      	ldr	r5, [sp, #0]
 80013b2:	2301      	movs	r3, #1
 80013b4:	46ac      	mov	ip, r5
 80013b6:	425b      	negs	r3, r3
 80013b8:	4461      	add	r1, ip
 80013ba:	469c      	mov	ip, r3
 80013bc:	44e0      	add	r8, ip
 80013be:	428d      	cmp	r5, r1
 80013c0:	d800      	bhi.n	80013c4 <__aeabi_ddiv+0x140>
 80013c2:	e1fb      	b.n	80017bc <__aeabi_ddiv+0x538>
 80013c4:	1a88      	subs	r0, r1, r2
 80013c6:	9902      	ldr	r1, [sp, #8]
 80013c8:	f7fe ff3e 	bl	8000248 <__aeabi_uidivmod>
 80013cc:	9a03      	ldr	r2, [sp, #12]
 80013ce:	0424      	lsls	r4, r4, #16
 80013d0:	4342      	muls	r2, r0
 80013d2:	0409      	lsls	r1, r1, #16
 80013d4:	0c24      	lsrs	r4, r4, #16
 80013d6:	0003      	movs	r3, r0
 80013d8:	430c      	orrs	r4, r1
 80013da:	42a2      	cmp	r2, r4
 80013dc:	d906      	bls.n	80013ec <__aeabi_ddiv+0x168>
 80013de:	9900      	ldr	r1, [sp, #0]
 80013e0:	3b01      	subs	r3, #1
 80013e2:	468c      	mov	ip, r1
 80013e4:	4464      	add	r4, ip
 80013e6:	42a1      	cmp	r1, r4
 80013e8:	d800      	bhi.n	80013ec <__aeabi_ddiv+0x168>
 80013ea:	e1e1      	b.n	80017b0 <__aeabi_ddiv+0x52c>
 80013ec:	1aa0      	subs	r0, r4, r2
 80013ee:	4642      	mov	r2, r8
 80013f0:	0412      	lsls	r2, r2, #16
 80013f2:	431a      	orrs	r2, r3
 80013f4:	4693      	mov	fp, r2
 80013f6:	464b      	mov	r3, r9
 80013f8:	4659      	mov	r1, fp
 80013fa:	0c1b      	lsrs	r3, r3, #16
 80013fc:	001d      	movs	r5, r3
 80013fe:	9304      	str	r3, [sp, #16]
 8001400:	040b      	lsls	r3, r1, #16
 8001402:	4649      	mov	r1, r9
 8001404:	0409      	lsls	r1, r1, #16
 8001406:	0c09      	lsrs	r1, r1, #16
 8001408:	000c      	movs	r4, r1
 800140a:	0c1b      	lsrs	r3, r3, #16
 800140c:	435c      	muls	r4, r3
 800140e:	0c12      	lsrs	r2, r2, #16
 8001410:	436b      	muls	r3, r5
 8001412:	4688      	mov	r8, r1
 8001414:	4351      	muls	r1, r2
 8001416:	436a      	muls	r2, r5
 8001418:	0c25      	lsrs	r5, r4, #16
 800141a:	46ac      	mov	ip, r5
 800141c:	185b      	adds	r3, r3, r1
 800141e:	4463      	add	r3, ip
 8001420:	4299      	cmp	r1, r3
 8001422:	d903      	bls.n	800142c <__aeabi_ddiv+0x1a8>
 8001424:	2180      	movs	r1, #128	@ 0x80
 8001426:	0249      	lsls	r1, r1, #9
 8001428:	468c      	mov	ip, r1
 800142a:	4462      	add	r2, ip
 800142c:	0c19      	lsrs	r1, r3, #16
 800142e:	0424      	lsls	r4, r4, #16
 8001430:	041b      	lsls	r3, r3, #16
 8001432:	0c24      	lsrs	r4, r4, #16
 8001434:	188a      	adds	r2, r1, r2
 8001436:	191c      	adds	r4, r3, r4
 8001438:	4290      	cmp	r0, r2
 800143a:	d302      	bcc.n	8001442 <__aeabi_ddiv+0x1be>
 800143c:	d116      	bne.n	800146c <__aeabi_ddiv+0x1e8>
 800143e:	42a7      	cmp	r7, r4
 8001440:	d214      	bcs.n	800146c <__aeabi_ddiv+0x1e8>
 8001442:	465b      	mov	r3, fp
 8001444:	9d00      	ldr	r5, [sp, #0]
 8001446:	3b01      	subs	r3, #1
 8001448:	444f      	add	r7, r9
 800144a:	9305      	str	r3, [sp, #20]
 800144c:	454f      	cmp	r7, r9
 800144e:	419b      	sbcs	r3, r3
 8001450:	46ac      	mov	ip, r5
 8001452:	425b      	negs	r3, r3
 8001454:	4463      	add	r3, ip
 8001456:	18c0      	adds	r0, r0, r3
 8001458:	4285      	cmp	r5, r0
 800145a:	d300      	bcc.n	800145e <__aeabi_ddiv+0x1da>
 800145c:	e1a1      	b.n	80017a2 <__aeabi_ddiv+0x51e>
 800145e:	4282      	cmp	r2, r0
 8001460:	d900      	bls.n	8001464 <__aeabi_ddiv+0x1e0>
 8001462:	e1f6      	b.n	8001852 <__aeabi_ddiv+0x5ce>
 8001464:	d100      	bne.n	8001468 <__aeabi_ddiv+0x1e4>
 8001466:	e1f1      	b.n	800184c <__aeabi_ddiv+0x5c8>
 8001468:	9b05      	ldr	r3, [sp, #20]
 800146a:	469b      	mov	fp, r3
 800146c:	1b3c      	subs	r4, r7, r4
 800146e:	42a7      	cmp	r7, r4
 8001470:	41bf      	sbcs	r7, r7
 8001472:	9d00      	ldr	r5, [sp, #0]
 8001474:	1a80      	subs	r0, r0, r2
 8001476:	427f      	negs	r7, r7
 8001478:	1bc0      	subs	r0, r0, r7
 800147a:	4285      	cmp	r5, r0
 800147c:	d100      	bne.n	8001480 <__aeabi_ddiv+0x1fc>
 800147e:	e1d0      	b.n	8001822 <__aeabi_ddiv+0x59e>
 8001480:	9902      	ldr	r1, [sp, #8]
 8001482:	f7fe fee1 	bl	8000248 <__aeabi_uidivmod>
 8001486:	9a03      	ldr	r2, [sp, #12]
 8001488:	040b      	lsls	r3, r1, #16
 800148a:	4342      	muls	r2, r0
 800148c:	0c21      	lsrs	r1, r4, #16
 800148e:	0007      	movs	r7, r0
 8001490:	4319      	orrs	r1, r3
 8001492:	428a      	cmp	r2, r1
 8001494:	d900      	bls.n	8001498 <__aeabi_ddiv+0x214>
 8001496:	e178      	b.n	800178a <__aeabi_ddiv+0x506>
 8001498:	1a88      	subs	r0, r1, r2
 800149a:	9902      	ldr	r1, [sp, #8]
 800149c:	f7fe fed4 	bl	8000248 <__aeabi_uidivmod>
 80014a0:	9a03      	ldr	r2, [sp, #12]
 80014a2:	0424      	lsls	r4, r4, #16
 80014a4:	4342      	muls	r2, r0
 80014a6:	0409      	lsls	r1, r1, #16
 80014a8:	0c24      	lsrs	r4, r4, #16
 80014aa:	0003      	movs	r3, r0
 80014ac:	430c      	orrs	r4, r1
 80014ae:	42a2      	cmp	r2, r4
 80014b0:	d900      	bls.n	80014b4 <__aeabi_ddiv+0x230>
 80014b2:	e15d      	b.n	8001770 <__aeabi_ddiv+0x4ec>
 80014b4:	4641      	mov	r1, r8
 80014b6:	1aa4      	subs	r4, r4, r2
 80014b8:	043a      	lsls	r2, r7, #16
 80014ba:	431a      	orrs	r2, r3
 80014bc:	9d04      	ldr	r5, [sp, #16]
 80014be:	0413      	lsls	r3, r2, #16
 80014c0:	0c1b      	lsrs	r3, r3, #16
 80014c2:	4359      	muls	r1, r3
 80014c4:	4647      	mov	r7, r8
 80014c6:	436b      	muls	r3, r5
 80014c8:	469c      	mov	ip, r3
 80014ca:	0c10      	lsrs	r0, r2, #16
 80014cc:	4347      	muls	r7, r0
 80014ce:	0c0b      	lsrs	r3, r1, #16
 80014d0:	44bc      	add	ip, r7
 80014d2:	4463      	add	r3, ip
 80014d4:	4368      	muls	r0, r5
 80014d6:	429f      	cmp	r7, r3
 80014d8:	d903      	bls.n	80014e2 <__aeabi_ddiv+0x25e>
 80014da:	2580      	movs	r5, #128	@ 0x80
 80014dc:	026d      	lsls	r5, r5, #9
 80014de:	46ac      	mov	ip, r5
 80014e0:	4460      	add	r0, ip
 80014e2:	0c1f      	lsrs	r7, r3, #16
 80014e4:	0409      	lsls	r1, r1, #16
 80014e6:	041b      	lsls	r3, r3, #16
 80014e8:	0c09      	lsrs	r1, r1, #16
 80014ea:	183f      	adds	r7, r7, r0
 80014ec:	185b      	adds	r3, r3, r1
 80014ee:	42bc      	cmp	r4, r7
 80014f0:	d200      	bcs.n	80014f4 <__aeabi_ddiv+0x270>
 80014f2:	e102      	b.n	80016fa <__aeabi_ddiv+0x476>
 80014f4:	d100      	bne.n	80014f8 <__aeabi_ddiv+0x274>
 80014f6:	e0fd      	b.n	80016f4 <__aeabi_ddiv+0x470>
 80014f8:	2301      	movs	r3, #1
 80014fa:	431a      	orrs	r2, r3
 80014fc:	4b43      	ldr	r3, [pc, #268]	@ (800160c <__aeabi_ddiv+0x388>)
 80014fe:	4453      	add	r3, sl
 8001500:	2b00      	cmp	r3, #0
 8001502:	dc00      	bgt.n	8001506 <__aeabi_ddiv+0x282>
 8001504:	e0ae      	b.n	8001664 <__aeabi_ddiv+0x3e0>
 8001506:	0751      	lsls	r1, r2, #29
 8001508:	d000      	beq.n	800150c <__aeabi_ddiv+0x288>
 800150a:	e198      	b.n	800183e <__aeabi_ddiv+0x5ba>
 800150c:	4659      	mov	r1, fp
 800150e:	01c9      	lsls	r1, r1, #7
 8001510:	d506      	bpl.n	8001520 <__aeabi_ddiv+0x29c>
 8001512:	4659      	mov	r1, fp
 8001514:	4b3e      	ldr	r3, [pc, #248]	@ (8001610 <__aeabi_ddiv+0x38c>)
 8001516:	4019      	ands	r1, r3
 8001518:	2380      	movs	r3, #128	@ 0x80
 800151a:	468b      	mov	fp, r1
 800151c:	00db      	lsls	r3, r3, #3
 800151e:	4453      	add	r3, sl
 8001520:	493c      	ldr	r1, [pc, #240]	@ (8001614 <__aeabi_ddiv+0x390>)
 8001522:	428b      	cmp	r3, r1
 8001524:	dd00      	ble.n	8001528 <__aeabi_ddiv+0x2a4>
 8001526:	e71a      	b.n	800135e <__aeabi_ddiv+0xda>
 8001528:	4659      	mov	r1, fp
 800152a:	08d2      	lsrs	r2, r2, #3
 800152c:	0749      	lsls	r1, r1, #29
 800152e:	4311      	orrs	r1, r2
 8001530:	465a      	mov	r2, fp
 8001532:	055b      	lsls	r3, r3, #21
 8001534:	0254      	lsls	r4, r2, #9
 8001536:	4688      	mov	r8, r1
 8001538:	0b24      	lsrs	r4, r4, #12
 800153a:	0d5b      	lsrs	r3, r3, #21
 800153c:	e702      	b.n	8001344 <__aeabi_ddiv+0xc0>
 800153e:	465a      	mov	r2, fp
 8001540:	9b00      	ldr	r3, [sp, #0]
 8001542:	431a      	orrs	r2, r3
 8001544:	d100      	bne.n	8001548 <__aeabi_ddiv+0x2c4>
 8001546:	e07e      	b.n	8001646 <__aeabi_ddiv+0x3c2>
 8001548:	465b      	mov	r3, fp
 800154a:	2b00      	cmp	r3, #0
 800154c:	d100      	bne.n	8001550 <__aeabi_ddiv+0x2cc>
 800154e:	e100      	b.n	8001752 <__aeabi_ddiv+0x4ce>
 8001550:	4658      	mov	r0, fp
 8001552:	f001 fabb 	bl	8002acc <__clzsi2>
 8001556:	0002      	movs	r2, r0
 8001558:	0003      	movs	r3, r0
 800155a:	3a0b      	subs	r2, #11
 800155c:	271d      	movs	r7, #29
 800155e:	9e00      	ldr	r6, [sp, #0]
 8001560:	1aba      	subs	r2, r7, r2
 8001562:	0019      	movs	r1, r3
 8001564:	4658      	mov	r0, fp
 8001566:	40d6      	lsrs	r6, r2
 8001568:	3908      	subs	r1, #8
 800156a:	4088      	lsls	r0, r1
 800156c:	0032      	movs	r2, r6
 800156e:	4302      	orrs	r2, r0
 8001570:	4693      	mov	fp, r2
 8001572:	9a00      	ldr	r2, [sp, #0]
 8001574:	408a      	lsls	r2, r1
 8001576:	4928      	ldr	r1, [pc, #160]	@ (8001618 <__aeabi_ddiv+0x394>)
 8001578:	4453      	add	r3, sl
 800157a:	468a      	mov	sl, r1
 800157c:	449a      	add	sl, r3
 800157e:	2300      	movs	r3, #0
 8001580:	e6c8      	b.n	8001314 <__aeabi_ddiv+0x90>
 8001582:	465b      	mov	r3, fp
 8001584:	4303      	orrs	r3, r0
 8001586:	4699      	mov	r9, r3
 8001588:	d056      	beq.n	8001638 <__aeabi_ddiv+0x3b4>
 800158a:	465b      	mov	r3, fp
 800158c:	2b00      	cmp	r3, #0
 800158e:	d100      	bne.n	8001592 <__aeabi_ddiv+0x30e>
 8001590:	e0cd      	b.n	800172e <__aeabi_ddiv+0x4aa>
 8001592:	4658      	mov	r0, fp
 8001594:	f001 fa9a 	bl	8002acc <__clzsi2>
 8001598:	230b      	movs	r3, #11
 800159a:	425b      	negs	r3, r3
 800159c:	469c      	mov	ip, r3
 800159e:	0002      	movs	r2, r0
 80015a0:	4484      	add	ip, r0
 80015a2:	4666      	mov	r6, ip
 80015a4:	231d      	movs	r3, #29
 80015a6:	1b9b      	subs	r3, r3, r6
 80015a8:	0026      	movs	r6, r4
 80015aa:	0011      	movs	r1, r2
 80015ac:	4658      	mov	r0, fp
 80015ae:	40de      	lsrs	r6, r3
 80015b0:	3908      	subs	r1, #8
 80015b2:	4088      	lsls	r0, r1
 80015b4:	0033      	movs	r3, r6
 80015b6:	4303      	orrs	r3, r0
 80015b8:	4699      	mov	r9, r3
 80015ba:	0023      	movs	r3, r4
 80015bc:	408b      	lsls	r3, r1
 80015be:	4698      	mov	r8, r3
 80015c0:	4b16      	ldr	r3, [pc, #88]	@ (800161c <__aeabi_ddiv+0x398>)
 80015c2:	2400      	movs	r4, #0
 80015c4:	1a9b      	subs	r3, r3, r2
 80015c6:	469a      	mov	sl, r3
 80015c8:	2300      	movs	r3, #0
 80015ca:	9303      	str	r3, [sp, #12]
 80015cc:	e682      	b.n	80012d4 <__aeabi_ddiv+0x50>
 80015ce:	465a      	mov	r2, fp
 80015d0:	4302      	orrs	r2, r0
 80015d2:	4691      	mov	r9, r2
 80015d4:	d12a      	bne.n	800162c <__aeabi_ddiv+0x3a8>
 80015d6:	2200      	movs	r2, #0
 80015d8:	469a      	mov	sl, r3
 80015da:	2302      	movs	r3, #2
 80015dc:	4690      	mov	r8, r2
 80015de:	2408      	movs	r4, #8
 80015e0:	9303      	str	r3, [sp, #12]
 80015e2:	e677      	b.n	80012d4 <__aeabi_ddiv+0x50>
 80015e4:	465a      	mov	r2, fp
 80015e6:	9b00      	ldr	r3, [sp, #0]
 80015e8:	431a      	orrs	r2, r3
 80015ea:	4b0d      	ldr	r3, [pc, #52]	@ (8001620 <__aeabi_ddiv+0x39c>)
 80015ec:	469c      	mov	ip, r3
 80015ee:	44e2      	add	sl, ip
 80015f0:	2a00      	cmp	r2, #0
 80015f2:	d117      	bne.n	8001624 <__aeabi_ddiv+0x3a0>
 80015f4:	2302      	movs	r3, #2
 80015f6:	431c      	orrs	r4, r3
 80015f8:	2300      	movs	r3, #0
 80015fa:	469b      	mov	fp, r3
 80015fc:	3302      	adds	r3, #2
 80015fe:	e689      	b.n	8001314 <__aeabi_ddiv+0x90>
 8001600:	000007ff 	.word	0x000007ff
 8001604:	fffffc01 	.word	0xfffffc01
 8001608:	080085d4 	.word	0x080085d4
 800160c:	000003ff 	.word	0x000003ff
 8001610:	feffffff 	.word	0xfeffffff
 8001614:	000007fe 	.word	0x000007fe
 8001618:	000003f3 	.word	0x000003f3
 800161c:	fffffc0d 	.word	0xfffffc0d
 8001620:	fffff801 	.word	0xfffff801
 8001624:	2303      	movs	r3, #3
 8001626:	0032      	movs	r2, r6
 8001628:	431c      	orrs	r4, r3
 800162a:	e673      	b.n	8001314 <__aeabi_ddiv+0x90>
 800162c:	469a      	mov	sl, r3
 800162e:	2303      	movs	r3, #3
 8001630:	46d9      	mov	r9, fp
 8001632:	240c      	movs	r4, #12
 8001634:	9303      	str	r3, [sp, #12]
 8001636:	e64d      	b.n	80012d4 <__aeabi_ddiv+0x50>
 8001638:	2300      	movs	r3, #0
 800163a:	4698      	mov	r8, r3
 800163c:	469a      	mov	sl, r3
 800163e:	3301      	adds	r3, #1
 8001640:	2404      	movs	r4, #4
 8001642:	9303      	str	r3, [sp, #12]
 8001644:	e646      	b.n	80012d4 <__aeabi_ddiv+0x50>
 8001646:	2301      	movs	r3, #1
 8001648:	431c      	orrs	r4, r3
 800164a:	2300      	movs	r3, #0
 800164c:	469b      	mov	fp, r3
 800164e:	3301      	adds	r3, #1
 8001650:	e660      	b.n	8001314 <__aeabi_ddiv+0x90>
 8001652:	2300      	movs	r3, #0
 8001654:	2480      	movs	r4, #128	@ 0x80
 8001656:	4698      	mov	r8, r3
 8001658:	2600      	movs	r6, #0
 800165a:	4b92      	ldr	r3, [pc, #584]	@ (80018a4 <__aeabi_ddiv+0x620>)
 800165c:	0324      	lsls	r4, r4, #12
 800165e:	e671      	b.n	8001344 <__aeabi_ddiv+0xc0>
 8001660:	2201      	movs	r2, #1
 8001662:	4252      	negs	r2, r2
 8001664:	2101      	movs	r1, #1
 8001666:	1ac9      	subs	r1, r1, r3
 8001668:	2938      	cmp	r1, #56	@ 0x38
 800166a:	dd00      	ble.n	800166e <__aeabi_ddiv+0x3ea>
 800166c:	e666      	b.n	800133c <__aeabi_ddiv+0xb8>
 800166e:	291f      	cmp	r1, #31
 8001670:	dc00      	bgt.n	8001674 <__aeabi_ddiv+0x3f0>
 8001672:	e0ab      	b.n	80017cc <__aeabi_ddiv+0x548>
 8001674:	201f      	movs	r0, #31
 8001676:	4240      	negs	r0, r0
 8001678:	1ac3      	subs	r3, r0, r3
 800167a:	4658      	mov	r0, fp
 800167c:	40d8      	lsrs	r0, r3
 800167e:	0003      	movs	r3, r0
 8001680:	2920      	cmp	r1, #32
 8001682:	d004      	beq.n	800168e <__aeabi_ddiv+0x40a>
 8001684:	4658      	mov	r0, fp
 8001686:	4988      	ldr	r1, [pc, #544]	@ (80018a8 <__aeabi_ddiv+0x624>)
 8001688:	4451      	add	r1, sl
 800168a:	4088      	lsls	r0, r1
 800168c:	4302      	orrs	r2, r0
 800168e:	1e51      	subs	r1, r2, #1
 8001690:	418a      	sbcs	r2, r1
 8001692:	431a      	orrs	r2, r3
 8001694:	2307      	movs	r3, #7
 8001696:	0019      	movs	r1, r3
 8001698:	2400      	movs	r4, #0
 800169a:	4011      	ands	r1, r2
 800169c:	4213      	tst	r3, r2
 800169e:	d00c      	beq.n	80016ba <__aeabi_ddiv+0x436>
 80016a0:	230f      	movs	r3, #15
 80016a2:	4013      	ands	r3, r2
 80016a4:	2b04      	cmp	r3, #4
 80016a6:	d100      	bne.n	80016aa <__aeabi_ddiv+0x426>
 80016a8:	e0f9      	b.n	800189e <__aeabi_ddiv+0x61a>
 80016aa:	1d11      	adds	r1, r2, #4
 80016ac:	4291      	cmp	r1, r2
 80016ae:	419b      	sbcs	r3, r3
 80016b0:	000a      	movs	r2, r1
 80016b2:	425b      	negs	r3, r3
 80016b4:	0759      	lsls	r1, r3, #29
 80016b6:	025b      	lsls	r3, r3, #9
 80016b8:	0b1c      	lsrs	r4, r3, #12
 80016ba:	08d2      	lsrs	r2, r2, #3
 80016bc:	430a      	orrs	r2, r1
 80016be:	4690      	mov	r8, r2
 80016c0:	2300      	movs	r3, #0
 80016c2:	e63f      	b.n	8001344 <__aeabi_ddiv+0xc0>
 80016c4:	2480      	movs	r4, #128	@ 0x80
 80016c6:	464b      	mov	r3, r9
 80016c8:	0324      	lsls	r4, r4, #12
 80016ca:	4223      	tst	r3, r4
 80016cc:	d009      	beq.n	80016e2 <__aeabi_ddiv+0x45e>
 80016ce:	465b      	mov	r3, fp
 80016d0:	4223      	tst	r3, r4
 80016d2:	d106      	bne.n	80016e2 <__aeabi_ddiv+0x45e>
 80016d4:	431c      	orrs	r4, r3
 80016d6:	0324      	lsls	r4, r4, #12
 80016d8:	002e      	movs	r6, r5
 80016da:	4690      	mov	r8, r2
 80016dc:	4b71      	ldr	r3, [pc, #452]	@ (80018a4 <__aeabi_ddiv+0x620>)
 80016de:	0b24      	lsrs	r4, r4, #12
 80016e0:	e630      	b.n	8001344 <__aeabi_ddiv+0xc0>
 80016e2:	2480      	movs	r4, #128	@ 0x80
 80016e4:	464b      	mov	r3, r9
 80016e6:	0324      	lsls	r4, r4, #12
 80016e8:	431c      	orrs	r4, r3
 80016ea:	0324      	lsls	r4, r4, #12
 80016ec:	9e02      	ldr	r6, [sp, #8]
 80016ee:	4b6d      	ldr	r3, [pc, #436]	@ (80018a4 <__aeabi_ddiv+0x620>)
 80016f0:	0b24      	lsrs	r4, r4, #12
 80016f2:	e627      	b.n	8001344 <__aeabi_ddiv+0xc0>
 80016f4:	2b00      	cmp	r3, #0
 80016f6:	d100      	bne.n	80016fa <__aeabi_ddiv+0x476>
 80016f8:	e700      	b.n	80014fc <__aeabi_ddiv+0x278>
 80016fa:	9800      	ldr	r0, [sp, #0]
 80016fc:	1e51      	subs	r1, r2, #1
 80016fe:	4684      	mov	ip, r0
 8001700:	4464      	add	r4, ip
 8001702:	4284      	cmp	r4, r0
 8001704:	d200      	bcs.n	8001708 <__aeabi_ddiv+0x484>
 8001706:	e084      	b.n	8001812 <__aeabi_ddiv+0x58e>
 8001708:	42bc      	cmp	r4, r7
 800170a:	d200      	bcs.n	800170e <__aeabi_ddiv+0x48a>
 800170c:	e0ae      	b.n	800186c <__aeabi_ddiv+0x5e8>
 800170e:	d100      	bne.n	8001712 <__aeabi_ddiv+0x48e>
 8001710:	e0c1      	b.n	8001896 <__aeabi_ddiv+0x612>
 8001712:	000a      	movs	r2, r1
 8001714:	e6f0      	b.n	80014f8 <__aeabi_ddiv+0x274>
 8001716:	4542      	cmp	r2, r8
 8001718:	d900      	bls.n	800171c <__aeabi_ddiv+0x498>
 800171a:	e62c      	b.n	8001376 <__aeabi_ddiv+0xf2>
 800171c:	464b      	mov	r3, r9
 800171e:	07dc      	lsls	r4, r3, #31
 8001720:	0858      	lsrs	r0, r3, #1
 8001722:	4643      	mov	r3, r8
 8001724:	085b      	lsrs	r3, r3, #1
 8001726:	431c      	orrs	r4, r3
 8001728:	4643      	mov	r3, r8
 800172a:	07df      	lsls	r7, r3, #31
 800172c:	e62a      	b.n	8001384 <__aeabi_ddiv+0x100>
 800172e:	f001 f9cd 	bl	8002acc <__clzsi2>
 8001732:	2315      	movs	r3, #21
 8001734:	469c      	mov	ip, r3
 8001736:	4484      	add	ip, r0
 8001738:	0002      	movs	r2, r0
 800173a:	4663      	mov	r3, ip
 800173c:	3220      	adds	r2, #32
 800173e:	2b1c      	cmp	r3, #28
 8001740:	dc00      	bgt.n	8001744 <__aeabi_ddiv+0x4c0>
 8001742:	e72e      	b.n	80015a2 <__aeabi_ddiv+0x31e>
 8001744:	0023      	movs	r3, r4
 8001746:	3808      	subs	r0, #8
 8001748:	4083      	lsls	r3, r0
 800174a:	4699      	mov	r9, r3
 800174c:	2300      	movs	r3, #0
 800174e:	4698      	mov	r8, r3
 8001750:	e736      	b.n	80015c0 <__aeabi_ddiv+0x33c>
 8001752:	f001 f9bb 	bl	8002acc <__clzsi2>
 8001756:	0002      	movs	r2, r0
 8001758:	0003      	movs	r3, r0
 800175a:	3215      	adds	r2, #21
 800175c:	3320      	adds	r3, #32
 800175e:	2a1c      	cmp	r2, #28
 8001760:	dc00      	bgt.n	8001764 <__aeabi_ddiv+0x4e0>
 8001762:	e6fb      	b.n	800155c <__aeabi_ddiv+0x2d8>
 8001764:	9900      	ldr	r1, [sp, #0]
 8001766:	3808      	subs	r0, #8
 8001768:	4081      	lsls	r1, r0
 800176a:	2200      	movs	r2, #0
 800176c:	468b      	mov	fp, r1
 800176e:	e702      	b.n	8001576 <__aeabi_ddiv+0x2f2>
 8001770:	9900      	ldr	r1, [sp, #0]
 8001772:	3b01      	subs	r3, #1
 8001774:	468c      	mov	ip, r1
 8001776:	4464      	add	r4, ip
 8001778:	42a1      	cmp	r1, r4
 800177a:	d900      	bls.n	800177e <__aeabi_ddiv+0x4fa>
 800177c:	e69a      	b.n	80014b4 <__aeabi_ddiv+0x230>
 800177e:	42a2      	cmp	r2, r4
 8001780:	d800      	bhi.n	8001784 <__aeabi_ddiv+0x500>
 8001782:	e697      	b.n	80014b4 <__aeabi_ddiv+0x230>
 8001784:	1e83      	subs	r3, r0, #2
 8001786:	4464      	add	r4, ip
 8001788:	e694      	b.n	80014b4 <__aeabi_ddiv+0x230>
 800178a:	46ac      	mov	ip, r5
 800178c:	4461      	add	r1, ip
 800178e:	3f01      	subs	r7, #1
 8001790:	428d      	cmp	r5, r1
 8001792:	d900      	bls.n	8001796 <__aeabi_ddiv+0x512>
 8001794:	e680      	b.n	8001498 <__aeabi_ddiv+0x214>
 8001796:	428a      	cmp	r2, r1
 8001798:	d800      	bhi.n	800179c <__aeabi_ddiv+0x518>
 800179a:	e67d      	b.n	8001498 <__aeabi_ddiv+0x214>
 800179c:	1e87      	subs	r7, r0, #2
 800179e:	4461      	add	r1, ip
 80017a0:	e67a      	b.n	8001498 <__aeabi_ddiv+0x214>
 80017a2:	4285      	cmp	r5, r0
 80017a4:	d000      	beq.n	80017a8 <__aeabi_ddiv+0x524>
 80017a6:	e65f      	b.n	8001468 <__aeabi_ddiv+0x1e4>
 80017a8:	45b9      	cmp	r9, r7
 80017aa:	d900      	bls.n	80017ae <__aeabi_ddiv+0x52a>
 80017ac:	e65c      	b.n	8001468 <__aeabi_ddiv+0x1e4>
 80017ae:	e656      	b.n	800145e <__aeabi_ddiv+0x1da>
 80017b0:	42a2      	cmp	r2, r4
 80017b2:	d800      	bhi.n	80017b6 <__aeabi_ddiv+0x532>
 80017b4:	e61a      	b.n	80013ec <__aeabi_ddiv+0x168>
 80017b6:	1e83      	subs	r3, r0, #2
 80017b8:	4464      	add	r4, ip
 80017ba:	e617      	b.n	80013ec <__aeabi_ddiv+0x168>
 80017bc:	428a      	cmp	r2, r1
 80017be:	d800      	bhi.n	80017c2 <__aeabi_ddiv+0x53e>
 80017c0:	e600      	b.n	80013c4 <__aeabi_ddiv+0x140>
 80017c2:	46ac      	mov	ip, r5
 80017c4:	1e83      	subs	r3, r0, #2
 80017c6:	4698      	mov	r8, r3
 80017c8:	4461      	add	r1, ip
 80017ca:	e5fb      	b.n	80013c4 <__aeabi_ddiv+0x140>
 80017cc:	4837      	ldr	r0, [pc, #220]	@ (80018ac <__aeabi_ddiv+0x628>)
 80017ce:	0014      	movs	r4, r2
 80017d0:	4450      	add	r0, sl
 80017d2:	4082      	lsls	r2, r0
 80017d4:	465b      	mov	r3, fp
 80017d6:	0017      	movs	r7, r2
 80017d8:	4083      	lsls	r3, r0
 80017da:	40cc      	lsrs	r4, r1
 80017dc:	1e7a      	subs	r2, r7, #1
 80017de:	4197      	sbcs	r7, r2
 80017e0:	4323      	orrs	r3, r4
 80017e2:	433b      	orrs	r3, r7
 80017e4:	001a      	movs	r2, r3
 80017e6:	465b      	mov	r3, fp
 80017e8:	40cb      	lsrs	r3, r1
 80017ea:	0751      	lsls	r1, r2, #29
 80017ec:	d009      	beq.n	8001802 <__aeabi_ddiv+0x57e>
 80017ee:	210f      	movs	r1, #15
 80017f0:	4011      	ands	r1, r2
 80017f2:	2904      	cmp	r1, #4
 80017f4:	d005      	beq.n	8001802 <__aeabi_ddiv+0x57e>
 80017f6:	1d11      	adds	r1, r2, #4
 80017f8:	4291      	cmp	r1, r2
 80017fa:	4192      	sbcs	r2, r2
 80017fc:	4252      	negs	r2, r2
 80017fe:	189b      	adds	r3, r3, r2
 8001800:	000a      	movs	r2, r1
 8001802:	0219      	lsls	r1, r3, #8
 8001804:	d400      	bmi.n	8001808 <__aeabi_ddiv+0x584>
 8001806:	e755      	b.n	80016b4 <__aeabi_ddiv+0x430>
 8001808:	2200      	movs	r2, #0
 800180a:	2301      	movs	r3, #1
 800180c:	2400      	movs	r4, #0
 800180e:	4690      	mov	r8, r2
 8001810:	e598      	b.n	8001344 <__aeabi_ddiv+0xc0>
 8001812:	000a      	movs	r2, r1
 8001814:	42bc      	cmp	r4, r7
 8001816:	d000      	beq.n	800181a <__aeabi_ddiv+0x596>
 8001818:	e66e      	b.n	80014f8 <__aeabi_ddiv+0x274>
 800181a:	454b      	cmp	r3, r9
 800181c:	d000      	beq.n	8001820 <__aeabi_ddiv+0x59c>
 800181e:	e66b      	b.n	80014f8 <__aeabi_ddiv+0x274>
 8001820:	e66c      	b.n	80014fc <__aeabi_ddiv+0x278>
 8001822:	4b23      	ldr	r3, [pc, #140]	@ (80018b0 <__aeabi_ddiv+0x62c>)
 8001824:	4a23      	ldr	r2, [pc, #140]	@ (80018b4 <__aeabi_ddiv+0x630>)
 8001826:	4453      	add	r3, sl
 8001828:	4592      	cmp	sl, r2
 800182a:	da00      	bge.n	800182e <__aeabi_ddiv+0x5aa>
 800182c:	e718      	b.n	8001660 <__aeabi_ddiv+0x3dc>
 800182e:	2101      	movs	r1, #1
 8001830:	4249      	negs	r1, r1
 8001832:	1d0a      	adds	r2, r1, #4
 8001834:	428a      	cmp	r2, r1
 8001836:	4189      	sbcs	r1, r1
 8001838:	4249      	negs	r1, r1
 800183a:	448b      	add	fp, r1
 800183c:	e666      	b.n	800150c <__aeabi_ddiv+0x288>
 800183e:	210f      	movs	r1, #15
 8001840:	4011      	ands	r1, r2
 8001842:	2904      	cmp	r1, #4
 8001844:	d100      	bne.n	8001848 <__aeabi_ddiv+0x5c4>
 8001846:	e661      	b.n	800150c <__aeabi_ddiv+0x288>
 8001848:	0011      	movs	r1, r2
 800184a:	e7f2      	b.n	8001832 <__aeabi_ddiv+0x5ae>
 800184c:	42bc      	cmp	r4, r7
 800184e:	d800      	bhi.n	8001852 <__aeabi_ddiv+0x5ce>
 8001850:	e60a      	b.n	8001468 <__aeabi_ddiv+0x1e4>
 8001852:	2302      	movs	r3, #2
 8001854:	425b      	negs	r3, r3
 8001856:	469c      	mov	ip, r3
 8001858:	9900      	ldr	r1, [sp, #0]
 800185a:	444f      	add	r7, r9
 800185c:	454f      	cmp	r7, r9
 800185e:	419b      	sbcs	r3, r3
 8001860:	44e3      	add	fp, ip
 8001862:	468c      	mov	ip, r1
 8001864:	425b      	negs	r3, r3
 8001866:	4463      	add	r3, ip
 8001868:	18c0      	adds	r0, r0, r3
 800186a:	e5ff      	b.n	800146c <__aeabi_ddiv+0x1e8>
 800186c:	4649      	mov	r1, r9
 800186e:	9d00      	ldr	r5, [sp, #0]
 8001870:	0048      	lsls	r0, r1, #1
 8001872:	4548      	cmp	r0, r9
 8001874:	4189      	sbcs	r1, r1
 8001876:	46ac      	mov	ip, r5
 8001878:	4249      	negs	r1, r1
 800187a:	4461      	add	r1, ip
 800187c:	4681      	mov	r9, r0
 800187e:	3a02      	subs	r2, #2
 8001880:	1864      	adds	r4, r4, r1
 8001882:	e7c7      	b.n	8001814 <__aeabi_ddiv+0x590>
 8001884:	2480      	movs	r4, #128	@ 0x80
 8001886:	465b      	mov	r3, fp
 8001888:	0324      	lsls	r4, r4, #12
 800188a:	431c      	orrs	r4, r3
 800188c:	0324      	lsls	r4, r4, #12
 800188e:	4690      	mov	r8, r2
 8001890:	4b04      	ldr	r3, [pc, #16]	@ (80018a4 <__aeabi_ddiv+0x620>)
 8001892:	0b24      	lsrs	r4, r4, #12
 8001894:	e556      	b.n	8001344 <__aeabi_ddiv+0xc0>
 8001896:	4599      	cmp	r9, r3
 8001898:	d3e8      	bcc.n	800186c <__aeabi_ddiv+0x5e8>
 800189a:	000a      	movs	r2, r1
 800189c:	e7bd      	b.n	800181a <__aeabi_ddiv+0x596>
 800189e:	2300      	movs	r3, #0
 80018a0:	e708      	b.n	80016b4 <__aeabi_ddiv+0x430>
 80018a2:	46c0      	nop			@ (mov r8, r8)
 80018a4:	000007ff 	.word	0x000007ff
 80018a8:	0000043e 	.word	0x0000043e
 80018ac:	0000041e 	.word	0x0000041e
 80018b0:	000003ff 	.word	0x000003ff
 80018b4:	fffffc02 	.word	0xfffffc02

080018b8 <__eqdf2>:
 80018b8:	b5f0      	push	{r4, r5, r6, r7, lr}
 80018ba:	4657      	mov	r7, sl
 80018bc:	46de      	mov	lr, fp
 80018be:	464e      	mov	r6, r9
 80018c0:	4645      	mov	r5, r8
 80018c2:	b5e0      	push	{r5, r6, r7, lr}
 80018c4:	000d      	movs	r5, r1
 80018c6:	0004      	movs	r4, r0
 80018c8:	0fe8      	lsrs	r0, r5, #31
 80018ca:	4683      	mov	fp, r0
 80018cc:	0309      	lsls	r1, r1, #12
 80018ce:	0fd8      	lsrs	r0, r3, #31
 80018d0:	0b09      	lsrs	r1, r1, #12
 80018d2:	4682      	mov	sl, r0
 80018d4:	4819      	ldr	r0, [pc, #100]	@ (800193c <__eqdf2+0x84>)
 80018d6:	468c      	mov	ip, r1
 80018d8:	031f      	lsls	r7, r3, #12
 80018da:	0069      	lsls	r1, r5, #1
 80018dc:	005e      	lsls	r6, r3, #1
 80018de:	0d49      	lsrs	r1, r1, #21
 80018e0:	0b3f      	lsrs	r7, r7, #12
 80018e2:	0d76      	lsrs	r6, r6, #21
 80018e4:	4281      	cmp	r1, r0
 80018e6:	d018      	beq.n	800191a <__eqdf2+0x62>
 80018e8:	4286      	cmp	r6, r0
 80018ea:	d00f      	beq.n	800190c <__eqdf2+0x54>
 80018ec:	2001      	movs	r0, #1
 80018ee:	42b1      	cmp	r1, r6
 80018f0:	d10d      	bne.n	800190e <__eqdf2+0x56>
 80018f2:	45bc      	cmp	ip, r7
 80018f4:	d10b      	bne.n	800190e <__eqdf2+0x56>
 80018f6:	4294      	cmp	r4, r2
 80018f8:	d109      	bne.n	800190e <__eqdf2+0x56>
 80018fa:	45d3      	cmp	fp, sl
 80018fc:	d01c      	beq.n	8001938 <__eqdf2+0x80>
 80018fe:	2900      	cmp	r1, #0
 8001900:	d105      	bne.n	800190e <__eqdf2+0x56>
 8001902:	4660      	mov	r0, ip
 8001904:	4320      	orrs	r0, r4
 8001906:	1e43      	subs	r3, r0, #1
 8001908:	4198      	sbcs	r0, r3
 800190a:	e000      	b.n	800190e <__eqdf2+0x56>
 800190c:	2001      	movs	r0, #1
 800190e:	bcf0      	pop	{r4, r5, r6, r7}
 8001910:	46bb      	mov	fp, r7
 8001912:	46b2      	mov	sl, r6
 8001914:	46a9      	mov	r9, r5
 8001916:	46a0      	mov	r8, r4
 8001918:	bdf0      	pop	{r4, r5, r6, r7, pc}
 800191a:	2001      	movs	r0, #1
 800191c:	428e      	cmp	r6, r1
 800191e:	d1f6      	bne.n	800190e <__eqdf2+0x56>
 8001920:	4661      	mov	r1, ip
 8001922:	4339      	orrs	r1, r7
 8001924:	000f      	movs	r7, r1
 8001926:	4317      	orrs	r7, r2
 8001928:	4327      	orrs	r7, r4
 800192a:	d1f0      	bne.n	800190e <__eqdf2+0x56>
 800192c:	465b      	mov	r3, fp
 800192e:	4652      	mov	r2, sl
 8001930:	1a98      	subs	r0, r3, r2
 8001932:	1e43      	subs	r3, r0, #1
 8001934:	4198      	sbcs	r0, r3
 8001936:	e7ea      	b.n	800190e <__eqdf2+0x56>
 8001938:	2000      	movs	r0, #0
 800193a:	e7e8      	b.n	800190e <__eqdf2+0x56>
 800193c:	000007ff 	.word	0x000007ff

08001940 <__gedf2>:
 8001940:	b5f0      	push	{r4, r5, r6, r7, lr}
 8001942:	4657      	mov	r7, sl
 8001944:	464e      	mov	r6, r9
 8001946:	4645      	mov	r5, r8
 8001948:	46de      	mov	lr, fp
 800194a:	b5e0      	push	{r5, r6, r7, lr}
 800194c:	000d      	movs	r5, r1
 800194e:	030f      	lsls	r7, r1, #12
 8001950:	0b39      	lsrs	r1, r7, #12
 8001952:	b083      	sub	sp, #12
 8001954:	0004      	movs	r4, r0
 8001956:	4680      	mov	r8, r0
 8001958:	9101      	str	r1, [sp, #4]
 800195a:	0058      	lsls	r0, r3, #1
 800195c:	0fe9      	lsrs	r1, r5, #31
 800195e:	4f31      	ldr	r7, [pc, #196]	@ (8001a24 <__gedf2+0xe4>)
 8001960:	0d40      	lsrs	r0, r0, #21
 8001962:	468c      	mov	ip, r1
 8001964:	006e      	lsls	r6, r5, #1
 8001966:	0319      	lsls	r1, r3, #12
 8001968:	4682      	mov	sl, r0
 800196a:	4691      	mov	r9, r2
 800196c:	0d76      	lsrs	r6, r6, #21
 800196e:	0b09      	lsrs	r1, r1, #12
 8001970:	0fd8      	lsrs	r0, r3, #31
 8001972:	42be      	cmp	r6, r7
 8001974:	d01f      	beq.n	80019b6 <__gedf2+0x76>
 8001976:	45ba      	cmp	sl, r7
 8001978:	d00f      	beq.n	800199a <__gedf2+0x5a>
 800197a:	2e00      	cmp	r6, #0
 800197c:	d12f      	bne.n	80019de <__gedf2+0x9e>
 800197e:	4655      	mov	r5, sl
 8001980:	9e01      	ldr	r6, [sp, #4]
 8001982:	4334      	orrs	r4, r6
 8001984:	2d00      	cmp	r5, #0
 8001986:	d127      	bne.n	80019d8 <__gedf2+0x98>
 8001988:	430a      	orrs	r2, r1
 800198a:	d03a      	beq.n	8001a02 <__gedf2+0xc2>
 800198c:	2c00      	cmp	r4, #0
 800198e:	d145      	bne.n	8001a1c <__gedf2+0xdc>
 8001990:	2800      	cmp	r0, #0
 8001992:	d11a      	bne.n	80019ca <__gedf2+0x8a>
 8001994:	2001      	movs	r0, #1
 8001996:	4240      	negs	r0, r0
 8001998:	e017      	b.n	80019ca <__gedf2+0x8a>
 800199a:	4311      	orrs	r1, r2
 800199c:	d13b      	bne.n	8001a16 <__gedf2+0xd6>
 800199e:	2e00      	cmp	r6, #0
 80019a0:	d102      	bne.n	80019a8 <__gedf2+0x68>
 80019a2:	9f01      	ldr	r7, [sp, #4]
 80019a4:	4327      	orrs	r7, r4
 80019a6:	d0f3      	beq.n	8001990 <__gedf2+0x50>
 80019a8:	4584      	cmp	ip, r0
 80019aa:	d109      	bne.n	80019c0 <__gedf2+0x80>
 80019ac:	4663      	mov	r3, ip
 80019ae:	2b00      	cmp	r3, #0
 80019b0:	d0f0      	beq.n	8001994 <__gedf2+0x54>
 80019b2:	4660      	mov	r0, ip
 80019b4:	e009      	b.n	80019ca <__gedf2+0x8a>
 80019b6:	9f01      	ldr	r7, [sp, #4]
 80019b8:	4327      	orrs	r7, r4
 80019ba:	d12c      	bne.n	8001a16 <__gedf2+0xd6>
 80019bc:	45b2      	cmp	sl, r6
 80019be:	d024      	beq.n	8001a0a <__gedf2+0xca>
 80019c0:	4663      	mov	r3, ip
 80019c2:	2002      	movs	r0, #2
 80019c4:	3b01      	subs	r3, #1
 80019c6:	4018      	ands	r0, r3
 80019c8:	3801      	subs	r0, #1
 80019ca:	b003      	add	sp, #12
 80019cc:	bcf0      	pop	{r4, r5, r6, r7}
 80019ce:	46bb      	mov	fp, r7
 80019d0:	46b2      	mov	sl, r6
 80019d2:	46a9      	mov	r9, r5
 80019d4:	46a0      	mov	r8, r4
 80019d6:	bdf0      	pop	{r4, r5, r6, r7, pc}
 80019d8:	2c00      	cmp	r4, #0
 80019da:	d0d9      	beq.n	8001990 <__gedf2+0x50>
 80019dc:	e7e4      	b.n	80019a8 <__gedf2+0x68>
 80019de:	4654      	mov	r4, sl
 80019e0:	2c00      	cmp	r4, #0
 80019e2:	d0ed      	beq.n	80019c0 <__gedf2+0x80>
 80019e4:	4584      	cmp	ip, r0
 80019e6:	d1eb      	bne.n	80019c0 <__gedf2+0x80>
 80019e8:	4556      	cmp	r6, sl
 80019ea:	dce9      	bgt.n	80019c0 <__gedf2+0x80>
 80019ec:	dbde      	blt.n	80019ac <__gedf2+0x6c>
 80019ee:	9b01      	ldr	r3, [sp, #4]
 80019f0:	428b      	cmp	r3, r1
 80019f2:	d8e5      	bhi.n	80019c0 <__gedf2+0x80>
 80019f4:	d1da      	bne.n	80019ac <__gedf2+0x6c>
 80019f6:	45c8      	cmp	r8, r9
 80019f8:	d8e2      	bhi.n	80019c0 <__gedf2+0x80>
 80019fa:	2000      	movs	r0, #0
 80019fc:	45c8      	cmp	r8, r9
 80019fe:	d2e4      	bcs.n	80019ca <__gedf2+0x8a>
 8001a00:	e7d4      	b.n	80019ac <__gedf2+0x6c>
 8001a02:	2000      	movs	r0, #0
 8001a04:	2c00      	cmp	r4, #0
 8001a06:	d0e0      	beq.n	80019ca <__gedf2+0x8a>
 8001a08:	e7da      	b.n	80019c0 <__gedf2+0x80>
 8001a0a:	4311      	orrs	r1, r2
 8001a0c:	d103      	bne.n	8001a16 <__gedf2+0xd6>
 8001a0e:	4584      	cmp	ip, r0
 8001a10:	d1d6      	bne.n	80019c0 <__gedf2+0x80>
 8001a12:	2000      	movs	r0, #0
 8001a14:	e7d9      	b.n	80019ca <__gedf2+0x8a>
 8001a16:	2002      	movs	r0, #2
 8001a18:	4240      	negs	r0, r0
 8001a1a:	e7d6      	b.n	80019ca <__gedf2+0x8a>
 8001a1c:	4584      	cmp	ip, r0
 8001a1e:	d0e6      	beq.n	80019ee <__gedf2+0xae>
 8001a20:	e7ce      	b.n	80019c0 <__gedf2+0x80>
 8001a22:	46c0      	nop			@ (mov r8, r8)
 8001a24:	000007ff 	.word	0x000007ff

08001a28 <__ledf2>:
 8001a28:	b5f0      	push	{r4, r5, r6, r7, lr}
 8001a2a:	4657      	mov	r7, sl
 8001a2c:	464e      	mov	r6, r9
 8001a2e:	4645      	mov	r5, r8
 8001a30:	46de      	mov	lr, fp
 8001a32:	b5e0      	push	{r5, r6, r7, lr}
 8001a34:	000d      	movs	r5, r1
 8001a36:	030f      	lsls	r7, r1, #12
 8001a38:	0004      	movs	r4, r0
 8001a3a:	4680      	mov	r8, r0
 8001a3c:	0fe8      	lsrs	r0, r5, #31
 8001a3e:	0b39      	lsrs	r1, r7, #12
 8001a40:	4684      	mov	ip, r0
 8001a42:	b083      	sub	sp, #12
 8001a44:	0058      	lsls	r0, r3, #1
 8001a46:	4f30      	ldr	r7, [pc, #192]	@ (8001b08 <__ledf2+0xe0>)
 8001a48:	0d40      	lsrs	r0, r0, #21
 8001a4a:	9101      	str	r1, [sp, #4]
 8001a4c:	031e      	lsls	r6, r3, #12
 8001a4e:	0069      	lsls	r1, r5, #1
 8001a50:	4682      	mov	sl, r0
 8001a52:	4691      	mov	r9, r2
 8001a54:	0d49      	lsrs	r1, r1, #21
 8001a56:	0b36      	lsrs	r6, r6, #12
 8001a58:	0fd8      	lsrs	r0, r3, #31
 8001a5a:	42b9      	cmp	r1, r7
 8001a5c:	d020      	beq.n	8001aa0 <__ledf2+0x78>
 8001a5e:	45ba      	cmp	sl, r7
 8001a60:	d00f      	beq.n	8001a82 <__ledf2+0x5a>
 8001a62:	2900      	cmp	r1, #0
 8001a64:	d12b      	bne.n	8001abe <__ledf2+0x96>
 8001a66:	9901      	ldr	r1, [sp, #4]
 8001a68:	430c      	orrs	r4, r1
 8001a6a:	4651      	mov	r1, sl
 8001a6c:	2900      	cmp	r1, #0
 8001a6e:	d137      	bne.n	8001ae0 <__ledf2+0xb8>
 8001a70:	4332      	orrs	r2, r6
 8001a72:	d038      	beq.n	8001ae6 <__ledf2+0xbe>
 8001a74:	2c00      	cmp	r4, #0
 8001a76:	d144      	bne.n	8001b02 <__ledf2+0xda>
 8001a78:	2800      	cmp	r0, #0
 8001a7a:	d119      	bne.n	8001ab0 <__ledf2+0x88>
 8001a7c:	2001      	movs	r0, #1
 8001a7e:	4240      	negs	r0, r0
 8001a80:	e016      	b.n	8001ab0 <__ledf2+0x88>
 8001a82:	4316      	orrs	r6, r2
 8001a84:	d113      	bne.n	8001aae <__ledf2+0x86>
 8001a86:	2900      	cmp	r1, #0
 8001a88:	d102      	bne.n	8001a90 <__ledf2+0x68>
 8001a8a:	9f01      	ldr	r7, [sp, #4]
 8001a8c:	4327      	orrs	r7, r4
 8001a8e:	d0f3      	beq.n	8001a78 <__ledf2+0x50>
 8001a90:	4584      	cmp	ip, r0
 8001a92:	d020      	beq.n	8001ad6 <__ledf2+0xae>
 8001a94:	4663      	mov	r3, ip
 8001a96:	2002      	movs	r0, #2
 8001a98:	3b01      	subs	r3, #1
 8001a9a:	4018      	ands	r0, r3
 8001a9c:	3801      	subs	r0, #1
 8001a9e:	e007      	b.n	8001ab0 <__ledf2+0x88>
 8001aa0:	9f01      	ldr	r7, [sp, #4]
 8001aa2:	4327      	orrs	r7, r4
 8001aa4:	d103      	bne.n	8001aae <__ledf2+0x86>
 8001aa6:	458a      	cmp	sl, r1
 8001aa8:	d1f4      	bne.n	8001a94 <__ledf2+0x6c>
 8001aaa:	4316      	orrs	r6, r2
 8001aac:	d01f      	beq.n	8001aee <__ledf2+0xc6>
 8001aae:	2002      	movs	r0, #2
 8001ab0:	b003      	add	sp, #12
 8001ab2:	bcf0      	pop	{r4, r5, r6, r7}
 8001ab4:	46bb      	mov	fp, r7
 8001ab6:	46b2      	mov	sl, r6
 8001ab8:	46a9      	mov	r9, r5
 8001aba:	46a0      	mov	r8, r4
 8001abc:	bdf0      	pop	{r4, r5, r6, r7, pc}
 8001abe:	4654      	mov	r4, sl
 8001ac0:	2c00      	cmp	r4, #0
 8001ac2:	d0e7      	beq.n	8001a94 <__ledf2+0x6c>
 8001ac4:	4584      	cmp	ip, r0
 8001ac6:	d1e5      	bne.n	8001a94 <__ledf2+0x6c>
 8001ac8:	4551      	cmp	r1, sl
 8001aca:	dce3      	bgt.n	8001a94 <__ledf2+0x6c>
 8001acc:	db03      	blt.n	8001ad6 <__ledf2+0xae>
 8001ace:	9b01      	ldr	r3, [sp, #4]
 8001ad0:	42b3      	cmp	r3, r6
 8001ad2:	d8df      	bhi.n	8001a94 <__ledf2+0x6c>
 8001ad4:	d00f      	beq.n	8001af6 <__ledf2+0xce>
 8001ad6:	4663      	mov	r3, ip
 8001ad8:	2b00      	cmp	r3, #0
 8001ada:	d0cf      	beq.n	8001a7c <__ledf2+0x54>
 8001adc:	4660      	mov	r0, ip
 8001ade:	e7e7      	b.n	8001ab0 <__ledf2+0x88>
 8001ae0:	2c00      	cmp	r4, #0
 8001ae2:	d0c9      	beq.n	8001a78 <__ledf2+0x50>
 8001ae4:	e7d4      	b.n	8001a90 <__ledf2+0x68>
 8001ae6:	2000      	movs	r0, #0
 8001ae8:	2c00      	cmp	r4, #0
 8001aea:	d0e1      	beq.n	8001ab0 <__ledf2+0x88>
 8001aec:	e7d2      	b.n	8001a94 <__ledf2+0x6c>
 8001aee:	4584      	cmp	ip, r0
 8001af0:	d1d0      	bne.n	8001a94 <__ledf2+0x6c>
 8001af2:	2000      	movs	r0, #0
 8001af4:	e7dc      	b.n	8001ab0 <__ledf2+0x88>
 8001af6:	45c8      	cmp	r8, r9
 8001af8:	d8cc      	bhi.n	8001a94 <__ledf2+0x6c>
 8001afa:	2000      	movs	r0, #0
 8001afc:	45c8      	cmp	r8, r9
 8001afe:	d2d7      	bcs.n	8001ab0 <__ledf2+0x88>
 8001b00:	e7e9      	b.n	8001ad6 <__ledf2+0xae>
 8001b02:	4584      	cmp	ip, r0
 8001b04:	d0e3      	beq.n	8001ace <__ledf2+0xa6>
 8001b06:	e7c5      	b.n	8001a94 <__ledf2+0x6c>
 8001b08:	000007ff 	.word	0x000007ff

08001b0c <__aeabi_dmul>:
 8001b0c:	b5f0      	push	{r4, r5, r6, r7, lr}
 8001b0e:	4657      	mov	r7, sl
 8001b10:	46de      	mov	lr, fp
 8001b12:	464e      	mov	r6, r9
 8001b14:	4645      	mov	r5, r8
 8001b16:	b5e0      	push	{r5, r6, r7, lr}
 8001b18:	001f      	movs	r7, r3
 8001b1a:	030b      	lsls	r3, r1, #12
 8001b1c:	0b1b      	lsrs	r3, r3, #12
 8001b1e:	0016      	movs	r6, r2
 8001b20:	469a      	mov	sl, r3
 8001b22:	0fca      	lsrs	r2, r1, #31
 8001b24:	004b      	lsls	r3, r1, #1
 8001b26:	0004      	movs	r4, r0
 8001b28:	4693      	mov	fp, r2
 8001b2a:	b087      	sub	sp, #28
 8001b2c:	0d5b      	lsrs	r3, r3, #21
 8001b2e:	d100      	bne.n	8001b32 <__aeabi_dmul+0x26>
 8001b30:	e0d5      	b.n	8001cde <__aeabi_dmul+0x1d2>
 8001b32:	4abb      	ldr	r2, [pc, #748]	@ (8001e20 <__aeabi_dmul+0x314>)
 8001b34:	4293      	cmp	r3, r2
 8001b36:	d100      	bne.n	8001b3a <__aeabi_dmul+0x2e>
 8001b38:	e0f8      	b.n	8001d2c <__aeabi_dmul+0x220>
 8001b3a:	4651      	mov	r1, sl
 8001b3c:	0f42      	lsrs	r2, r0, #29
 8001b3e:	00c9      	lsls	r1, r1, #3
 8001b40:	430a      	orrs	r2, r1
 8001b42:	2180      	movs	r1, #128	@ 0x80
 8001b44:	0409      	lsls	r1, r1, #16
 8001b46:	4311      	orrs	r1, r2
 8001b48:	00c2      	lsls	r2, r0, #3
 8001b4a:	4691      	mov	r9, r2
 8001b4c:	4ab5      	ldr	r2, [pc, #724]	@ (8001e24 <__aeabi_dmul+0x318>)
 8001b4e:	468a      	mov	sl, r1
 8001b50:	189d      	adds	r5, r3, r2
 8001b52:	2300      	movs	r3, #0
 8001b54:	4698      	mov	r8, r3
 8001b56:	9302      	str	r3, [sp, #8]
 8001b58:	033c      	lsls	r4, r7, #12
 8001b5a:	007b      	lsls	r3, r7, #1
 8001b5c:	0ffa      	lsrs	r2, r7, #31
 8001b5e:	0030      	movs	r0, r6
 8001b60:	0b24      	lsrs	r4, r4, #12
 8001b62:	0d5b      	lsrs	r3, r3, #21
 8001b64:	9200      	str	r2, [sp, #0]
 8001b66:	d100      	bne.n	8001b6a <__aeabi_dmul+0x5e>
 8001b68:	e096      	b.n	8001c98 <__aeabi_dmul+0x18c>
 8001b6a:	4aad      	ldr	r2, [pc, #692]	@ (8001e20 <__aeabi_dmul+0x314>)
 8001b6c:	4293      	cmp	r3, r2
 8001b6e:	d031      	beq.n	8001bd4 <__aeabi_dmul+0xc8>
 8001b70:	0f72      	lsrs	r2, r6, #29
 8001b72:	00e4      	lsls	r4, r4, #3
 8001b74:	4322      	orrs	r2, r4
 8001b76:	2480      	movs	r4, #128	@ 0x80
 8001b78:	0424      	lsls	r4, r4, #16
 8001b7a:	4314      	orrs	r4, r2
 8001b7c:	4aa9      	ldr	r2, [pc, #676]	@ (8001e24 <__aeabi_dmul+0x318>)
 8001b7e:	00f0      	lsls	r0, r6, #3
 8001b80:	4694      	mov	ip, r2
 8001b82:	4463      	add	r3, ip
 8001b84:	195b      	adds	r3, r3, r5
 8001b86:	1c5a      	adds	r2, r3, #1
 8001b88:	9201      	str	r2, [sp, #4]
 8001b8a:	4642      	mov	r2, r8
 8001b8c:	2600      	movs	r6, #0
 8001b8e:	2a0a      	cmp	r2, #10
 8001b90:	dc42      	bgt.n	8001c18 <__aeabi_dmul+0x10c>
 8001b92:	465a      	mov	r2, fp
 8001b94:	9900      	ldr	r1, [sp, #0]
 8001b96:	404a      	eors	r2, r1
 8001b98:	4693      	mov	fp, r2
 8001b9a:	4642      	mov	r2, r8
 8001b9c:	2a02      	cmp	r2, #2
 8001b9e:	dc32      	bgt.n	8001c06 <__aeabi_dmul+0xfa>
 8001ba0:	3a01      	subs	r2, #1
 8001ba2:	2a01      	cmp	r2, #1
 8001ba4:	d900      	bls.n	8001ba8 <__aeabi_dmul+0x9c>
 8001ba6:	e149      	b.n	8001e3c <__aeabi_dmul+0x330>
 8001ba8:	2e02      	cmp	r6, #2
 8001baa:	d100      	bne.n	8001bae <__aeabi_dmul+0xa2>
 8001bac:	e0ca      	b.n	8001d44 <__aeabi_dmul+0x238>
 8001bae:	2e01      	cmp	r6, #1
 8001bb0:	d13d      	bne.n	8001c2e <__aeabi_dmul+0x122>
 8001bb2:	2300      	movs	r3, #0
 8001bb4:	2400      	movs	r4, #0
 8001bb6:	2200      	movs	r2, #0
 8001bb8:	0010      	movs	r0, r2
 8001bba:	465a      	mov	r2, fp
 8001bbc:	051b      	lsls	r3, r3, #20
 8001bbe:	4323      	orrs	r3, r4
 8001bc0:	07d2      	lsls	r2, r2, #31
 8001bc2:	4313      	orrs	r3, r2
 8001bc4:	0019      	movs	r1, r3
 8001bc6:	b007      	add	sp, #28
 8001bc8:	bcf0      	pop	{r4, r5, r6, r7}
 8001bca:	46bb      	mov	fp, r7
 8001bcc:	46b2      	mov	sl, r6
 8001bce:	46a9      	mov	r9, r5
 8001bd0:	46a0      	mov	r8, r4
 8001bd2:	bdf0      	pop	{r4, r5, r6, r7, pc}
 8001bd4:	4b92      	ldr	r3, [pc, #584]	@ (8001e20 <__aeabi_dmul+0x314>)
 8001bd6:	4326      	orrs	r6, r4
 8001bd8:	18eb      	adds	r3, r5, r3
 8001bda:	2e00      	cmp	r6, #0
 8001bdc:	d100      	bne.n	8001be0 <__aeabi_dmul+0xd4>
 8001bde:	e0bb      	b.n	8001d58 <__aeabi_dmul+0x24c>
 8001be0:	2203      	movs	r2, #3
 8001be2:	4641      	mov	r1, r8
 8001be4:	4311      	orrs	r1, r2
 8001be6:	465a      	mov	r2, fp
 8001be8:	4688      	mov	r8, r1
 8001bea:	9900      	ldr	r1, [sp, #0]
 8001bec:	404a      	eors	r2, r1
 8001bee:	2180      	movs	r1, #128	@ 0x80
 8001bf0:	0109      	lsls	r1, r1, #4
 8001bf2:	468c      	mov	ip, r1
 8001bf4:	0029      	movs	r1, r5
 8001bf6:	4461      	add	r1, ip
 8001bf8:	9101      	str	r1, [sp, #4]
 8001bfa:	4641      	mov	r1, r8
 8001bfc:	290a      	cmp	r1, #10
 8001bfe:	dd00      	ble.n	8001c02 <__aeabi_dmul+0xf6>
 8001c00:	e233      	b.n	800206a <__aeabi_dmul+0x55e>
 8001c02:	4693      	mov	fp, r2
 8001c04:	2603      	movs	r6, #3
 8001c06:	4642      	mov	r2, r8
 8001c08:	2701      	movs	r7, #1
 8001c0a:	4097      	lsls	r7, r2
 8001c0c:	21a6      	movs	r1, #166	@ 0xa6
 8001c0e:	003a      	movs	r2, r7
 8001c10:	00c9      	lsls	r1, r1, #3
 8001c12:	400a      	ands	r2, r1
 8001c14:	420f      	tst	r7, r1
 8001c16:	d031      	beq.n	8001c7c <__aeabi_dmul+0x170>
 8001c18:	9e02      	ldr	r6, [sp, #8]
 8001c1a:	2e02      	cmp	r6, #2
 8001c1c:	d100      	bne.n	8001c20 <__aeabi_dmul+0x114>
 8001c1e:	e235      	b.n	800208c <__aeabi_dmul+0x580>
 8001c20:	2e03      	cmp	r6, #3
 8001c22:	d100      	bne.n	8001c26 <__aeabi_dmul+0x11a>
 8001c24:	e1d2      	b.n	8001fcc <__aeabi_dmul+0x4c0>
 8001c26:	4654      	mov	r4, sl
 8001c28:	4648      	mov	r0, r9
 8001c2a:	2e01      	cmp	r6, #1
 8001c2c:	d0c1      	beq.n	8001bb2 <__aeabi_dmul+0xa6>
 8001c2e:	9a01      	ldr	r2, [sp, #4]
 8001c30:	4b7d      	ldr	r3, [pc, #500]	@ (8001e28 <__aeabi_dmul+0x31c>)
 8001c32:	4694      	mov	ip, r2
 8001c34:	4463      	add	r3, ip
 8001c36:	2b00      	cmp	r3, #0
 8001c38:	dc00      	bgt.n	8001c3c <__aeabi_dmul+0x130>
 8001c3a:	e0c0      	b.n	8001dbe <__aeabi_dmul+0x2b2>
 8001c3c:	0742      	lsls	r2, r0, #29
 8001c3e:	d009      	beq.n	8001c54 <__aeabi_dmul+0x148>
 8001c40:	220f      	movs	r2, #15
 8001c42:	4002      	ands	r2, r0
 8001c44:	2a04      	cmp	r2, #4
 8001c46:	d005      	beq.n	8001c54 <__aeabi_dmul+0x148>
 8001c48:	1d02      	adds	r2, r0, #4
 8001c4a:	4282      	cmp	r2, r0
 8001c4c:	4180      	sbcs	r0, r0
 8001c4e:	4240      	negs	r0, r0
 8001c50:	1824      	adds	r4, r4, r0
 8001c52:	0010      	movs	r0, r2
 8001c54:	01e2      	lsls	r2, r4, #7
 8001c56:	d506      	bpl.n	8001c66 <__aeabi_dmul+0x15a>
 8001c58:	4b74      	ldr	r3, [pc, #464]	@ (8001e2c <__aeabi_dmul+0x320>)
 8001c5a:	9a01      	ldr	r2, [sp, #4]
 8001c5c:	401c      	ands	r4, r3
 8001c5e:	2380      	movs	r3, #128	@ 0x80
 8001c60:	4694      	mov	ip, r2
 8001c62:	00db      	lsls	r3, r3, #3
 8001c64:	4463      	add	r3, ip
 8001c66:	4a72      	ldr	r2, [pc, #456]	@ (8001e30 <__aeabi_dmul+0x324>)
 8001c68:	4293      	cmp	r3, r2
 8001c6a:	dc6b      	bgt.n	8001d44 <__aeabi_dmul+0x238>
 8001c6c:	0762      	lsls	r2, r4, #29
 8001c6e:	08c0      	lsrs	r0, r0, #3
 8001c70:	0264      	lsls	r4, r4, #9
 8001c72:	055b      	lsls	r3, r3, #21
 8001c74:	4302      	orrs	r2, r0
 8001c76:	0b24      	lsrs	r4, r4, #12
 8001c78:	0d5b      	lsrs	r3, r3, #21
 8001c7a:	e79d      	b.n	8001bb8 <__aeabi_dmul+0xac>
 8001c7c:	2190      	movs	r1, #144	@ 0x90
 8001c7e:	0089      	lsls	r1, r1, #2
 8001c80:	420f      	tst	r7, r1
 8001c82:	d163      	bne.n	8001d4c <__aeabi_dmul+0x240>
 8001c84:	2288      	movs	r2, #136	@ 0x88
 8001c86:	423a      	tst	r2, r7
 8001c88:	d100      	bne.n	8001c8c <__aeabi_dmul+0x180>
 8001c8a:	e0d7      	b.n	8001e3c <__aeabi_dmul+0x330>
 8001c8c:	9b00      	ldr	r3, [sp, #0]
 8001c8e:	46a2      	mov	sl, r4
 8001c90:	469b      	mov	fp, r3
 8001c92:	4681      	mov	r9, r0
 8001c94:	9602      	str	r6, [sp, #8]
 8001c96:	e7bf      	b.n	8001c18 <__aeabi_dmul+0x10c>
 8001c98:	0023      	movs	r3, r4
 8001c9a:	4333      	orrs	r3, r6
 8001c9c:	d100      	bne.n	8001ca0 <__aeabi_dmul+0x194>
 8001c9e:	e07f      	b.n	8001da0 <__aeabi_dmul+0x294>
 8001ca0:	2c00      	cmp	r4, #0
 8001ca2:	d100      	bne.n	8001ca6 <__aeabi_dmul+0x19a>
 8001ca4:	e1ad      	b.n	8002002 <__aeabi_dmul+0x4f6>
 8001ca6:	0020      	movs	r0, r4
 8001ca8:	f000 ff10 	bl	8002acc <__clzsi2>
 8001cac:	0002      	movs	r2, r0
 8001cae:	0003      	movs	r3, r0
 8001cb0:	3a0b      	subs	r2, #11
 8001cb2:	201d      	movs	r0, #29
 8001cb4:	0019      	movs	r1, r3
 8001cb6:	1a82      	subs	r2, r0, r2
 8001cb8:	0030      	movs	r0, r6
 8001cba:	3908      	subs	r1, #8
 8001cbc:	40d0      	lsrs	r0, r2
 8001cbe:	408c      	lsls	r4, r1
 8001cc0:	4304      	orrs	r4, r0
 8001cc2:	0030      	movs	r0, r6
 8001cc4:	4088      	lsls	r0, r1
 8001cc6:	4a5b      	ldr	r2, [pc, #364]	@ (8001e34 <__aeabi_dmul+0x328>)
 8001cc8:	1aeb      	subs	r3, r5, r3
 8001cca:	4694      	mov	ip, r2
 8001ccc:	4463      	add	r3, ip
 8001cce:	1c5a      	adds	r2, r3, #1
 8001cd0:	9201      	str	r2, [sp, #4]
 8001cd2:	4642      	mov	r2, r8
 8001cd4:	2600      	movs	r6, #0
 8001cd6:	2a0a      	cmp	r2, #10
 8001cd8:	dc00      	bgt.n	8001cdc <__aeabi_dmul+0x1d0>
 8001cda:	e75a      	b.n	8001b92 <__aeabi_dmul+0x86>
 8001cdc:	e79c      	b.n	8001c18 <__aeabi_dmul+0x10c>
 8001cde:	4653      	mov	r3, sl
 8001ce0:	4303      	orrs	r3, r0
 8001ce2:	4699      	mov	r9, r3
 8001ce4:	d054      	beq.n	8001d90 <__aeabi_dmul+0x284>
 8001ce6:	4653      	mov	r3, sl
 8001ce8:	2b00      	cmp	r3, #0
 8001cea:	d100      	bne.n	8001cee <__aeabi_dmul+0x1e2>
 8001cec:	e177      	b.n	8001fde <__aeabi_dmul+0x4d2>
 8001cee:	4650      	mov	r0, sl
 8001cf0:	f000 feec 	bl	8002acc <__clzsi2>
 8001cf4:	230b      	movs	r3, #11
 8001cf6:	425b      	negs	r3, r3
 8001cf8:	469c      	mov	ip, r3
 8001cfa:	0002      	movs	r2, r0
 8001cfc:	4484      	add	ip, r0
 8001cfe:	0011      	movs	r1, r2
 8001d00:	4650      	mov	r0, sl
 8001d02:	3908      	subs	r1, #8
 8001d04:	4088      	lsls	r0, r1
 8001d06:	231d      	movs	r3, #29
 8001d08:	4680      	mov	r8, r0
 8001d0a:	4660      	mov	r0, ip
 8001d0c:	1a1b      	subs	r3, r3, r0
 8001d0e:	0020      	movs	r0, r4
 8001d10:	40d8      	lsrs	r0, r3
 8001d12:	0003      	movs	r3, r0
 8001d14:	4640      	mov	r0, r8
 8001d16:	4303      	orrs	r3, r0
 8001d18:	469a      	mov	sl, r3
 8001d1a:	0023      	movs	r3, r4
 8001d1c:	408b      	lsls	r3, r1
 8001d1e:	4699      	mov	r9, r3
 8001d20:	2300      	movs	r3, #0
 8001d22:	4d44      	ldr	r5, [pc, #272]	@ (8001e34 <__aeabi_dmul+0x328>)
 8001d24:	4698      	mov	r8, r3
 8001d26:	1aad      	subs	r5, r5, r2
 8001d28:	9302      	str	r3, [sp, #8]
 8001d2a:	e715      	b.n	8001b58 <__aeabi_dmul+0x4c>
 8001d2c:	4652      	mov	r2, sl
 8001d2e:	4302      	orrs	r2, r0
 8001d30:	4691      	mov	r9, r2
 8001d32:	d126      	bne.n	8001d82 <__aeabi_dmul+0x276>
 8001d34:	2200      	movs	r2, #0
 8001d36:	001d      	movs	r5, r3
 8001d38:	2302      	movs	r3, #2
 8001d3a:	4692      	mov	sl, r2
 8001d3c:	3208      	adds	r2, #8
 8001d3e:	4690      	mov	r8, r2
 8001d40:	9302      	str	r3, [sp, #8]
 8001d42:	e709      	b.n	8001b58 <__aeabi_dmul+0x4c>
 8001d44:	2400      	movs	r4, #0
 8001d46:	2200      	movs	r2, #0
 8001d48:	4b35      	ldr	r3, [pc, #212]	@ (8001e20 <__aeabi_dmul+0x314>)
 8001d4a:	e735      	b.n	8001bb8 <__aeabi_dmul+0xac>
 8001d4c:	2300      	movs	r3, #0
 8001d4e:	2480      	movs	r4, #128	@ 0x80
 8001d50:	469b      	mov	fp, r3
 8001d52:	0324      	lsls	r4, r4, #12
 8001d54:	4b32      	ldr	r3, [pc, #200]	@ (8001e20 <__aeabi_dmul+0x314>)
 8001d56:	e72f      	b.n	8001bb8 <__aeabi_dmul+0xac>
 8001d58:	2202      	movs	r2, #2
 8001d5a:	4641      	mov	r1, r8
 8001d5c:	4311      	orrs	r1, r2
 8001d5e:	2280      	movs	r2, #128	@ 0x80
 8001d60:	0112      	lsls	r2, r2, #4
 8001d62:	4694      	mov	ip, r2
 8001d64:	002a      	movs	r2, r5
 8001d66:	4462      	add	r2, ip
 8001d68:	4688      	mov	r8, r1
 8001d6a:	9201      	str	r2, [sp, #4]
 8001d6c:	290a      	cmp	r1, #10
 8001d6e:	dd00      	ble.n	8001d72 <__aeabi_dmul+0x266>
 8001d70:	e752      	b.n	8001c18 <__aeabi_dmul+0x10c>
 8001d72:	465a      	mov	r2, fp
 8001d74:	2000      	movs	r0, #0
 8001d76:	9900      	ldr	r1, [sp, #0]
 8001d78:	0004      	movs	r4, r0
 8001d7a:	404a      	eors	r2, r1
 8001d7c:	4693      	mov	fp, r2
 8001d7e:	2602      	movs	r6, #2
 8001d80:	e70b      	b.n	8001b9a <__aeabi_dmul+0x8e>
 8001d82:	220c      	movs	r2, #12
 8001d84:	001d      	movs	r5, r3
 8001d86:	2303      	movs	r3, #3
 8001d88:	4681      	mov	r9, r0
 8001d8a:	4690      	mov	r8, r2
 8001d8c:	9302      	str	r3, [sp, #8]
 8001d8e:	e6e3      	b.n	8001b58 <__aeabi_dmul+0x4c>
 8001d90:	2300      	movs	r3, #0
 8001d92:	469a      	mov	sl, r3
 8001d94:	3304      	adds	r3, #4
 8001d96:	4698      	mov	r8, r3
 8001d98:	3b03      	subs	r3, #3
 8001d9a:	2500      	movs	r5, #0
 8001d9c:	9302      	str	r3, [sp, #8]
 8001d9e:	e6db      	b.n	8001b58 <__aeabi_dmul+0x4c>
 8001da0:	4642      	mov	r2, r8
 8001da2:	3301      	adds	r3, #1
 8001da4:	431a      	orrs	r2, r3
 8001da6:	002b      	movs	r3, r5
 8001da8:	4690      	mov	r8, r2
 8001daa:	1c5a      	adds	r2, r3, #1
 8001dac:	9201      	str	r2, [sp, #4]
 8001dae:	4642      	mov	r2, r8
 8001db0:	2400      	movs	r4, #0
 8001db2:	2000      	movs	r0, #0
 8001db4:	2601      	movs	r6, #1
 8001db6:	2a0a      	cmp	r2, #10
 8001db8:	dc00      	bgt.n	8001dbc <__aeabi_dmul+0x2b0>
 8001dba:	e6ea      	b.n	8001b92 <__aeabi_dmul+0x86>
 8001dbc:	e72c      	b.n	8001c18 <__aeabi_dmul+0x10c>
 8001dbe:	2201      	movs	r2, #1
 8001dc0:	1ad2      	subs	r2, r2, r3
 8001dc2:	2a38      	cmp	r2, #56	@ 0x38
 8001dc4:	dd00      	ble.n	8001dc8 <__aeabi_dmul+0x2bc>
 8001dc6:	e6f4      	b.n	8001bb2 <__aeabi_dmul+0xa6>
 8001dc8:	2a1f      	cmp	r2, #31
 8001dca:	dc00      	bgt.n	8001dce <__aeabi_dmul+0x2c2>
 8001dcc:	e12a      	b.n	8002024 <__aeabi_dmul+0x518>
 8001dce:	211f      	movs	r1, #31
 8001dd0:	4249      	negs	r1, r1
 8001dd2:	1acb      	subs	r3, r1, r3
 8001dd4:	0021      	movs	r1, r4
 8001dd6:	40d9      	lsrs	r1, r3
 8001dd8:	000b      	movs	r3, r1
 8001dda:	2a20      	cmp	r2, #32
 8001ddc:	d005      	beq.n	8001dea <__aeabi_dmul+0x2de>
 8001dde:	4a16      	ldr	r2, [pc, #88]	@ (8001e38 <__aeabi_dmul+0x32c>)
 8001de0:	9d01      	ldr	r5, [sp, #4]
 8001de2:	4694      	mov	ip, r2
 8001de4:	4465      	add	r5, ip
 8001de6:	40ac      	lsls	r4, r5
 8001de8:	4320      	orrs	r0, r4
 8001dea:	1e42      	subs	r2, r0, #1
 8001dec:	4190      	sbcs	r0, r2
 8001dee:	4318      	orrs	r0, r3
 8001df0:	2307      	movs	r3, #7
 8001df2:	0019      	movs	r1, r3
 8001df4:	2400      	movs	r4, #0
 8001df6:	4001      	ands	r1, r0
 8001df8:	4203      	tst	r3, r0
 8001dfa:	d00c      	beq.n	8001e16 <__aeabi_dmul+0x30a>
 8001dfc:	230f      	movs	r3, #15
 8001dfe:	4003      	ands	r3, r0
 8001e00:	2b04      	cmp	r3, #4
 8001e02:	d100      	bne.n	8001e06 <__aeabi_dmul+0x2fa>
 8001e04:	e140      	b.n	8002088 <__aeabi_dmul+0x57c>
 8001e06:	1d03      	adds	r3, r0, #4
 8001e08:	4283      	cmp	r3, r0
 8001e0a:	41a4      	sbcs	r4, r4
 8001e0c:	0018      	movs	r0, r3
 8001e0e:	4264      	negs	r4, r4
 8001e10:	0761      	lsls	r1, r4, #29
 8001e12:	0264      	lsls	r4, r4, #9
 8001e14:	0b24      	lsrs	r4, r4, #12
 8001e16:	08c2      	lsrs	r2, r0, #3
 8001e18:	2300      	movs	r3, #0
 8001e1a:	430a      	orrs	r2, r1
 8001e1c:	e6cc      	b.n	8001bb8 <__aeabi_dmul+0xac>
 8001e1e:	46c0      	nop			@ (mov r8, r8)
 8001e20:	000007ff 	.word	0x000007ff
 8001e24:	fffffc01 	.word	0xfffffc01
 8001e28:	000003ff 	.word	0x000003ff
 8001e2c:	feffffff 	.word	0xfeffffff
 8001e30:	000007fe 	.word	0x000007fe
 8001e34:	fffffc0d 	.word	0xfffffc0d
 8001e38:	0000043e 	.word	0x0000043e
 8001e3c:	4649      	mov	r1, r9
 8001e3e:	464a      	mov	r2, r9
 8001e40:	0409      	lsls	r1, r1, #16
 8001e42:	0c09      	lsrs	r1, r1, #16
 8001e44:	000d      	movs	r5, r1
 8001e46:	0c16      	lsrs	r6, r2, #16
 8001e48:	0c02      	lsrs	r2, r0, #16
 8001e4a:	0400      	lsls	r0, r0, #16
 8001e4c:	0c00      	lsrs	r0, r0, #16
 8001e4e:	4345      	muls	r5, r0
 8001e50:	46ac      	mov	ip, r5
 8001e52:	0005      	movs	r5, r0
 8001e54:	4375      	muls	r5, r6
 8001e56:	46a8      	mov	r8, r5
 8001e58:	0015      	movs	r5, r2
 8001e5a:	000f      	movs	r7, r1
 8001e5c:	4375      	muls	r5, r6
 8001e5e:	9200      	str	r2, [sp, #0]
 8001e60:	9502      	str	r5, [sp, #8]
 8001e62:	002a      	movs	r2, r5
 8001e64:	9d00      	ldr	r5, [sp, #0]
 8001e66:	436f      	muls	r7, r5
 8001e68:	4665      	mov	r5, ip
 8001e6a:	0c2d      	lsrs	r5, r5, #16
 8001e6c:	46a9      	mov	r9, r5
 8001e6e:	4447      	add	r7, r8
 8001e70:	444f      	add	r7, r9
 8001e72:	45b8      	cmp	r8, r7
 8001e74:	d905      	bls.n	8001e82 <__aeabi_dmul+0x376>
 8001e76:	0015      	movs	r5, r2
 8001e78:	2280      	movs	r2, #128	@ 0x80
 8001e7a:	0252      	lsls	r2, r2, #9
 8001e7c:	4690      	mov	r8, r2
 8001e7e:	4445      	add	r5, r8
 8001e80:	9502      	str	r5, [sp, #8]
 8001e82:	0c3d      	lsrs	r5, r7, #16
 8001e84:	9503      	str	r5, [sp, #12]
 8001e86:	4665      	mov	r5, ip
 8001e88:	042d      	lsls	r5, r5, #16
 8001e8a:	043f      	lsls	r7, r7, #16
 8001e8c:	0c2d      	lsrs	r5, r5, #16
 8001e8e:	46ac      	mov	ip, r5
 8001e90:	003d      	movs	r5, r7
 8001e92:	4465      	add	r5, ip
 8001e94:	9504      	str	r5, [sp, #16]
 8001e96:	0c25      	lsrs	r5, r4, #16
 8001e98:	0424      	lsls	r4, r4, #16
 8001e9a:	0c24      	lsrs	r4, r4, #16
 8001e9c:	46ac      	mov	ip, r5
 8001e9e:	0025      	movs	r5, r4
 8001ea0:	4375      	muls	r5, r6
 8001ea2:	46a8      	mov	r8, r5
 8001ea4:	4665      	mov	r5, ip
 8001ea6:	000f      	movs	r7, r1
 8001ea8:	4369      	muls	r1, r5
 8001eaa:	4441      	add	r1, r8
 8001eac:	4689      	mov	r9, r1
 8001eae:	4367      	muls	r7, r4
 8001eb0:	0c39      	lsrs	r1, r7, #16
 8001eb2:	4449      	add	r1, r9
 8001eb4:	436e      	muls	r6, r5
 8001eb6:	4588      	cmp	r8, r1
 8001eb8:	d903      	bls.n	8001ec2 <__aeabi_dmul+0x3b6>
 8001eba:	2280      	movs	r2, #128	@ 0x80
 8001ebc:	0252      	lsls	r2, r2, #9
 8001ebe:	4690      	mov	r8, r2
 8001ec0:	4446      	add	r6, r8
 8001ec2:	0c0d      	lsrs	r5, r1, #16
 8001ec4:	46a8      	mov	r8, r5
 8001ec6:	0035      	movs	r5, r6
 8001ec8:	4445      	add	r5, r8
 8001eca:	9505      	str	r5, [sp, #20]
 8001ecc:	9d03      	ldr	r5, [sp, #12]
 8001ece:	043f      	lsls	r7, r7, #16
 8001ed0:	46a8      	mov	r8, r5
 8001ed2:	0c3f      	lsrs	r7, r7, #16
 8001ed4:	0409      	lsls	r1, r1, #16
 8001ed6:	19c9      	adds	r1, r1, r7
 8001ed8:	4488      	add	r8, r1
 8001eda:	4645      	mov	r5, r8
 8001edc:	9503      	str	r5, [sp, #12]
 8001ede:	4655      	mov	r5, sl
 8001ee0:	042e      	lsls	r6, r5, #16
 8001ee2:	0c36      	lsrs	r6, r6, #16
 8001ee4:	0c2f      	lsrs	r7, r5, #16
 8001ee6:	0035      	movs	r5, r6
 8001ee8:	4345      	muls	r5, r0
 8001eea:	4378      	muls	r0, r7
 8001eec:	4681      	mov	r9, r0
 8001eee:	0038      	movs	r0, r7
 8001ef0:	46a8      	mov	r8, r5
 8001ef2:	0c2d      	lsrs	r5, r5, #16
 8001ef4:	46aa      	mov	sl, r5
 8001ef6:	9a00      	ldr	r2, [sp, #0]
 8001ef8:	4350      	muls	r0, r2
 8001efa:	4372      	muls	r2, r6
 8001efc:	444a      	add	r2, r9
 8001efe:	4452      	add	r2, sl
 8001f00:	4591      	cmp	r9, r2
 8001f02:	d903      	bls.n	8001f0c <__aeabi_dmul+0x400>
 8001f04:	2580      	movs	r5, #128	@ 0x80
 8001f06:	026d      	lsls	r5, r5, #9
 8001f08:	46a9      	mov	r9, r5
 8001f0a:	4448      	add	r0, r9
 8001f0c:	0c15      	lsrs	r5, r2, #16
 8001f0e:	46a9      	mov	r9, r5
 8001f10:	4645      	mov	r5, r8
 8001f12:	042d      	lsls	r5, r5, #16
 8001f14:	0c2d      	lsrs	r5, r5, #16
 8001f16:	46a8      	mov	r8, r5
 8001f18:	4665      	mov	r5, ip
 8001f1a:	437d      	muls	r5, r7
 8001f1c:	0412      	lsls	r2, r2, #16
 8001f1e:	4448      	add	r0, r9
 8001f20:	4490      	add	r8, r2
 8001f22:	46a9      	mov	r9, r5
 8001f24:	0032      	movs	r2, r6
 8001f26:	4665      	mov	r5, ip
 8001f28:	4362      	muls	r2, r4
 8001f2a:	436e      	muls	r6, r5
 8001f2c:	437c      	muls	r4, r7
 8001f2e:	0c17      	lsrs	r7, r2, #16
 8001f30:	1936      	adds	r6, r6, r4
 8001f32:	19bf      	adds	r7, r7, r6
 8001f34:	42bc      	cmp	r4, r7
 8001f36:	d903      	bls.n	8001f40 <__aeabi_dmul+0x434>
 8001f38:	2480      	movs	r4, #128	@ 0x80
 8001f3a:	0264      	lsls	r4, r4, #9
 8001f3c:	46a4      	mov	ip, r4
 8001f3e:	44e1      	add	r9, ip
 8001f40:	9c02      	ldr	r4, [sp, #8]
 8001f42:	9e03      	ldr	r6, [sp, #12]
 8001f44:	46a4      	mov	ip, r4
 8001f46:	9d05      	ldr	r5, [sp, #20]
 8001f48:	4466      	add	r6, ip
 8001f4a:	428e      	cmp	r6, r1
 8001f4c:	4189      	sbcs	r1, r1
 8001f4e:	46ac      	mov	ip, r5
 8001f50:	0412      	lsls	r2, r2, #16
 8001f52:	043c      	lsls	r4, r7, #16
 8001f54:	0c12      	lsrs	r2, r2, #16
 8001f56:	18a2      	adds	r2, r4, r2
 8001f58:	4462      	add	r2, ip
 8001f5a:	4249      	negs	r1, r1
 8001f5c:	1854      	adds	r4, r2, r1
 8001f5e:	4446      	add	r6, r8
 8001f60:	46a4      	mov	ip, r4
 8001f62:	4546      	cmp	r6, r8
 8001f64:	41a4      	sbcs	r4, r4
 8001f66:	4682      	mov	sl, r0
 8001f68:	4264      	negs	r4, r4
 8001f6a:	46a0      	mov	r8, r4
 8001f6c:	42aa      	cmp	r2, r5
 8001f6e:	4192      	sbcs	r2, r2
 8001f70:	458c      	cmp	ip, r1
 8001f72:	4189      	sbcs	r1, r1
 8001f74:	44e2      	add	sl, ip
 8001f76:	44d0      	add	r8, sl
 8001f78:	4249      	negs	r1, r1
 8001f7a:	4252      	negs	r2, r2
 8001f7c:	430a      	orrs	r2, r1
 8001f7e:	45a0      	cmp	r8, r4
 8001f80:	41a4      	sbcs	r4, r4
 8001f82:	4582      	cmp	sl, r0
 8001f84:	4189      	sbcs	r1, r1
 8001f86:	4264      	negs	r4, r4
 8001f88:	4249      	negs	r1, r1
 8001f8a:	430c      	orrs	r4, r1
 8001f8c:	4641      	mov	r1, r8
 8001f8e:	0c3f      	lsrs	r7, r7, #16
 8001f90:	19d2      	adds	r2, r2, r7
 8001f92:	1912      	adds	r2, r2, r4
 8001f94:	0dcc      	lsrs	r4, r1, #23
 8001f96:	9904      	ldr	r1, [sp, #16]
 8001f98:	0270      	lsls	r0, r6, #9
 8001f9a:	4308      	orrs	r0, r1
 8001f9c:	1e41      	subs	r1, r0, #1
 8001f9e:	4188      	sbcs	r0, r1
 8001fa0:	4641      	mov	r1, r8
 8001fa2:	444a      	add	r2, r9
 8001fa4:	0df6      	lsrs	r6, r6, #23
 8001fa6:	0252      	lsls	r2, r2, #9
 8001fa8:	4330      	orrs	r0, r6
 8001faa:	0249      	lsls	r1, r1, #9
 8001fac:	4314      	orrs	r4, r2
 8001fae:	4308      	orrs	r0, r1
 8001fb0:	01d2      	lsls	r2, r2, #7
 8001fb2:	d535      	bpl.n	8002020 <__aeabi_dmul+0x514>
 8001fb4:	2201      	movs	r2, #1
 8001fb6:	0843      	lsrs	r3, r0, #1
 8001fb8:	4002      	ands	r2, r0
 8001fba:	4313      	orrs	r3, r2
 8001fbc:	07e0      	lsls	r0, r4, #31
 8001fbe:	4318      	orrs	r0, r3
 8001fc0:	0864      	lsrs	r4, r4, #1
 8001fc2:	e634      	b.n	8001c2e <__aeabi_dmul+0x122>
 8001fc4:	9b00      	ldr	r3, [sp, #0]
 8001fc6:	46a2      	mov	sl, r4
 8001fc8:	469b      	mov	fp, r3
 8001fca:	4681      	mov	r9, r0
 8001fcc:	2480      	movs	r4, #128	@ 0x80
 8001fce:	4653      	mov	r3, sl
 8001fd0:	0324      	lsls	r4, r4, #12
 8001fd2:	431c      	orrs	r4, r3
 8001fd4:	0324      	lsls	r4, r4, #12
 8001fd6:	464a      	mov	r2, r9
 8001fd8:	4b2e      	ldr	r3, [pc, #184]	@ (8002094 <__aeabi_dmul+0x588>)
 8001fda:	0b24      	lsrs	r4, r4, #12
 8001fdc:	e5ec      	b.n	8001bb8 <__aeabi_dmul+0xac>
 8001fde:	f000 fd75 	bl	8002acc <__clzsi2>
 8001fe2:	2315      	movs	r3, #21
 8001fe4:	469c      	mov	ip, r3
 8001fe6:	4484      	add	ip, r0
 8001fe8:	0002      	movs	r2, r0
 8001fea:	4663      	mov	r3, ip
 8001fec:	3220      	adds	r2, #32
 8001fee:	2b1c      	cmp	r3, #28
 8001ff0:	dc00      	bgt.n	8001ff4 <__aeabi_dmul+0x4e8>
 8001ff2:	e684      	b.n	8001cfe <__aeabi_dmul+0x1f2>
 8001ff4:	2300      	movs	r3, #0
 8001ff6:	4699      	mov	r9, r3
 8001ff8:	0023      	movs	r3, r4
 8001ffa:	3808      	subs	r0, #8
 8001ffc:	4083      	lsls	r3, r0
 8001ffe:	469a      	mov	sl, r3
 8002000:	e68e      	b.n	8001d20 <__aeabi_dmul+0x214>
 8002002:	f000 fd63 	bl	8002acc <__clzsi2>
 8002006:	0002      	movs	r2, r0
 8002008:	0003      	movs	r3, r0
 800200a:	3215      	adds	r2, #21
 800200c:	3320      	adds	r3, #32
 800200e:	2a1c      	cmp	r2, #28
 8002010:	dc00      	bgt.n	8002014 <__aeabi_dmul+0x508>
 8002012:	e64e      	b.n	8001cb2 <__aeabi_dmul+0x1a6>
 8002014:	0002      	movs	r2, r0
 8002016:	0034      	movs	r4, r6
 8002018:	3a08      	subs	r2, #8
 800201a:	2000      	movs	r0, #0
 800201c:	4094      	lsls	r4, r2
 800201e:	e652      	b.n	8001cc6 <__aeabi_dmul+0x1ba>
 8002020:	9301      	str	r3, [sp, #4]
 8002022:	e604      	b.n	8001c2e <__aeabi_dmul+0x122>
 8002024:	4b1c      	ldr	r3, [pc, #112]	@ (8002098 <__aeabi_dmul+0x58c>)
 8002026:	0021      	movs	r1, r4
 8002028:	469c      	mov	ip, r3
 800202a:	0003      	movs	r3, r0
 800202c:	9d01      	ldr	r5, [sp, #4]
 800202e:	40d3      	lsrs	r3, r2
 8002030:	4465      	add	r5, ip
 8002032:	40a9      	lsls	r1, r5
 8002034:	4319      	orrs	r1, r3
 8002036:	0003      	movs	r3, r0
 8002038:	40ab      	lsls	r3, r5
 800203a:	1e58      	subs	r0, r3, #1
 800203c:	4183      	sbcs	r3, r0
 800203e:	4319      	orrs	r1, r3
 8002040:	0008      	movs	r0, r1
 8002042:	40d4      	lsrs	r4, r2
 8002044:	074b      	lsls	r3, r1, #29
 8002046:	d009      	beq.n	800205c <__aeabi_dmul+0x550>
 8002048:	230f      	movs	r3, #15
 800204a:	400b      	ands	r3, r1
 800204c:	2b04      	cmp	r3, #4
 800204e:	d005      	beq.n	800205c <__aeabi_dmul+0x550>
 8002050:	1d0b      	adds	r3, r1, #4
 8002052:	428b      	cmp	r3, r1
 8002054:	4180      	sbcs	r0, r0
 8002056:	4240      	negs	r0, r0
 8002058:	1824      	adds	r4, r4, r0
 800205a:	0018      	movs	r0, r3
 800205c:	0223      	lsls	r3, r4, #8
 800205e:	d400      	bmi.n	8002062 <__aeabi_dmul+0x556>
 8002060:	e6d6      	b.n	8001e10 <__aeabi_dmul+0x304>
 8002062:	2301      	movs	r3, #1
 8002064:	2400      	movs	r4, #0
 8002066:	2200      	movs	r2, #0
 8002068:	e5a6      	b.n	8001bb8 <__aeabi_dmul+0xac>
 800206a:	290f      	cmp	r1, #15
 800206c:	d1aa      	bne.n	8001fc4 <__aeabi_dmul+0x4b8>
 800206e:	2380      	movs	r3, #128	@ 0x80
 8002070:	4652      	mov	r2, sl
 8002072:	031b      	lsls	r3, r3, #12
 8002074:	421a      	tst	r2, r3
 8002076:	d0a9      	beq.n	8001fcc <__aeabi_dmul+0x4c0>
 8002078:	421c      	tst	r4, r3
 800207a:	d1a7      	bne.n	8001fcc <__aeabi_dmul+0x4c0>
 800207c:	431c      	orrs	r4, r3
 800207e:	9b00      	ldr	r3, [sp, #0]
 8002080:	0002      	movs	r2, r0
 8002082:	469b      	mov	fp, r3
 8002084:	4b03      	ldr	r3, [pc, #12]	@ (8002094 <__aeabi_dmul+0x588>)
 8002086:	e597      	b.n	8001bb8 <__aeabi_dmul+0xac>
 8002088:	2400      	movs	r4, #0
 800208a:	e6c1      	b.n	8001e10 <__aeabi_dmul+0x304>
 800208c:	2400      	movs	r4, #0
 800208e:	4b01      	ldr	r3, [pc, #4]	@ (8002094 <__aeabi_dmul+0x588>)
 8002090:	0022      	movs	r2, r4
 8002092:	e591      	b.n	8001bb8 <__aeabi_dmul+0xac>
 8002094:	000007ff 	.word	0x000007ff
 8002098:	0000041e 	.word	0x0000041e

0800209c <__aeabi_dsub>:
 800209c:	b5f0      	push	{r4, r5, r6, r7, lr}
 800209e:	464e      	mov	r6, r9
 80020a0:	4645      	mov	r5, r8
 80020a2:	46de      	mov	lr, fp
 80020a4:	4657      	mov	r7, sl
 80020a6:	b5e0      	push	{r5, r6, r7, lr}
 80020a8:	b085      	sub	sp, #20
 80020aa:	9000      	str	r0, [sp, #0]
 80020ac:	9101      	str	r1, [sp, #4]
 80020ae:	030c      	lsls	r4, r1, #12
 80020b0:	004f      	lsls	r7, r1, #1
 80020b2:	0fce      	lsrs	r6, r1, #31
 80020b4:	0a61      	lsrs	r1, r4, #9
 80020b6:	9c00      	ldr	r4, [sp, #0]
 80020b8:	46b0      	mov	r8, r6
 80020ba:	0f64      	lsrs	r4, r4, #29
 80020bc:	430c      	orrs	r4, r1
 80020be:	9900      	ldr	r1, [sp, #0]
 80020c0:	0d7f      	lsrs	r7, r7, #21
 80020c2:	00c8      	lsls	r0, r1, #3
 80020c4:	0011      	movs	r1, r2
 80020c6:	001a      	movs	r2, r3
 80020c8:	031b      	lsls	r3, r3, #12
 80020ca:	469c      	mov	ip, r3
 80020cc:	9100      	str	r1, [sp, #0]
 80020ce:	9201      	str	r2, [sp, #4]
 80020d0:	0051      	lsls	r1, r2, #1
 80020d2:	0d4b      	lsrs	r3, r1, #21
 80020d4:	4699      	mov	r9, r3
 80020d6:	9b01      	ldr	r3, [sp, #4]
 80020d8:	9d00      	ldr	r5, [sp, #0]
 80020da:	0fd9      	lsrs	r1, r3, #31
 80020dc:	4663      	mov	r3, ip
 80020de:	0f6a      	lsrs	r2, r5, #29
 80020e0:	0a5b      	lsrs	r3, r3, #9
 80020e2:	4313      	orrs	r3, r2
 80020e4:	00ea      	lsls	r2, r5, #3
 80020e6:	4694      	mov	ip, r2
 80020e8:	4693      	mov	fp, r2
 80020ea:	4ac1      	ldr	r2, [pc, #772]	@ (80023f0 <__aeabi_dsub+0x354>)
 80020ec:	9003      	str	r0, [sp, #12]
 80020ee:	9302      	str	r3, [sp, #8]
 80020f0:	4591      	cmp	r9, r2
 80020f2:	d100      	bne.n	80020f6 <__aeabi_dsub+0x5a>
 80020f4:	e0cd      	b.n	8002292 <__aeabi_dsub+0x1f6>
 80020f6:	2501      	movs	r5, #1
 80020f8:	4069      	eors	r1, r5
 80020fa:	464d      	mov	r5, r9
 80020fc:	1b7d      	subs	r5, r7, r5
 80020fe:	46aa      	mov	sl, r5
 8002100:	428e      	cmp	r6, r1
 8002102:	d100      	bne.n	8002106 <__aeabi_dsub+0x6a>
 8002104:	e080      	b.n	8002208 <__aeabi_dsub+0x16c>
 8002106:	2d00      	cmp	r5, #0
 8002108:	dc00      	bgt.n	800210c <__aeabi_dsub+0x70>
 800210a:	e335      	b.n	8002778 <__aeabi_dsub+0x6dc>
 800210c:	4649      	mov	r1, r9
 800210e:	2900      	cmp	r1, #0
 8002110:	d100      	bne.n	8002114 <__aeabi_dsub+0x78>
 8002112:	e0df      	b.n	80022d4 <__aeabi_dsub+0x238>
 8002114:	4297      	cmp	r7, r2
 8002116:	d100      	bne.n	800211a <__aeabi_dsub+0x7e>
 8002118:	e194      	b.n	8002444 <__aeabi_dsub+0x3a8>
 800211a:	4652      	mov	r2, sl
 800211c:	2501      	movs	r5, #1
 800211e:	2a38      	cmp	r2, #56	@ 0x38
 8002120:	dc19      	bgt.n	8002156 <__aeabi_dsub+0xba>
 8002122:	2280      	movs	r2, #128	@ 0x80
 8002124:	9b02      	ldr	r3, [sp, #8]
 8002126:	0412      	lsls	r2, r2, #16
 8002128:	4313      	orrs	r3, r2
 800212a:	9302      	str	r3, [sp, #8]
 800212c:	4652      	mov	r2, sl
 800212e:	2a1f      	cmp	r2, #31
 8002130:	dd00      	ble.n	8002134 <__aeabi_dsub+0x98>
 8002132:	e1e3      	b.n	80024fc <__aeabi_dsub+0x460>
 8002134:	4653      	mov	r3, sl
 8002136:	2220      	movs	r2, #32
 8002138:	4661      	mov	r1, ip
 800213a:	9d02      	ldr	r5, [sp, #8]
 800213c:	1ad2      	subs	r2, r2, r3
 800213e:	4095      	lsls	r5, r2
 8002140:	40d9      	lsrs	r1, r3
 8002142:	430d      	orrs	r5, r1
 8002144:	4661      	mov	r1, ip
 8002146:	4091      	lsls	r1, r2
 8002148:	000a      	movs	r2, r1
 800214a:	1e51      	subs	r1, r2, #1
 800214c:	418a      	sbcs	r2, r1
 800214e:	4315      	orrs	r5, r2
 8002150:	9a02      	ldr	r2, [sp, #8]
 8002152:	40da      	lsrs	r2, r3
 8002154:	1aa4      	subs	r4, r4, r2
 8002156:	1b45      	subs	r5, r0, r5
 8002158:	42a8      	cmp	r0, r5
 800215a:	4180      	sbcs	r0, r0
 800215c:	4240      	negs	r0, r0
 800215e:	1a24      	subs	r4, r4, r0
 8002160:	0223      	lsls	r3, r4, #8
 8002162:	d400      	bmi.n	8002166 <__aeabi_dsub+0xca>
 8002164:	e13d      	b.n	80023e2 <__aeabi_dsub+0x346>
 8002166:	0264      	lsls	r4, r4, #9
 8002168:	0a64      	lsrs	r4, r4, #9
 800216a:	2c00      	cmp	r4, #0
 800216c:	d100      	bne.n	8002170 <__aeabi_dsub+0xd4>
 800216e:	e147      	b.n	8002400 <__aeabi_dsub+0x364>
 8002170:	0020      	movs	r0, r4
 8002172:	f000 fcab 	bl	8002acc <__clzsi2>
 8002176:	0003      	movs	r3, r0
 8002178:	3b08      	subs	r3, #8
 800217a:	2120      	movs	r1, #32
 800217c:	0028      	movs	r0, r5
 800217e:	1aca      	subs	r2, r1, r3
 8002180:	40d0      	lsrs	r0, r2
 8002182:	409c      	lsls	r4, r3
 8002184:	0002      	movs	r2, r0
 8002186:	409d      	lsls	r5, r3
 8002188:	4322      	orrs	r2, r4
 800218a:	429f      	cmp	r7, r3
 800218c:	dd00      	ble.n	8002190 <__aeabi_dsub+0xf4>
 800218e:	e177      	b.n	8002480 <__aeabi_dsub+0x3e4>
 8002190:	1bd8      	subs	r0, r3, r7
 8002192:	3001      	adds	r0, #1
 8002194:	1a09      	subs	r1, r1, r0
 8002196:	002c      	movs	r4, r5
 8002198:	408d      	lsls	r5, r1
 800219a:	40c4      	lsrs	r4, r0
 800219c:	1e6b      	subs	r3, r5, #1
 800219e:	419d      	sbcs	r5, r3
 80021a0:	0013      	movs	r3, r2
 80021a2:	40c2      	lsrs	r2, r0
 80021a4:	408b      	lsls	r3, r1
 80021a6:	4325      	orrs	r5, r4
 80021a8:	2700      	movs	r7, #0
 80021aa:	0014      	movs	r4, r2
 80021ac:	431d      	orrs	r5, r3
 80021ae:	076b      	lsls	r3, r5, #29
 80021b0:	d009      	beq.n	80021c6 <__aeabi_dsub+0x12a>
 80021b2:	230f      	movs	r3, #15
 80021b4:	402b      	ands	r3, r5
 80021b6:	2b04      	cmp	r3, #4
 80021b8:	d005      	beq.n	80021c6 <__aeabi_dsub+0x12a>
 80021ba:	1d2b      	adds	r3, r5, #4
 80021bc:	42ab      	cmp	r3, r5
 80021be:	41ad      	sbcs	r5, r5
 80021c0:	426d      	negs	r5, r5
 80021c2:	1964      	adds	r4, r4, r5
 80021c4:	001d      	movs	r5, r3
 80021c6:	0223      	lsls	r3, r4, #8
 80021c8:	d400      	bmi.n	80021cc <__aeabi_dsub+0x130>
 80021ca:	e140      	b.n	800244e <__aeabi_dsub+0x3b2>
 80021cc:	4a88      	ldr	r2, [pc, #544]	@ (80023f0 <__aeabi_dsub+0x354>)
 80021ce:	3701      	adds	r7, #1
 80021d0:	4297      	cmp	r7, r2
 80021d2:	d100      	bne.n	80021d6 <__aeabi_dsub+0x13a>
 80021d4:	e101      	b.n	80023da <__aeabi_dsub+0x33e>
 80021d6:	2601      	movs	r6, #1
 80021d8:	4643      	mov	r3, r8
 80021da:	4986      	ldr	r1, [pc, #536]	@ (80023f4 <__aeabi_dsub+0x358>)
 80021dc:	08ed      	lsrs	r5, r5, #3
 80021de:	4021      	ands	r1, r4
 80021e0:	074a      	lsls	r2, r1, #29
 80021e2:	432a      	orrs	r2, r5
 80021e4:	057c      	lsls	r4, r7, #21
 80021e6:	024d      	lsls	r5, r1, #9
 80021e8:	0b2d      	lsrs	r5, r5, #12
 80021ea:	0d64      	lsrs	r4, r4, #21
 80021ec:	401e      	ands	r6, r3
 80021ee:	0524      	lsls	r4, r4, #20
 80021f0:	432c      	orrs	r4, r5
 80021f2:	07f6      	lsls	r6, r6, #31
 80021f4:	4334      	orrs	r4, r6
 80021f6:	0010      	movs	r0, r2
 80021f8:	0021      	movs	r1, r4
 80021fa:	b005      	add	sp, #20
 80021fc:	bcf0      	pop	{r4, r5, r6, r7}
 80021fe:	46bb      	mov	fp, r7
 8002200:	46b2      	mov	sl, r6
 8002202:	46a9      	mov	r9, r5
 8002204:	46a0      	mov	r8, r4
 8002206:	bdf0      	pop	{r4, r5, r6, r7, pc}
 8002208:	2d00      	cmp	r5, #0
 800220a:	dc00      	bgt.n	800220e <__aeabi_dsub+0x172>
 800220c:	e2d0      	b.n	80027b0 <__aeabi_dsub+0x714>
 800220e:	4649      	mov	r1, r9
 8002210:	2900      	cmp	r1, #0
 8002212:	d000      	beq.n	8002216 <__aeabi_dsub+0x17a>
 8002214:	e0d4      	b.n	80023c0 <__aeabi_dsub+0x324>
 8002216:	4661      	mov	r1, ip
 8002218:	9b02      	ldr	r3, [sp, #8]
 800221a:	4319      	orrs	r1, r3
 800221c:	d100      	bne.n	8002220 <__aeabi_dsub+0x184>
 800221e:	e12b      	b.n	8002478 <__aeabi_dsub+0x3dc>
 8002220:	1e69      	subs	r1, r5, #1
 8002222:	2d01      	cmp	r5, #1
 8002224:	d100      	bne.n	8002228 <__aeabi_dsub+0x18c>
 8002226:	e1d9      	b.n	80025dc <__aeabi_dsub+0x540>
 8002228:	4295      	cmp	r5, r2
 800222a:	d100      	bne.n	800222e <__aeabi_dsub+0x192>
 800222c:	e10a      	b.n	8002444 <__aeabi_dsub+0x3a8>
 800222e:	2501      	movs	r5, #1
 8002230:	2938      	cmp	r1, #56	@ 0x38
 8002232:	dc17      	bgt.n	8002264 <__aeabi_dsub+0x1c8>
 8002234:	468a      	mov	sl, r1
 8002236:	4653      	mov	r3, sl
 8002238:	2b1f      	cmp	r3, #31
 800223a:	dd00      	ble.n	800223e <__aeabi_dsub+0x1a2>
 800223c:	e1e7      	b.n	800260e <__aeabi_dsub+0x572>
 800223e:	2220      	movs	r2, #32
 8002240:	1ad2      	subs	r2, r2, r3
 8002242:	9b02      	ldr	r3, [sp, #8]
 8002244:	4661      	mov	r1, ip
 8002246:	4093      	lsls	r3, r2
 8002248:	001d      	movs	r5, r3
 800224a:	4653      	mov	r3, sl
 800224c:	40d9      	lsrs	r1, r3
 800224e:	4663      	mov	r3, ip
 8002250:	4093      	lsls	r3, r2
 8002252:	001a      	movs	r2, r3
 8002254:	430d      	orrs	r5, r1
 8002256:	1e51      	subs	r1, r2, #1
 8002258:	418a      	sbcs	r2, r1
 800225a:	4653      	mov	r3, sl
 800225c:	4315      	orrs	r5, r2
 800225e:	9a02      	ldr	r2, [sp, #8]
 8002260:	40da      	lsrs	r2, r3
 8002262:	18a4      	adds	r4, r4, r2
 8002264:	182d      	adds	r5, r5, r0
 8002266:	4285      	cmp	r5, r0
 8002268:	4180      	sbcs	r0, r0
 800226a:	4240      	negs	r0, r0
 800226c:	1824      	adds	r4, r4, r0
 800226e:	0223      	lsls	r3, r4, #8
 8002270:	d400      	bmi.n	8002274 <__aeabi_dsub+0x1d8>
 8002272:	e0b6      	b.n	80023e2 <__aeabi_dsub+0x346>
 8002274:	4b5e      	ldr	r3, [pc, #376]	@ (80023f0 <__aeabi_dsub+0x354>)
 8002276:	3701      	adds	r7, #1
 8002278:	429f      	cmp	r7, r3
 800227a:	d100      	bne.n	800227e <__aeabi_dsub+0x1e2>
 800227c:	e0ad      	b.n	80023da <__aeabi_dsub+0x33e>
 800227e:	2101      	movs	r1, #1
 8002280:	4b5c      	ldr	r3, [pc, #368]	@ (80023f4 <__aeabi_dsub+0x358>)
 8002282:	086a      	lsrs	r2, r5, #1
 8002284:	401c      	ands	r4, r3
 8002286:	4029      	ands	r1, r5
 8002288:	430a      	orrs	r2, r1
 800228a:	07e5      	lsls	r5, r4, #31
 800228c:	4315      	orrs	r5, r2
 800228e:	0864      	lsrs	r4, r4, #1
 8002290:	e78d      	b.n	80021ae <__aeabi_dsub+0x112>
 8002292:	4a59      	ldr	r2, [pc, #356]	@ (80023f8 <__aeabi_dsub+0x35c>)
 8002294:	9b02      	ldr	r3, [sp, #8]
 8002296:	4692      	mov	sl, r2
 8002298:	4662      	mov	r2, ip
 800229a:	44ba      	add	sl, r7
 800229c:	431a      	orrs	r2, r3
 800229e:	d02c      	beq.n	80022fa <__aeabi_dsub+0x25e>
 80022a0:	428e      	cmp	r6, r1
 80022a2:	d02e      	beq.n	8002302 <__aeabi_dsub+0x266>
 80022a4:	4652      	mov	r2, sl
 80022a6:	2a00      	cmp	r2, #0
 80022a8:	d060      	beq.n	800236c <__aeabi_dsub+0x2d0>
 80022aa:	2f00      	cmp	r7, #0
 80022ac:	d100      	bne.n	80022b0 <__aeabi_dsub+0x214>
 80022ae:	e0db      	b.n	8002468 <__aeabi_dsub+0x3cc>
 80022b0:	4663      	mov	r3, ip
 80022b2:	000e      	movs	r6, r1
 80022b4:	9c02      	ldr	r4, [sp, #8]
 80022b6:	08d8      	lsrs	r0, r3, #3
 80022b8:	0762      	lsls	r2, r4, #29
 80022ba:	4302      	orrs	r2, r0
 80022bc:	08e4      	lsrs	r4, r4, #3
 80022be:	0013      	movs	r3, r2
 80022c0:	4323      	orrs	r3, r4
 80022c2:	d100      	bne.n	80022c6 <__aeabi_dsub+0x22a>
 80022c4:	e254      	b.n	8002770 <__aeabi_dsub+0x6d4>
 80022c6:	2580      	movs	r5, #128	@ 0x80
 80022c8:	032d      	lsls	r5, r5, #12
 80022ca:	4325      	orrs	r5, r4
 80022cc:	032d      	lsls	r5, r5, #12
 80022ce:	4c48      	ldr	r4, [pc, #288]	@ (80023f0 <__aeabi_dsub+0x354>)
 80022d0:	0b2d      	lsrs	r5, r5, #12
 80022d2:	e78c      	b.n	80021ee <__aeabi_dsub+0x152>
 80022d4:	4661      	mov	r1, ip
 80022d6:	9b02      	ldr	r3, [sp, #8]
 80022d8:	4319      	orrs	r1, r3
 80022da:	d100      	bne.n	80022de <__aeabi_dsub+0x242>
 80022dc:	e0cc      	b.n	8002478 <__aeabi_dsub+0x3dc>
 80022de:	0029      	movs	r1, r5
 80022e0:	3901      	subs	r1, #1
 80022e2:	2d01      	cmp	r5, #1
 80022e4:	d100      	bne.n	80022e8 <__aeabi_dsub+0x24c>
 80022e6:	e188      	b.n	80025fa <__aeabi_dsub+0x55e>
 80022e8:	4295      	cmp	r5, r2
 80022ea:	d100      	bne.n	80022ee <__aeabi_dsub+0x252>
 80022ec:	e0aa      	b.n	8002444 <__aeabi_dsub+0x3a8>
 80022ee:	2501      	movs	r5, #1
 80022f0:	2938      	cmp	r1, #56	@ 0x38
 80022f2:	dd00      	ble.n	80022f6 <__aeabi_dsub+0x25a>
 80022f4:	e72f      	b.n	8002156 <__aeabi_dsub+0xba>
 80022f6:	468a      	mov	sl, r1
 80022f8:	e718      	b.n	800212c <__aeabi_dsub+0x90>
 80022fa:	2201      	movs	r2, #1
 80022fc:	4051      	eors	r1, r2
 80022fe:	428e      	cmp	r6, r1
 8002300:	d1d0      	bne.n	80022a4 <__aeabi_dsub+0x208>
 8002302:	4653      	mov	r3, sl
 8002304:	2b00      	cmp	r3, #0
 8002306:	d100      	bne.n	800230a <__aeabi_dsub+0x26e>
 8002308:	e0be      	b.n	8002488 <__aeabi_dsub+0x3ec>
 800230a:	2f00      	cmp	r7, #0
 800230c:	d000      	beq.n	8002310 <__aeabi_dsub+0x274>
 800230e:	e138      	b.n	8002582 <__aeabi_dsub+0x4e6>
 8002310:	46ca      	mov	sl, r9
 8002312:	0022      	movs	r2, r4
 8002314:	4302      	orrs	r2, r0
 8002316:	d100      	bne.n	800231a <__aeabi_dsub+0x27e>
 8002318:	e1e2      	b.n	80026e0 <__aeabi_dsub+0x644>
 800231a:	4653      	mov	r3, sl
 800231c:	1e59      	subs	r1, r3, #1
 800231e:	2b01      	cmp	r3, #1
 8002320:	d100      	bne.n	8002324 <__aeabi_dsub+0x288>
 8002322:	e20d      	b.n	8002740 <__aeabi_dsub+0x6a4>
 8002324:	4a32      	ldr	r2, [pc, #200]	@ (80023f0 <__aeabi_dsub+0x354>)
 8002326:	4592      	cmp	sl, r2
 8002328:	d100      	bne.n	800232c <__aeabi_dsub+0x290>
 800232a:	e1d2      	b.n	80026d2 <__aeabi_dsub+0x636>
 800232c:	2701      	movs	r7, #1
 800232e:	2938      	cmp	r1, #56	@ 0x38
 8002330:	dc13      	bgt.n	800235a <__aeabi_dsub+0x2be>
 8002332:	291f      	cmp	r1, #31
 8002334:	dd00      	ble.n	8002338 <__aeabi_dsub+0x29c>
 8002336:	e1ee      	b.n	8002716 <__aeabi_dsub+0x67a>
 8002338:	2220      	movs	r2, #32
 800233a:	9b02      	ldr	r3, [sp, #8]
 800233c:	1a52      	subs	r2, r2, r1
 800233e:	0025      	movs	r5, r4
 8002340:	0007      	movs	r7, r0
 8002342:	469a      	mov	sl, r3
 8002344:	40cc      	lsrs	r4, r1
 8002346:	4090      	lsls	r0, r2
 8002348:	4095      	lsls	r5, r2
 800234a:	40cf      	lsrs	r7, r1
 800234c:	44a2      	add	sl, r4
 800234e:	1e42      	subs	r2, r0, #1
 8002350:	4190      	sbcs	r0, r2
 8002352:	4653      	mov	r3, sl
 8002354:	432f      	orrs	r7, r5
 8002356:	4307      	orrs	r7, r0
 8002358:	9302      	str	r3, [sp, #8]
 800235a:	003d      	movs	r5, r7
 800235c:	4465      	add	r5, ip
 800235e:	4565      	cmp	r5, ip
 8002360:	4192      	sbcs	r2, r2
 8002362:	9b02      	ldr	r3, [sp, #8]
 8002364:	4252      	negs	r2, r2
 8002366:	464f      	mov	r7, r9
 8002368:	18d4      	adds	r4, r2, r3
 800236a:	e780      	b.n	800226e <__aeabi_dsub+0x1d2>
 800236c:	4a23      	ldr	r2, [pc, #140]	@ (80023fc <__aeabi_dsub+0x360>)
 800236e:	1c7d      	adds	r5, r7, #1
 8002370:	4215      	tst	r5, r2
 8002372:	d000      	beq.n	8002376 <__aeabi_dsub+0x2da>
 8002374:	e0aa      	b.n	80024cc <__aeabi_dsub+0x430>
 8002376:	4662      	mov	r2, ip
 8002378:	0025      	movs	r5, r4
 800237a:	9b02      	ldr	r3, [sp, #8]
 800237c:	4305      	orrs	r5, r0
 800237e:	431a      	orrs	r2, r3
 8002380:	2f00      	cmp	r7, #0
 8002382:	d000      	beq.n	8002386 <__aeabi_dsub+0x2ea>
 8002384:	e0f5      	b.n	8002572 <__aeabi_dsub+0x4d6>
 8002386:	2d00      	cmp	r5, #0
 8002388:	d100      	bne.n	800238c <__aeabi_dsub+0x2f0>
 800238a:	e16b      	b.n	8002664 <__aeabi_dsub+0x5c8>
 800238c:	2a00      	cmp	r2, #0
 800238e:	d100      	bne.n	8002392 <__aeabi_dsub+0x2f6>
 8002390:	e152      	b.n	8002638 <__aeabi_dsub+0x59c>
 8002392:	4663      	mov	r3, ip
 8002394:	1ac5      	subs	r5, r0, r3
 8002396:	9b02      	ldr	r3, [sp, #8]
 8002398:	1ae2      	subs	r2, r4, r3
 800239a:	42a8      	cmp	r0, r5
 800239c:	419b      	sbcs	r3, r3
 800239e:	425b      	negs	r3, r3
 80023a0:	1ad3      	subs	r3, r2, r3
 80023a2:	021a      	lsls	r2, r3, #8
 80023a4:	d400      	bmi.n	80023a8 <__aeabi_dsub+0x30c>
 80023a6:	e1d5      	b.n	8002754 <__aeabi_dsub+0x6b8>
 80023a8:	4663      	mov	r3, ip
 80023aa:	1a1d      	subs	r5, r3, r0
 80023ac:	45ac      	cmp	ip, r5
 80023ae:	4192      	sbcs	r2, r2
 80023b0:	2601      	movs	r6, #1
 80023b2:	9b02      	ldr	r3, [sp, #8]
 80023b4:	4252      	negs	r2, r2
 80023b6:	1b1c      	subs	r4, r3, r4
 80023b8:	4688      	mov	r8, r1
 80023ba:	1aa4      	subs	r4, r4, r2
 80023bc:	400e      	ands	r6, r1
 80023be:	e6f6      	b.n	80021ae <__aeabi_dsub+0x112>
 80023c0:	4297      	cmp	r7, r2
 80023c2:	d03f      	beq.n	8002444 <__aeabi_dsub+0x3a8>
 80023c4:	4652      	mov	r2, sl
 80023c6:	2501      	movs	r5, #1
 80023c8:	2a38      	cmp	r2, #56	@ 0x38
 80023ca:	dd00      	ble.n	80023ce <__aeabi_dsub+0x332>
 80023cc:	e74a      	b.n	8002264 <__aeabi_dsub+0x1c8>
 80023ce:	2280      	movs	r2, #128	@ 0x80
 80023d0:	9b02      	ldr	r3, [sp, #8]
 80023d2:	0412      	lsls	r2, r2, #16
 80023d4:	4313      	orrs	r3, r2
 80023d6:	9302      	str	r3, [sp, #8]
 80023d8:	e72d      	b.n	8002236 <__aeabi_dsub+0x19a>
 80023da:	003c      	movs	r4, r7
 80023dc:	2500      	movs	r5, #0
 80023de:	2200      	movs	r2, #0
 80023e0:	e705      	b.n	80021ee <__aeabi_dsub+0x152>
 80023e2:	2307      	movs	r3, #7
 80023e4:	402b      	ands	r3, r5
 80023e6:	2b00      	cmp	r3, #0
 80023e8:	d000      	beq.n	80023ec <__aeabi_dsub+0x350>
 80023ea:	e6e2      	b.n	80021b2 <__aeabi_dsub+0x116>
 80023ec:	e06b      	b.n	80024c6 <__aeabi_dsub+0x42a>
 80023ee:	46c0      	nop			@ (mov r8, r8)
 80023f0:	000007ff 	.word	0x000007ff
 80023f4:	ff7fffff 	.word	0xff7fffff
 80023f8:	fffff801 	.word	0xfffff801
 80023fc:	000007fe 	.word	0x000007fe
 8002400:	0028      	movs	r0, r5
 8002402:	f000 fb63 	bl	8002acc <__clzsi2>
 8002406:	0003      	movs	r3, r0
 8002408:	3318      	adds	r3, #24
 800240a:	2b1f      	cmp	r3, #31
 800240c:	dc00      	bgt.n	8002410 <__aeabi_dsub+0x374>
 800240e:	e6b4      	b.n	800217a <__aeabi_dsub+0xde>
 8002410:	002a      	movs	r2, r5
 8002412:	3808      	subs	r0, #8
 8002414:	4082      	lsls	r2, r0
 8002416:	429f      	cmp	r7, r3
 8002418:	dd00      	ble.n	800241c <__aeabi_dsub+0x380>
 800241a:	e0b9      	b.n	8002590 <__aeabi_dsub+0x4f4>
 800241c:	1bdb      	subs	r3, r3, r7
 800241e:	1c58      	adds	r0, r3, #1
 8002420:	281f      	cmp	r0, #31
 8002422:	dc00      	bgt.n	8002426 <__aeabi_dsub+0x38a>
 8002424:	e1a0      	b.n	8002768 <__aeabi_dsub+0x6cc>
 8002426:	0015      	movs	r5, r2
 8002428:	3b1f      	subs	r3, #31
 800242a:	40dd      	lsrs	r5, r3
 800242c:	2820      	cmp	r0, #32
 800242e:	d005      	beq.n	800243c <__aeabi_dsub+0x3a0>
 8002430:	2340      	movs	r3, #64	@ 0x40
 8002432:	1a1b      	subs	r3, r3, r0
 8002434:	409a      	lsls	r2, r3
 8002436:	1e53      	subs	r3, r2, #1
 8002438:	419a      	sbcs	r2, r3
 800243a:	4315      	orrs	r5, r2
 800243c:	2307      	movs	r3, #7
 800243e:	2700      	movs	r7, #0
 8002440:	402b      	ands	r3, r5
 8002442:	e7d0      	b.n	80023e6 <__aeabi_dsub+0x34a>
 8002444:	08c0      	lsrs	r0, r0, #3
 8002446:	0762      	lsls	r2, r4, #29
 8002448:	4302      	orrs	r2, r0
 800244a:	08e4      	lsrs	r4, r4, #3
 800244c:	e737      	b.n	80022be <__aeabi_dsub+0x222>
 800244e:	08ea      	lsrs	r2, r5, #3
 8002450:	0763      	lsls	r3, r4, #29
 8002452:	431a      	orrs	r2, r3
 8002454:	4bd3      	ldr	r3, [pc, #844]	@ (80027a4 <__aeabi_dsub+0x708>)
 8002456:	08e4      	lsrs	r4, r4, #3
 8002458:	429f      	cmp	r7, r3
 800245a:	d100      	bne.n	800245e <__aeabi_dsub+0x3c2>
 800245c:	e72f      	b.n	80022be <__aeabi_dsub+0x222>
 800245e:	0324      	lsls	r4, r4, #12
 8002460:	0b25      	lsrs	r5, r4, #12
 8002462:	057c      	lsls	r4, r7, #21
 8002464:	0d64      	lsrs	r4, r4, #21
 8002466:	e6c2      	b.n	80021ee <__aeabi_dsub+0x152>
 8002468:	46ca      	mov	sl, r9
 800246a:	0022      	movs	r2, r4
 800246c:	4302      	orrs	r2, r0
 800246e:	d158      	bne.n	8002522 <__aeabi_dsub+0x486>
 8002470:	4663      	mov	r3, ip
 8002472:	000e      	movs	r6, r1
 8002474:	9c02      	ldr	r4, [sp, #8]
 8002476:	9303      	str	r3, [sp, #12]
 8002478:	9b03      	ldr	r3, [sp, #12]
 800247a:	4657      	mov	r7, sl
 800247c:	08da      	lsrs	r2, r3, #3
 800247e:	e7e7      	b.n	8002450 <__aeabi_dsub+0x3b4>
 8002480:	4cc9      	ldr	r4, [pc, #804]	@ (80027a8 <__aeabi_dsub+0x70c>)
 8002482:	1aff      	subs	r7, r7, r3
 8002484:	4014      	ands	r4, r2
 8002486:	e692      	b.n	80021ae <__aeabi_dsub+0x112>
 8002488:	4dc8      	ldr	r5, [pc, #800]	@ (80027ac <__aeabi_dsub+0x710>)
 800248a:	1c7a      	adds	r2, r7, #1
 800248c:	422a      	tst	r2, r5
 800248e:	d000      	beq.n	8002492 <__aeabi_dsub+0x3f6>
 8002490:	e084      	b.n	800259c <__aeabi_dsub+0x500>
 8002492:	0022      	movs	r2, r4
 8002494:	4302      	orrs	r2, r0
 8002496:	2f00      	cmp	r7, #0
 8002498:	d000      	beq.n	800249c <__aeabi_dsub+0x400>
 800249a:	e0ef      	b.n	800267c <__aeabi_dsub+0x5e0>
 800249c:	2a00      	cmp	r2, #0
 800249e:	d100      	bne.n	80024a2 <__aeabi_dsub+0x406>
 80024a0:	e0e5      	b.n	800266e <__aeabi_dsub+0x5d2>
 80024a2:	4662      	mov	r2, ip
 80024a4:	9902      	ldr	r1, [sp, #8]
 80024a6:	430a      	orrs	r2, r1
 80024a8:	d100      	bne.n	80024ac <__aeabi_dsub+0x410>
 80024aa:	e0c5      	b.n	8002638 <__aeabi_dsub+0x59c>
 80024ac:	4663      	mov	r3, ip
 80024ae:	18c5      	adds	r5, r0, r3
 80024b0:	468c      	mov	ip, r1
 80024b2:	4285      	cmp	r5, r0
 80024b4:	4180      	sbcs	r0, r0
 80024b6:	4464      	add	r4, ip
 80024b8:	4240      	negs	r0, r0
 80024ba:	1824      	adds	r4, r4, r0
 80024bc:	0223      	lsls	r3, r4, #8
 80024be:	d502      	bpl.n	80024c6 <__aeabi_dsub+0x42a>
 80024c0:	4bb9      	ldr	r3, [pc, #740]	@ (80027a8 <__aeabi_dsub+0x70c>)
 80024c2:	3701      	adds	r7, #1
 80024c4:	401c      	ands	r4, r3
 80024c6:	46ba      	mov	sl, r7
 80024c8:	9503      	str	r5, [sp, #12]
 80024ca:	e7d5      	b.n	8002478 <__aeabi_dsub+0x3dc>
 80024cc:	4662      	mov	r2, ip
 80024ce:	1a85      	subs	r5, r0, r2
 80024d0:	42a8      	cmp	r0, r5
 80024d2:	4192      	sbcs	r2, r2
 80024d4:	4252      	negs	r2, r2
 80024d6:	4691      	mov	r9, r2
 80024d8:	9b02      	ldr	r3, [sp, #8]
 80024da:	1ae3      	subs	r3, r4, r3
 80024dc:	001a      	movs	r2, r3
 80024de:	464b      	mov	r3, r9
 80024e0:	1ad2      	subs	r2, r2, r3
 80024e2:	0013      	movs	r3, r2
 80024e4:	4691      	mov	r9, r2
 80024e6:	021a      	lsls	r2, r3, #8
 80024e8:	d46c      	bmi.n	80025c4 <__aeabi_dsub+0x528>
 80024ea:	464a      	mov	r2, r9
 80024ec:	464c      	mov	r4, r9
 80024ee:	432a      	orrs	r2, r5
 80024f0:	d000      	beq.n	80024f4 <__aeabi_dsub+0x458>
 80024f2:	e63a      	b.n	800216a <__aeabi_dsub+0xce>
 80024f4:	2600      	movs	r6, #0
 80024f6:	2400      	movs	r4, #0
 80024f8:	2500      	movs	r5, #0
 80024fa:	e678      	b.n	80021ee <__aeabi_dsub+0x152>
 80024fc:	9902      	ldr	r1, [sp, #8]
 80024fe:	4653      	mov	r3, sl
 8002500:	000d      	movs	r5, r1
 8002502:	3a20      	subs	r2, #32
 8002504:	40d5      	lsrs	r5, r2
 8002506:	2b20      	cmp	r3, #32
 8002508:	d006      	beq.n	8002518 <__aeabi_dsub+0x47c>
 800250a:	2240      	movs	r2, #64	@ 0x40
 800250c:	1ad2      	subs	r2, r2, r3
 800250e:	000b      	movs	r3, r1
 8002510:	4093      	lsls	r3, r2
 8002512:	4662      	mov	r2, ip
 8002514:	431a      	orrs	r2, r3
 8002516:	4693      	mov	fp, r2
 8002518:	465b      	mov	r3, fp
 800251a:	1e5a      	subs	r2, r3, #1
 800251c:	4193      	sbcs	r3, r2
 800251e:	431d      	orrs	r5, r3
 8002520:	e619      	b.n	8002156 <__aeabi_dsub+0xba>
 8002522:	4653      	mov	r3, sl
 8002524:	1e5a      	subs	r2, r3, #1
 8002526:	2b01      	cmp	r3, #1
 8002528:	d100      	bne.n	800252c <__aeabi_dsub+0x490>
 800252a:	e0c6      	b.n	80026ba <__aeabi_dsub+0x61e>
 800252c:	4e9d      	ldr	r6, [pc, #628]	@ (80027a4 <__aeabi_dsub+0x708>)
 800252e:	45b2      	cmp	sl, r6
 8002530:	d100      	bne.n	8002534 <__aeabi_dsub+0x498>
 8002532:	e6bd      	b.n	80022b0 <__aeabi_dsub+0x214>
 8002534:	4688      	mov	r8, r1
 8002536:	000e      	movs	r6, r1
 8002538:	2501      	movs	r5, #1
 800253a:	2a38      	cmp	r2, #56	@ 0x38
 800253c:	dc10      	bgt.n	8002560 <__aeabi_dsub+0x4c4>
 800253e:	2a1f      	cmp	r2, #31
 8002540:	dc7f      	bgt.n	8002642 <__aeabi_dsub+0x5a6>
 8002542:	2120      	movs	r1, #32
 8002544:	0025      	movs	r5, r4
 8002546:	1a89      	subs	r1, r1, r2
 8002548:	0007      	movs	r7, r0
 800254a:	4088      	lsls	r0, r1
 800254c:	408d      	lsls	r5, r1
 800254e:	40d7      	lsrs	r7, r2
 8002550:	40d4      	lsrs	r4, r2
 8002552:	1e41      	subs	r1, r0, #1
 8002554:	4188      	sbcs	r0, r1
 8002556:	9b02      	ldr	r3, [sp, #8]
 8002558:	433d      	orrs	r5, r7
 800255a:	1b1b      	subs	r3, r3, r4
 800255c:	4305      	orrs	r5, r0
 800255e:	9302      	str	r3, [sp, #8]
 8002560:	4662      	mov	r2, ip
 8002562:	1b55      	subs	r5, r2, r5
 8002564:	45ac      	cmp	ip, r5
 8002566:	4192      	sbcs	r2, r2
 8002568:	9b02      	ldr	r3, [sp, #8]
 800256a:	4252      	negs	r2, r2
 800256c:	464f      	mov	r7, r9
 800256e:	1a9c      	subs	r4, r3, r2
 8002570:	e5f6      	b.n	8002160 <__aeabi_dsub+0xc4>
 8002572:	2d00      	cmp	r5, #0
 8002574:	d000      	beq.n	8002578 <__aeabi_dsub+0x4dc>
 8002576:	e0b7      	b.n	80026e8 <__aeabi_dsub+0x64c>
 8002578:	2a00      	cmp	r2, #0
 800257a:	d100      	bne.n	800257e <__aeabi_dsub+0x4e2>
 800257c:	e0f0      	b.n	8002760 <__aeabi_dsub+0x6c4>
 800257e:	2601      	movs	r6, #1
 8002580:	400e      	ands	r6, r1
 8002582:	4663      	mov	r3, ip
 8002584:	9802      	ldr	r0, [sp, #8]
 8002586:	08d9      	lsrs	r1, r3, #3
 8002588:	0742      	lsls	r2, r0, #29
 800258a:	430a      	orrs	r2, r1
 800258c:	08c4      	lsrs	r4, r0, #3
 800258e:	e696      	b.n	80022be <__aeabi_dsub+0x222>
 8002590:	4c85      	ldr	r4, [pc, #532]	@ (80027a8 <__aeabi_dsub+0x70c>)
 8002592:	1aff      	subs	r7, r7, r3
 8002594:	4014      	ands	r4, r2
 8002596:	0762      	lsls	r2, r4, #29
 8002598:	08e4      	lsrs	r4, r4, #3
 800259a:	e760      	b.n	800245e <__aeabi_dsub+0x3c2>
 800259c:	4981      	ldr	r1, [pc, #516]	@ (80027a4 <__aeabi_dsub+0x708>)
 800259e:	428a      	cmp	r2, r1
 80025a0:	d100      	bne.n	80025a4 <__aeabi_dsub+0x508>
 80025a2:	e0c9      	b.n	8002738 <__aeabi_dsub+0x69c>
 80025a4:	4663      	mov	r3, ip
 80025a6:	18c1      	adds	r1, r0, r3
 80025a8:	4281      	cmp	r1, r0
 80025aa:	4180      	sbcs	r0, r0
 80025ac:	9b02      	ldr	r3, [sp, #8]
 80025ae:	4240      	negs	r0, r0
 80025b0:	18e3      	adds	r3, r4, r3
 80025b2:	181b      	adds	r3, r3, r0
 80025b4:	07dd      	lsls	r5, r3, #31
 80025b6:	085c      	lsrs	r4, r3, #1
 80025b8:	2307      	movs	r3, #7
 80025ba:	0849      	lsrs	r1, r1, #1
 80025bc:	430d      	orrs	r5, r1
 80025be:	0017      	movs	r7, r2
 80025c0:	402b      	ands	r3, r5
 80025c2:	e710      	b.n	80023e6 <__aeabi_dsub+0x34a>
 80025c4:	4663      	mov	r3, ip
 80025c6:	1a1d      	subs	r5, r3, r0
 80025c8:	45ac      	cmp	ip, r5
 80025ca:	4192      	sbcs	r2, r2
 80025cc:	2601      	movs	r6, #1
 80025ce:	9b02      	ldr	r3, [sp, #8]
 80025d0:	4252      	negs	r2, r2
 80025d2:	1b1c      	subs	r4, r3, r4
 80025d4:	4688      	mov	r8, r1
 80025d6:	1aa4      	subs	r4, r4, r2
 80025d8:	400e      	ands	r6, r1
 80025da:	e5c6      	b.n	800216a <__aeabi_dsub+0xce>
 80025dc:	4663      	mov	r3, ip
 80025de:	18c5      	adds	r5, r0, r3
 80025e0:	9b02      	ldr	r3, [sp, #8]
 80025e2:	4285      	cmp	r5, r0
 80025e4:	4180      	sbcs	r0, r0
 80025e6:	469c      	mov	ip, r3
 80025e8:	4240      	negs	r0, r0
 80025ea:	4464      	add	r4, ip
 80025ec:	1824      	adds	r4, r4, r0
 80025ee:	2701      	movs	r7, #1
 80025f0:	0223      	lsls	r3, r4, #8
 80025f2:	d400      	bmi.n	80025f6 <__aeabi_dsub+0x55a>
 80025f4:	e6f5      	b.n	80023e2 <__aeabi_dsub+0x346>
 80025f6:	2702      	movs	r7, #2
 80025f8:	e641      	b.n	800227e <__aeabi_dsub+0x1e2>
 80025fa:	4663      	mov	r3, ip
 80025fc:	1ac5      	subs	r5, r0, r3
 80025fe:	42a8      	cmp	r0, r5
 8002600:	4180      	sbcs	r0, r0
 8002602:	9b02      	ldr	r3, [sp, #8]
 8002604:	4240      	negs	r0, r0
 8002606:	1ae4      	subs	r4, r4, r3
 8002608:	2701      	movs	r7, #1
 800260a:	1a24      	subs	r4, r4, r0
 800260c:	e5a8      	b.n	8002160 <__aeabi_dsub+0xc4>
 800260e:	9d02      	ldr	r5, [sp, #8]
 8002610:	4652      	mov	r2, sl
 8002612:	002b      	movs	r3, r5
 8002614:	3a20      	subs	r2, #32
 8002616:	40d3      	lsrs	r3, r2
 8002618:	0019      	movs	r1, r3
 800261a:	4653      	mov	r3, sl
 800261c:	2b20      	cmp	r3, #32
 800261e:	d006      	beq.n	800262e <__aeabi_dsub+0x592>
 8002620:	2240      	movs	r2, #64	@ 0x40
 8002622:	1ad2      	subs	r2, r2, r3
 8002624:	002b      	movs	r3, r5
 8002626:	4093      	lsls	r3, r2
 8002628:	4662      	mov	r2, ip
 800262a:	431a      	orrs	r2, r3
 800262c:	4693      	mov	fp, r2
 800262e:	465d      	mov	r5, fp
 8002630:	1e6b      	subs	r3, r5, #1
 8002632:	419d      	sbcs	r5, r3
 8002634:	430d      	orrs	r5, r1
 8002636:	e615      	b.n	8002264 <__aeabi_dsub+0x1c8>
 8002638:	0762      	lsls	r2, r4, #29
 800263a:	08c0      	lsrs	r0, r0, #3
 800263c:	4302      	orrs	r2, r0
 800263e:	08e4      	lsrs	r4, r4, #3
 8002640:	e70d      	b.n	800245e <__aeabi_dsub+0x3c2>
 8002642:	0011      	movs	r1, r2
 8002644:	0027      	movs	r7, r4
 8002646:	3920      	subs	r1, #32
 8002648:	40cf      	lsrs	r7, r1
 800264a:	2a20      	cmp	r2, #32
 800264c:	d005      	beq.n	800265a <__aeabi_dsub+0x5be>
 800264e:	2140      	movs	r1, #64	@ 0x40
 8002650:	1a8a      	subs	r2, r1, r2
 8002652:	4094      	lsls	r4, r2
 8002654:	0025      	movs	r5, r4
 8002656:	4305      	orrs	r5, r0
 8002658:	9503      	str	r5, [sp, #12]
 800265a:	9d03      	ldr	r5, [sp, #12]
 800265c:	1e6a      	subs	r2, r5, #1
 800265e:	4195      	sbcs	r5, r2
 8002660:	433d      	orrs	r5, r7
 8002662:	e77d      	b.n	8002560 <__aeabi_dsub+0x4c4>
 8002664:	2a00      	cmp	r2, #0
 8002666:	d100      	bne.n	800266a <__aeabi_dsub+0x5ce>
 8002668:	e744      	b.n	80024f4 <__aeabi_dsub+0x458>
 800266a:	2601      	movs	r6, #1
 800266c:	400e      	ands	r6, r1
 800266e:	4663      	mov	r3, ip
 8002670:	08d9      	lsrs	r1, r3, #3
 8002672:	9b02      	ldr	r3, [sp, #8]
 8002674:	075a      	lsls	r2, r3, #29
 8002676:	430a      	orrs	r2, r1
 8002678:	08dc      	lsrs	r4, r3, #3
 800267a:	e6f0      	b.n	800245e <__aeabi_dsub+0x3c2>
 800267c:	2a00      	cmp	r2, #0
 800267e:	d028      	beq.n	80026d2 <__aeabi_dsub+0x636>
 8002680:	4662      	mov	r2, ip
 8002682:	9f02      	ldr	r7, [sp, #8]
 8002684:	08c0      	lsrs	r0, r0, #3
 8002686:	433a      	orrs	r2, r7
 8002688:	d100      	bne.n	800268c <__aeabi_dsub+0x5f0>
 800268a:	e6dc      	b.n	8002446 <__aeabi_dsub+0x3aa>
 800268c:	0762      	lsls	r2, r4, #29
 800268e:	4310      	orrs	r0, r2
 8002690:	2280      	movs	r2, #128	@ 0x80
 8002692:	08e4      	lsrs	r4, r4, #3
 8002694:	0312      	lsls	r2, r2, #12
 8002696:	4214      	tst	r4, r2
 8002698:	d009      	beq.n	80026ae <__aeabi_dsub+0x612>
 800269a:	08fd      	lsrs	r5, r7, #3
 800269c:	4215      	tst	r5, r2
 800269e:	d106      	bne.n	80026ae <__aeabi_dsub+0x612>
 80026a0:	4663      	mov	r3, ip
 80026a2:	2601      	movs	r6, #1
 80026a4:	002c      	movs	r4, r5
 80026a6:	08d8      	lsrs	r0, r3, #3
 80026a8:	077b      	lsls	r3, r7, #29
 80026aa:	4318      	orrs	r0, r3
 80026ac:	400e      	ands	r6, r1
 80026ae:	0f42      	lsrs	r2, r0, #29
 80026b0:	00c0      	lsls	r0, r0, #3
 80026b2:	08c0      	lsrs	r0, r0, #3
 80026b4:	0752      	lsls	r2, r2, #29
 80026b6:	4302      	orrs	r2, r0
 80026b8:	e601      	b.n	80022be <__aeabi_dsub+0x222>
 80026ba:	4663      	mov	r3, ip
 80026bc:	1a1d      	subs	r5, r3, r0
 80026be:	45ac      	cmp	ip, r5
 80026c0:	4192      	sbcs	r2, r2
 80026c2:	9b02      	ldr	r3, [sp, #8]
 80026c4:	4252      	negs	r2, r2
 80026c6:	1b1c      	subs	r4, r3, r4
 80026c8:	000e      	movs	r6, r1
 80026ca:	4688      	mov	r8, r1
 80026cc:	2701      	movs	r7, #1
 80026ce:	1aa4      	subs	r4, r4, r2
 80026d0:	e546      	b.n	8002160 <__aeabi_dsub+0xc4>
 80026d2:	4663      	mov	r3, ip
 80026d4:	08d9      	lsrs	r1, r3, #3
 80026d6:	9b02      	ldr	r3, [sp, #8]
 80026d8:	075a      	lsls	r2, r3, #29
 80026da:	430a      	orrs	r2, r1
 80026dc:	08dc      	lsrs	r4, r3, #3
 80026de:	e5ee      	b.n	80022be <__aeabi_dsub+0x222>
 80026e0:	4663      	mov	r3, ip
 80026e2:	9c02      	ldr	r4, [sp, #8]
 80026e4:	9303      	str	r3, [sp, #12]
 80026e6:	e6c7      	b.n	8002478 <__aeabi_dsub+0x3dc>
 80026e8:	08c0      	lsrs	r0, r0, #3
 80026ea:	2a00      	cmp	r2, #0
 80026ec:	d100      	bne.n	80026f0 <__aeabi_dsub+0x654>
 80026ee:	e6aa      	b.n	8002446 <__aeabi_dsub+0x3aa>
 80026f0:	0762      	lsls	r2, r4, #29
 80026f2:	4310      	orrs	r0, r2
 80026f4:	2280      	movs	r2, #128	@ 0x80
 80026f6:	08e4      	lsrs	r4, r4, #3
 80026f8:	0312      	lsls	r2, r2, #12
 80026fa:	4214      	tst	r4, r2
 80026fc:	d0d7      	beq.n	80026ae <__aeabi_dsub+0x612>
 80026fe:	9f02      	ldr	r7, [sp, #8]
 8002700:	08fd      	lsrs	r5, r7, #3
 8002702:	4215      	tst	r5, r2
 8002704:	d1d3      	bne.n	80026ae <__aeabi_dsub+0x612>
 8002706:	4663      	mov	r3, ip
 8002708:	2601      	movs	r6, #1
 800270a:	08d8      	lsrs	r0, r3, #3
 800270c:	077b      	lsls	r3, r7, #29
 800270e:	002c      	movs	r4, r5
 8002710:	4318      	orrs	r0, r3
 8002712:	400e      	ands	r6, r1
 8002714:	e7cb      	b.n	80026ae <__aeabi_dsub+0x612>
 8002716:	000a      	movs	r2, r1
 8002718:	0027      	movs	r7, r4
 800271a:	3a20      	subs	r2, #32
 800271c:	40d7      	lsrs	r7, r2
 800271e:	2920      	cmp	r1, #32
 8002720:	d005      	beq.n	800272e <__aeabi_dsub+0x692>
 8002722:	2240      	movs	r2, #64	@ 0x40
 8002724:	1a52      	subs	r2, r2, r1
 8002726:	4094      	lsls	r4, r2
 8002728:	0025      	movs	r5, r4
 800272a:	4305      	orrs	r5, r0
 800272c:	9503      	str	r5, [sp, #12]
 800272e:	9d03      	ldr	r5, [sp, #12]
 8002730:	1e6a      	subs	r2, r5, #1
 8002732:	4195      	sbcs	r5, r2
 8002734:	432f      	orrs	r7, r5
 8002736:	e610      	b.n	800235a <__aeabi_dsub+0x2be>
 8002738:	0014      	movs	r4, r2
 800273a:	2500      	movs	r5, #0
 800273c:	2200      	movs	r2, #0
 800273e:	e556      	b.n	80021ee <__aeabi_dsub+0x152>
 8002740:	9b02      	ldr	r3, [sp, #8]
 8002742:	4460      	add	r0, ip
 8002744:	4699      	mov	r9, r3
 8002746:	4560      	cmp	r0, ip
 8002748:	4192      	sbcs	r2, r2
 800274a:	444c      	add	r4, r9
 800274c:	4252      	negs	r2, r2
 800274e:	0005      	movs	r5, r0
 8002750:	18a4      	adds	r4, r4, r2
 8002752:	e74c      	b.n	80025ee <__aeabi_dsub+0x552>
 8002754:	001a      	movs	r2, r3
 8002756:	001c      	movs	r4, r3
 8002758:	432a      	orrs	r2, r5
 800275a:	d000      	beq.n	800275e <__aeabi_dsub+0x6c2>
 800275c:	e6b3      	b.n	80024c6 <__aeabi_dsub+0x42a>
 800275e:	e6c9      	b.n	80024f4 <__aeabi_dsub+0x458>
 8002760:	2480      	movs	r4, #128	@ 0x80
 8002762:	2600      	movs	r6, #0
 8002764:	0324      	lsls	r4, r4, #12
 8002766:	e5ae      	b.n	80022c6 <__aeabi_dsub+0x22a>
 8002768:	2120      	movs	r1, #32
 800276a:	2500      	movs	r5, #0
 800276c:	1a09      	subs	r1, r1, r0
 800276e:	e517      	b.n	80021a0 <__aeabi_dsub+0x104>
 8002770:	2200      	movs	r2, #0
 8002772:	2500      	movs	r5, #0
 8002774:	4c0b      	ldr	r4, [pc, #44]	@ (80027a4 <__aeabi_dsub+0x708>)
 8002776:	e53a      	b.n	80021ee <__aeabi_dsub+0x152>
 8002778:	2d00      	cmp	r5, #0
 800277a:	d100      	bne.n	800277e <__aeabi_dsub+0x6e2>
 800277c:	e5f6      	b.n	800236c <__aeabi_dsub+0x2d0>
 800277e:	464b      	mov	r3, r9
 8002780:	1bda      	subs	r2, r3, r7
 8002782:	4692      	mov	sl, r2
 8002784:	2f00      	cmp	r7, #0
 8002786:	d100      	bne.n	800278a <__aeabi_dsub+0x6ee>
 8002788:	e66f      	b.n	800246a <__aeabi_dsub+0x3ce>
 800278a:	2a38      	cmp	r2, #56	@ 0x38
 800278c:	dc05      	bgt.n	800279a <__aeabi_dsub+0x6fe>
 800278e:	2680      	movs	r6, #128	@ 0x80
 8002790:	0436      	lsls	r6, r6, #16
 8002792:	4334      	orrs	r4, r6
 8002794:	4688      	mov	r8, r1
 8002796:	000e      	movs	r6, r1
 8002798:	e6d1      	b.n	800253e <__aeabi_dsub+0x4a2>
 800279a:	4688      	mov	r8, r1
 800279c:	000e      	movs	r6, r1
 800279e:	2501      	movs	r5, #1
 80027a0:	e6de      	b.n	8002560 <__aeabi_dsub+0x4c4>
 80027a2:	46c0      	nop			@ (mov r8, r8)
 80027a4:	000007ff 	.word	0x000007ff
 80027a8:	ff7fffff 	.word	0xff7fffff
 80027ac:	000007fe 	.word	0x000007fe
 80027b0:	2d00      	cmp	r5, #0
 80027b2:	d100      	bne.n	80027b6 <__aeabi_dsub+0x71a>
 80027b4:	e668      	b.n	8002488 <__aeabi_dsub+0x3ec>
 80027b6:	464b      	mov	r3, r9
 80027b8:	1bd9      	subs	r1, r3, r7
 80027ba:	2f00      	cmp	r7, #0
 80027bc:	d101      	bne.n	80027c2 <__aeabi_dsub+0x726>
 80027be:	468a      	mov	sl, r1
 80027c0:	e5a7      	b.n	8002312 <__aeabi_dsub+0x276>
 80027c2:	2701      	movs	r7, #1
 80027c4:	2938      	cmp	r1, #56	@ 0x38
 80027c6:	dd00      	ble.n	80027ca <__aeabi_dsub+0x72e>
 80027c8:	e5c7      	b.n	800235a <__aeabi_dsub+0x2be>
 80027ca:	2280      	movs	r2, #128	@ 0x80
 80027cc:	0412      	lsls	r2, r2, #16
 80027ce:	4314      	orrs	r4, r2
 80027d0:	e5af      	b.n	8002332 <__aeabi_dsub+0x296>
 80027d2:	46c0      	nop			@ (mov r8, r8)

080027d4 <__aeabi_dcmpun>:
 80027d4:	b5f0      	push	{r4, r5, r6, r7, lr}
 80027d6:	46c6      	mov	lr, r8
 80027d8:	031e      	lsls	r6, r3, #12
 80027da:	0b36      	lsrs	r6, r6, #12
 80027dc:	46b0      	mov	r8, r6
 80027de:	4e0d      	ldr	r6, [pc, #52]	@ (8002814 <__aeabi_dcmpun+0x40>)
 80027e0:	030c      	lsls	r4, r1, #12
 80027e2:	004d      	lsls	r5, r1, #1
 80027e4:	005f      	lsls	r7, r3, #1
 80027e6:	b500      	push	{lr}
 80027e8:	0b24      	lsrs	r4, r4, #12
 80027ea:	0d6d      	lsrs	r5, r5, #21
 80027ec:	0d7f      	lsrs	r7, r7, #21
 80027ee:	42b5      	cmp	r5, r6
 80027f0:	d00b      	beq.n	800280a <__aeabi_dcmpun+0x36>
 80027f2:	4908      	ldr	r1, [pc, #32]	@ (8002814 <__aeabi_dcmpun+0x40>)
 80027f4:	2000      	movs	r0, #0
 80027f6:	428f      	cmp	r7, r1
 80027f8:	d104      	bne.n	8002804 <__aeabi_dcmpun+0x30>
 80027fa:	4646      	mov	r6, r8
 80027fc:	4316      	orrs	r6, r2
 80027fe:	0030      	movs	r0, r6
 8002800:	1e43      	subs	r3, r0, #1
 8002802:	4198      	sbcs	r0, r3
 8002804:	bc80      	pop	{r7}
 8002806:	46b8      	mov	r8, r7
 8002808:	bdf0      	pop	{r4, r5, r6, r7, pc}
 800280a:	4304      	orrs	r4, r0
 800280c:	2001      	movs	r0, #1
 800280e:	2c00      	cmp	r4, #0
 8002810:	d1f8      	bne.n	8002804 <__aeabi_dcmpun+0x30>
 8002812:	e7ee      	b.n	80027f2 <__aeabi_dcmpun+0x1e>
 8002814:	000007ff 	.word	0x000007ff

08002818 <__aeabi_d2iz>:
 8002818:	000b      	movs	r3, r1
 800281a:	0002      	movs	r2, r0
 800281c:	b570      	push	{r4, r5, r6, lr}
 800281e:	4d16      	ldr	r5, [pc, #88]	@ (8002878 <__aeabi_d2iz+0x60>)
 8002820:	030c      	lsls	r4, r1, #12
 8002822:	b082      	sub	sp, #8
 8002824:	0049      	lsls	r1, r1, #1
 8002826:	2000      	movs	r0, #0
 8002828:	9200      	str	r2, [sp, #0]
 800282a:	9301      	str	r3, [sp, #4]
 800282c:	0b24      	lsrs	r4, r4, #12
 800282e:	0d49      	lsrs	r1, r1, #21
 8002830:	0fde      	lsrs	r6, r3, #31
 8002832:	42a9      	cmp	r1, r5
 8002834:	dd04      	ble.n	8002840 <__aeabi_d2iz+0x28>
 8002836:	4811      	ldr	r0, [pc, #68]	@ (800287c <__aeabi_d2iz+0x64>)
 8002838:	4281      	cmp	r1, r0
 800283a:	dd03      	ble.n	8002844 <__aeabi_d2iz+0x2c>
 800283c:	4b10      	ldr	r3, [pc, #64]	@ (8002880 <__aeabi_d2iz+0x68>)
 800283e:	18f0      	adds	r0, r6, r3
 8002840:	b002      	add	sp, #8
 8002842:	bd70      	pop	{r4, r5, r6, pc}
 8002844:	2080      	movs	r0, #128	@ 0x80
 8002846:	0340      	lsls	r0, r0, #13
 8002848:	4320      	orrs	r0, r4
 800284a:	4c0e      	ldr	r4, [pc, #56]	@ (8002884 <__aeabi_d2iz+0x6c>)
 800284c:	1a64      	subs	r4, r4, r1
 800284e:	2c1f      	cmp	r4, #31
 8002850:	dd08      	ble.n	8002864 <__aeabi_d2iz+0x4c>
 8002852:	4b0d      	ldr	r3, [pc, #52]	@ (8002888 <__aeabi_d2iz+0x70>)
 8002854:	1a5b      	subs	r3, r3, r1
 8002856:	40d8      	lsrs	r0, r3
 8002858:	0003      	movs	r3, r0
 800285a:	4258      	negs	r0, r3
 800285c:	2e00      	cmp	r6, #0
 800285e:	d1ef      	bne.n	8002840 <__aeabi_d2iz+0x28>
 8002860:	0018      	movs	r0, r3
 8002862:	e7ed      	b.n	8002840 <__aeabi_d2iz+0x28>
 8002864:	4b09      	ldr	r3, [pc, #36]	@ (800288c <__aeabi_d2iz+0x74>)
 8002866:	9a00      	ldr	r2, [sp, #0]
 8002868:	469c      	mov	ip, r3
 800286a:	0003      	movs	r3, r0
 800286c:	4461      	add	r1, ip
 800286e:	408b      	lsls	r3, r1
 8002870:	40e2      	lsrs	r2, r4
 8002872:	4313      	orrs	r3, r2
 8002874:	e7f1      	b.n	800285a <__aeabi_d2iz+0x42>
 8002876:	46c0      	nop			@ (mov r8, r8)
 8002878:	000003fe 	.word	0x000003fe
 800287c:	0000041d 	.word	0x0000041d
 8002880:	7fffffff 	.word	0x7fffffff
 8002884:	00000433 	.word	0x00000433
 8002888:	00000413 	.word	0x00000413
 800288c:	fffffbed 	.word	0xfffffbed

08002890 <__aeabi_i2d>:
 8002890:	b570      	push	{r4, r5, r6, lr}
 8002892:	2800      	cmp	r0, #0
 8002894:	d016      	beq.n	80028c4 <__aeabi_i2d+0x34>
 8002896:	17c3      	asrs	r3, r0, #31
 8002898:	18c5      	adds	r5, r0, r3
 800289a:	405d      	eors	r5, r3
 800289c:	0fc4      	lsrs	r4, r0, #31
 800289e:	0028      	movs	r0, r5
 80028a0:	f000 f914 	bl	8002acc <__clzsi2>
 80028a4:	4b10      	ldr	r3, [pc, #64]	@ (80028e8 <__aeabi_i2d+0x58>)
 80028a6:	1a1b      	subs	r3, r3, r0
 80028a8:	055b      	lsls	r3, r3, #21
 80028aa:	0d5b      	lsrs	r3, r3, #21
 80028ac:	280a      	cmp	r0, #10
 80028ae:	dc14      	bgt.n	80028da <__aeabi_i2d+0x4a>
 80028b0:	0002      	movs	r2, r0
 80028b2:	002e      	movs	r6, r5
 80028b4:	3215      	adds	r2, #21
 80028b6:	4096      	lsls	r6, r2
 80028b8:	220b      	movs	r2, #11
 80028ba:	1a12      	subs	r2, r2, r0
 80028bc:	40d5      	lsrs	r5, r2
 80028be:	032d      	lsls	r5, r5, #12
 80028c0:	0b2d      	lsrs	r5, r5, #12
 80028c2:	e003      	b.n	80028cc <__aeabi_i2d+0x3c>
 80028c4:	2400      	movs	r4, #0
 80028c6:	2300      	movs	r3, #0
 80028c8:	2500      	movs	r5, #0
 80028ca:	2600      	movs	r6, #0
 80028cc:	051b      	lsls	r3, r3, #20
 80028ce:	432b      	orrs	r3, r5
 80028d0:	07e4      	lsls	r4, r4, #31
 80028d2:	4323      	orrs	r3, r4
 80028d4:	0030      	movs	r0, r6
 80028d6:	0019      	movs	r1, r3
 80028d8:	bd70      	pop	{r4, r5, r6, pc}
 80028da:	380b      	subs	r0, #11
 80028dc:	4085      	lsls	r5, r0
 80028de:	032d      	lsls	r5, r5, #12
 80028e0:	2600      	movs	r6, #0
 80028e2:	0b2d      	lsrs	r5, r5, #12
 80028e4:	e7f2      	b.n	80028cc <__aeabi_i2d+0x3c>
 80028e6:	46c0      	nop			@ (mov r8, r8)
 80028e8:	0000041e 	.word	0x0000041e

080028ec <__aeabi_ui2d>:
 80028ec:	b510      	push	{r4, lr}
 80028ee:	1e04      	subs	r4, r0, #0
 80028f0:	d010      	beq.n	8002914 <__aeabi_ui2d+0x28>
 80028f2:	f000 f8eb 	bl	8002acc <__clzsi2>
 80028f6:	4b0e      	ldr	r3, [pc, #56]	@ (8002930 <__aeabi_ui2d+0x44>)
 80028f8:	1a1b      	subs	r3, r3, r0
 80028fa:	055b      	lsls	r3, r3, #21
 80028fc:	0d5b      	lsrs	r3, r3, #21
 80028fe:	280a      	cmp	r0, #10
 8002900:	dc0f      	bgt.n	8002922 <__aeabi_ui2d+0x36>
 8002902:	220b      	movs	r2, #11
 8002904:	0021      	movs	r1, r4
 8002906:	1a12      	subs	r2, r2, r0
 8002908:	40d1      	lsrs	r1, r2
 800290a:	3015      	adds	r0, #21
 800290c:	030a      	lsls	r2, r1, #12
 800290e:	4084      	lsls	r4, r0
 8002910:	0b12      	lsrs	r2, r2, #12
 8002912:	e001      	b.n	8002918 <__aeabi_ui2d+0x2c>
 8002914:	2300      	movs	r3, #0
 8002916:	2200      	movs	r2, #0
 8002918:	051b      	lsls	r3, r3, #20
 800291a:	4313      	orrs	r3, r2
 800291c:	0020      	movs	r0, r4
 800291e:	0019      	movs	r1, r3
 8002920:	bd10      	pop	{r4, pc}
 8002922:	0022      	movs	r2, r4
 8002924:	380b      	subs	r0, #11
 8002926:	4082      	lsls	r2, r0
 8002928:	0312      	lsls	r2, r2, #12
 800292a:	2400      	movs	r4, #0
 800292c:	0b12      	lsrs	r2, r2, #12
 800292e:	e7f3      	b.n	8002918 <__aeabi_ui2d+0x2c>
 8002930:	0000041e 	.word	0x0000041e

08002934 <__aeabi_f2d>:
 8002934:	b570      	push	{r4, r5, r6, lr}
 8002936:	0242      	lsls	r2, r0, #9
 8002938:	0043      	lsls	r3, r0, #1
 800293a:	0fc4      	lsrs	r4, r0, #31
 800293c:	20fe      	movs	r0, #254	@ 0xfe
 800293e:	0e1b      	lsrs	r3, r3, #24
 8002940:	1c59      	adds	r1, r3, #1
 8002942:	0a55      	lsrs	r5, r2, #9
 8002944:	4208      	tst	r0, r1
 8002946:	d00c      	beq.n	8002962 <__aeabi_f2d+0x2e>
 8002948:	21e0      	movs	r1, #224	@ 0xe0
 800294a:	0089      	lsls	r1, r1, #2
 800294c:	468c      	mov	ip, r1
 800294e:	076d      	lsls	r5, r5, #29
 8002950:	0b12      	lsrs	r2, r2, #12
 8002952:	4463      	add	r3, ip
 8002954:	051b      	lsls	r3, r3, #20
 8002956:	4313      	orrs	r3, r2
 8002958:	07e4      	lsls	r4, r4, #31
 800295a:	4323      	orrs	r3, r4
 800295c:	0028      	movs	r0, r5
 800295e:	0019      	movs	r1, r3
 8002960:	bd70      	pop	{r4, r5, r6, pc}
 8002962:	2b00      	cmp	r3, #0
 8002964:	d114      	bne.n	8002990 <__aeabi_f2d+0x5c>
 8002966:	2d00      	cmp	r5, #0
 8002968:	d01b      	beq.n	80029a2 <__aeabi_f2d+0x6e>
 800296a:	0028      	movs	r0, r5
 800296c:	f000 f8ae 	bl	8002acc <__clzsi2>
 8002970:	280a      	cmp	r0, #10
 8002972:	dc1c      	bgt.n	80029ae <__aeabi_f2d+0x7a>
 8002974:	230b      	movs	r3, #11
 8002976:	002a      	movs	r2, r5
 8002978:	1a1b      	subs	r3, r3, r0
 800297a:	40da      	lsrs	r2, r3
 800297c:	0003      	movs	r3, r0
 800297e:	3315      	adds	r3, #21
 8002980:	409d      	lsls	r5, r3
 8002982:	4b0e      	ldr	r3, [pc, #56]	@ (80029bc <__aeabi_f2d+0x88>)
 8002984:	0312      	lsls	r2, r2, #12
 8002986:	1a1b      	subs	r3, r3, r0
 8002988:	055b      	lsls	r3, r3, #21
 800298a:	0b12      	lsrs	r2, r2, #12
 800298c:	0d5b      	lsrs	r3, r3, #21
 800298e:	e7e1      	b.n	8002954 <__aeabi_f2d+0x20>
 8002990:	2d00      	cmp	r5, #0
 8002992:	d009      	beq.n	80029a8 <__aeabi_f2d+0x74>
 8002994:	0b13      	lsrs	r3, r2, #12
 8002996:	2280      	movs	r2, #128	@ 0x80
 8002998:	0312      	lsls	r2, r2, #12
 800299a:	431a      	orrs	r2, r3
 800299c:	076d      	lsls	r5, r5, #29
 800299e:	4b08      	ldr	r3, [pc, #32]	@ (80029c0 <__aeabi_f2d+0x8c>)
 80029a0:	e7d8      	b.n	8002954 <__aeabi_f2d+0x20>
 80029a2:	2300      	movs	r3, #0
 80029a4:	2200      	movs	r2, #0
 80029a6:	e7d5      	b.n	8002954 <__aeabi_f2d+0x20>
 80029a8:	2200      	movs	r2, #0
 80029aa:	4b05      	ldr	r3, [pc, #20]	@ (80029c0 <__aeabi_f2d+0x8c>)
 80029ac:	e7d2      	b.n	8002954 <__aeabi_f2d+0x20>
 80029ae:	0003      	movs	r3, r0
 80029b0:	002a      	movs	r2, r5
 80029b2:	3b0b      	subs	r3, #11
 80029b4:	409a      	lsls	r2, r3
 80029b6:	2500      	movs	r5, #0
 80029b8:	e7e3      	b.n	8002982 <__aeabi_f2d+0x4e>
 80029ba:	46c0      	nop			@ (mov r8, r8)
 80029bc:	00000389 	.word	0x00000389
 80029c0:	000007ff 	.word	0x000007ff

080029c4 <__aeabi_d2f>:
 80029c4:	b5f0      	push	{r4, r5, r6, r7, lr}
 80029c6:	004b      	lsls	r3, r1, #1
 80029c8:	030f      	lsls	r7, r1, #12
 80029ca:	0d5b      	lsrs	r3, r3, #21
 80029cc:	4c3b      	ldr	r4, [pc, #236]	@ (8002abc <__aeabi_d2f+0xf8>)
 80029ce:	0f45      	lsrs	r5, r0, #29
 80029d0:	b083      	sub	sp, #12
 80029d2:	0a7f      	lsrs	r7, r7, #9
 80029d4:	1c5e      	adds	r6, r3, #1
 80029d6:	432f      	orrs	r7, r5
 80029d8:	9000      	str	r0, [sp, #0]
 80029da:	9101      	str	r1, [sp, #4]
 80029dc:	0fca      	lsrs	r2, r1, #31
 80029de:	00c5      	lsls	r5, r0, #3
 80029e0:	4226      	tst	r6, r4
 80029e2:	d00b      	beq.n	80029fc <__aeabi_d2f+0x38>
 80029e4:	4936      	ldr	r1, [pc, #216]	@ (8002ac0 <__aeabi_d2f+0xfc>)
 80029e6:	185c      	adds	r4, r3, r1
 80029e8:	2cfe      	cmp	r4, #254	@ 0xfe
 80029ea:	dd13      	ble.n	8002a14 <__aeabi_d2f+0x50>
 80029ec:	20ff      	movs	r0, #255	@ 0xff
 80029ee:	2300      	movs	r3, #0
 80029f0:	05c0      	lsls	r0, r0, #23
 80029f2:	4318      	orrs	r0, r3
 80029f4:	07d2      	lsls	r2, r2, #31
 80029f6:	4310      	orrs	r0, r2
 80029f8:	b003      	add	sp, #12
 80029fa:	bdf0      	pop	{r4, r5, r6, r7, pc}
 80029fc:	2b00      	cmp	r3, #0
 80029fe:	d102      	bne.n	8002a06 <__aeabi_d2f+0x42>
 8002a00:	2000      	movs	r0, #0
 8002a02:	2300      	movs	r3, #0
 8002a04:	e7f4      	b.n	80029f0 <__aeabi_d2f+0x2c>
 8002a06:	433d      	orrs	r5, r7
 8002a08:	d0f0      	beq.n	80029ec <__aeabi_d2f+0x28>
 8002a0a:	2380      	movs	r3, #128	@ 0x80
 8002a0c:	03db      	lsls	r3, r3, #15
 8002a0e:	20ff      	movs	r0, #255	@ 0xff
 8002a10:	433b      	orrs	r3, r7
 8002a12:	e7ed      	b.n	80029f0 <__aeabi_d2f+0x2c>
 8002a14:	2c00      	cmp	r4, #0
 8002a16:	dd14      	ble.n	8002a42 <__aeabi_d2f+0x7e>
 8002a18:	9b00      	ldr	r3, [sp, #0]
 8002a1a:	00ff      	lsls	r7, r7, #3
 8002a1c:	019b      	lsls	r3, r3, #6
 8002a1e:	1e58      	subs	r0, r3, #1
 8002a20:	4183      	sbcs	r3, r0
 8002a22:	0f69      	lsrs	r1, r5, #29
 8002a24:	433b      	orrs	r3, r7
 8002a26:	430b      	orrs	r3, r1
 8002a28:	0759      	lsls	r1, r3, #29
 8002a2a:	d041      	beq.n	8002ab0 <__aeabi_d2f+0xec>
 8002a2c:	210f      	movs	r1, #15
 8002a2e:	4019      	ands	r1, r3
 8002a30:	2904      	cmp	r1, #4
 8002a32:	d028      	beq.n	8002a86 <__aeabi_d2f+0xc2>
 8002a34:	3304      	adds	r3, #4
 8002a36:	0159      	lsls	r1, r3, #5
 8002a38:	d525      	bpl.n	8002a86 <__aeabi_d2f+0xc2>
 8002a3a:	3401      	adds	r4, #1
 8002a3c:	2300      	movs	r3, #0
 8002a3e:	b2e0      	uxtb	r0, r4
 8002a40:	e7d6      	b.n	80029f0 <__aeabi_d2f+0x2c>
 8002a42:	0021      	movs	r1, r4
 8002a44:	3117      	adds	r1, #23
 8002a46:	dbdb      	blt.n	8002a00 <__aeabi_d2f+0x3c>
 8002a48:	2180      	movs	r1, #128	@ 0x80
 8002a4a:	201e      	movs	r0, #30
 8002a4c:	0409      	lsls	r1, r1, #16
 8002a4e:	4339      	orrs	r1, r7
 8002a50:	1b00      	subs	r0, r0, r4
 8002a52:	281f      	cmp	r0, #31
 8002a54:	dd1b      	ble.n	8002a8e <__aeabi_d2f+0xca>
 8002a56:	2602      	movs	r6, #2
 8002a58:	4276      	negs	r6, r6
 8002a5a:	1b34      	subs	r4, r6, r4
 8002a5c:	000e      	movs	r6, r1
 8002a5e:	40e6      	lsrs	r6, r4
 8002a60:	0034      	movs	r4, r6
 8002a62:	2820      	cmp	r0, #32
 8002a64:	d004      	beq.n	8002a70 <__aeabi_d2f+0xac>
 8002a66:	4817      	ldr	r0, [pc, #92]	@ (8002ac4 <__aeabi_d2f+0x100>)
 8002a68:	4684      	mov	ip, r0
 8002a6a:	4463      	add	r3, ip
 8002a6c:	4099      	lsls	r1, r3
 8002a6e:	430d      	orrs	r5, r1
 8002a70:	002b      	movs	r3, r5
 8002a72:	1e59      	subs	r1, r3, #1
 8002a74:	418b      	sbcs	r3, r1
 8002a76:	4323      	orrs	r3, r4
 8002a78:	0759      	lsls	r1, r3, #29
 8002a7a:	d015      	beq.n	8002aa8 <__aeabi_d2f+0xe4>
 8002a7c:	210f      	movs	r1, #15
 8002a7e:	2400      	movs	r4, #0
 8002a80:	4019      	ands	r1, r3
 8002a82:	2904      	cmp	r1, #4
 8002a84:	d117      	bne.n	8002ab6 <__aeabi_d2f+0xf2>
 8002a86:	019b      	lsls	r3, r3, #6
 8002a88:	0a5b      	lsrs	r3, r3, #9
 8002a8a:	b2e0      	uxtb	r0, r4
 8002a8c:	e7b0      	b.n	80029f0 <__aeabi_d2f+0x2c>
 8002a8e:	4c0e      	ldr	r4, [pc, #56]	@ (8002ac8 <__aeabi_d2f+0x104>)
 8002a90:	191c      	adds	r4, r3, r4
 8002a92:	002b      	movs	r3, r5
 8002a94:	40a5      	lsls	r5, r4
 8002a96:	40c3      	lsrs	r3, r0
 8002a98:	40a1      	lsls	r1, r4
 8002a9a:	1e68      	subs	r0, r5, #1
 8002a9c:	4185      	sbcs	r5, r0
 8002a9e:	4329      	orrs	r1, r5
 8002aa0:	430b      	orrs	r3, r1
 8002aa2:	2400      	movs	r4, #0
 8002aa4:	0759      	lsls	r1, r3, #29
 8002aa6:	d1c1      	bne.n	8002a2c <__aeabi_d2f+0x68>
 8002aa8:	019b      	lsls	r3, r3, #6
 8002aaa:	2000      	movs	r0, #0
 8002aac:	0a5b      	lsrs	r3, r3, #9
 8002aae:	e79f      	b.n	80029f0 <__aeabi_d2f+0x2c>
 8002ab0:	08db      	lsrs	r3, r3, #3
 8002ab2:	b2e0      	uxtb	r0, r4
 8002ab4:	e79c      	b.n	80029f0 <__aeabi_d2f+0x2c>
 8002ab6:	3304      	adds	r3, #4
 8002ab8:	e7e5      	b.n	8002a86 <__aeabi_d2f+0xc2>
 8002aba:	46c0      	nop			@ (mov r8, r8)
 8002abc:	000007fe 	.word	0x000007fe
 8002ac0:	fffffc80 	.word	0xfffffc80
 8002ac4:	fffffca2 	.word	0xfffffca2
 8002ac8:	fffffc82 	.word	0xfffffc82

08002acc <__clzsi2>:
 8002acc:	211c      	movs	r1, #28
 8002ace:	2301      	movs	r3, #1
 8002ad0:	041b      	lsls	r3, r3, #16
 8002ad2:	4298      	cmp	r0, r3
 8002ad4:	d301      	bcc.n	8002ada <__clzsi2+0xe>
 8002ad6:	0c00      	lsrs	r0, r0, #16
 8002ad8:	3910      	subs	r1, #16
 8002ada:	0a1b      	lsrs	r3, r3, #8
 8002adc:	4298      	cmp	r0, r3
 8002ade:	d301      	bcc.n	8002ae4 <__clzsi2+0x18>
 8002ae0:	0a00      	lsrs	r0, r0, #8
 8002ae2:	3908      	subs	r1, #8
 8002ae4:	091b      	lsrs	r3, r3, #4
 8002ae6:	4298      	cmp	r0, r3
 8002ae8:	d301      	bcc.n	8002aee <__clzsi2+0x22>
 8002aea:	0900      	lsrs	r0, r0, #4
 8002aec:	3904      	subs	r1, #4
 8002aee:	a202      	add	r2, pc, #8	@ (adr r2, 8002af8 <__clzsi2+0x2c>)
 8002af0:	5c10      	ldrb	r0, [r2, r0]
 8002af2:	1840      	adds	r0, r0, r1
 8002af4:	4770      	bx	lr
 8002af6:	46c0      	nop			@ (mov r8, r8)
 8002af8:	02020304 	.word	0x02020304
 8002afc:	01010101 	.word	0x01010101
	...

08002b08 <DS18B20_Init>:
/*-----library-----*/
#include <DS18B20.h>

/*-----Fonction-----*/

void DS18B20_Init(void) {
 8002b08:	b580      	push	{r7, lr}
 8002b0a:	af00      	add	r7, sp, #0
	// Init GPIO PA9 (1-Wire) en mode normal sans pull up/down
	RCC->IOPENR |= RCC_IOPENR_GPIOAEN;
 8002b0c:	4b10      	ldr	r3, [pc, #64]	@ (8002b50 <DS18B20_Init+0x48>)
 8002b0e:	6b5a      	ldr	r2, [r3, #52]	@ 0x34
 8002b10:	4b0f      	ldr	r3, [pc, #60]	@ (8002b50 <DS18B20_Init+0x48>)
 8002b12:	2101      	movs	r1, #1
 8002b14:	430a      	orrs	r2, r1
 8002b16:	635a      	str	r2, [r3, #52]	@ 0x34
	GPIOA->MODER &= ~GPIO_MODER_MODE9;
 8002b18:	23a0      	movs	r3, #160	@ 0xa0
 8002b1a:	05db      	lsls	r3, r3, #23
 8002b1c:	681a      	ldr	r2, [r3, #0]
 8002b1e:	23a0      	movs	r3, #160	@ 0xa0
 8002b20:	05db      	lsls	r3, r3, #23
 8002b22:	490c      	ldr	r1, [pc, #48]	@ (8002b54 <DS18B20_Init+0x4c>)
 8002b24:	400a      	ands	r2, r1
 8002b26:	601a      	str	r2, [r3, #0]
	GPIOA->OTYPER &= ~GPIO_OTYPER_OT9;
 8002b28:	23a0      	movs	r3, #160	@ 0xa0
 8002b2a:	05db      	lsls	r3, r3, #23
 8002b2c:	685a      	ldr	r2, [r3, #4]
 8002b2e:	23a0      	movs	r3, #160	@ 0xa0
 8002b30:	05db      	lsls	r3, r3, #23
 8002b32:	4909      	ldr	r1, [pc, #36]	@ (8002b58 <DS18B20_Init+0x50>)
 8002b34:	400a      	ands	r2, r1
 8002b36:	605a      	str	r2, [r3, #4]
	GPIOA->PUPDR &= ~GPIO_PUPDR_PUPD9;
 8002b38:	23a0      	movs	r3, #160	@ 0xa0
 8002b3a:	05db      	lsls	r3, r3, #23
 8002b3c:	68da      	ldr	r2, [r3, #12]
 8002b3e:	23a0      	movs	r3, #160	@ 0xa0
 8002b40:	05db      	lsls	r3, r3, #23
 8002b42:	4904      	ldr	r1, [pc, #16]	@ (8002b54 <DS18B20_Init+0x4c>)
 8002b44:	400a      	ands	r2, r1
 8002b46:	60da      	str	r2, [r3, #12]
}
 8002b48:	46c0      	nop			@ (mov r8, r8)
 8002b4a:	46bd      	mov	sp, r7
 8002b4c:	bd80      	pop	{r7, pc}
 8002b4e:	46c0      	nop			@ (mov r8, r8)
 8002b50:	40021000 	.word	0x40021000
 8002b54:	fff3ffff 	.word	0xfff3ffff
 8002b58:	fffffdff 	.word	0xfffffdff

08002b5c <DS18B20_GetTemp>:

uint16_t DS18B20_GetTemp(void){
 8002b5c:	b590      	push	{r4, r7, lr}
 8002b5e:	b083      	sub	sp, #12
 8002b60:	af00      	add	r7, sp, #0

	//1er transaction configuration du registre de config
	DS18B20_reset();
 8002b62:	f000 f84d 	bl	8002c00 <DS18B20_reset>
	DS18B20_write(0xCC);
 8002b66:	20cc      	movs	r0, #204	@ 0xcc
 8002b68:	f000 f8aa 	bl	8002cc0 <DS18B20_write>

	DS18B20_write(0x4E);
 8002b6c:	204e      	movs	r0, #78	@ 0x4e
 8002b6e:	f000 f8a7 	bl	8002cc0 <DS18B20_write>

	DS18B20_write(0x00);
 8002b72:	2000      	movs	r0, #0
 8002b74:	f000 f8a4 	bl	8002cc0 <DS18B20_write>
	DS18B20_write(0x00);
 8002b78:	2000      	movs	r0, #0
 8002b7a:	f000 f8a1 	bl	8002cc0 <DS18B20_write>
	DS18B20_write(0x1F);
 8002b7e:	201f      	movs	r0, #31
 8002b80:	f000 f89e 	bl	8002cc0 <DS18B20_write>
	//2me transation : mesure de la temprature

	DS18B20_reset();
 8002b84:	f000 f83c 	bl	8002c00 <DS18B20_reset>

	DS18B20_write(0xCC);
 8002b88:	20cc      	movs	r0, #204	@ 0xcc
 8002b8a:	f000 f899 	bl	8002cc0 <DS18B20_write>
	DS18B20_write(0x44);
 8002b8e:	2044      	movs	r0, #68	@ 0x44
 8002b90:	f000 f896 	bl	8002cc0 <DS18B20_write>

	GPIOA->ODR |= (1 << 9);
 8002b94:	23a0      	movs	r3, #160	@ 0xa0
 8002b96:	05db      	lsls	r3, r3, #23
 8002b98:	695a      	ldr	r2, [r3, #20]
 8002b9a:	23a0      	movs	r3, #160	@ 0xa0
 8002b9c:	05db      	lsls	r3, r3, #23
 8002b9e:	2180      	movs	r1, #128	@ 0x80
 8002ba0:	0089      	lsls	r1, r1, #2
 8002ba2:	430a      	orrs	r2, r1
 8002ba4:	615a      	str	r2, [r3, #20]
	delay_ms(110);
 8002ba6:	206e      	movs	r0, #110	@ 0x6e
 8002ba8:	f001 f84b 	bl	8003c42 <delay_ms>

	//3me transaction : lecture de mmoire

	DS18B20_reset();
 8002bac:	f000 f828 	bl	8002c00 <DS18B20_reset>

	DS18B20_write(0xCC);
 8002bb0:	20cc      	movs	r0, #204	@ 0xcc
 8002bb2:	f000 f885 	bl	8002cc0 <DS18B20_write>
	DS18B20_write(0xBE);
 8002bb6:	20be      	movs	r0, #190	@ 0xbe
 8002bb8:	f000 f882 	bl	8002cc0 <DS18B20_write>

	uint16_t raw_value = DS18B20_ReadConversion();
 8002bbc:	1dbc      	adds	r4, r7, #6
 8002bbe:	f000 f8d5 	bl	8002d6c <DS18B20_ReadConversion>
 8002bc2:	0003      	movs	r3, r0
 8002bc4:	8023      	strh	r3, [r4, #0]
	float Temperature = DS18B20_Convertion(raw_value);
 8002bc6:	1dbb      	adds	r3, r7, #6
 8002bc8:	881b      	ldrh	r3, [r3, #0]
 8002bca:	0018      	movs	r0, r3
 8002bcc:	f000 f956 	bl	8002e7c <DS18B20_Convertion>
 8002bd0:	1c03      	adds	r3, r0, #0
 8002bd2:	603b      	str	r3, [r7, #0]

	if (!(DS18B20_Verification(Temperature))){
 8002bd4:	6838      	ldr	r0, [r7, #0]
 8002bd6:	f7fd fc9f 	bl	8000518 <__aeabi_f2uiz>
 8002bda:	0003      	movs	r3, r0
 8002bdc:	b29b      	uxth	r3, r3
 8002bde:	0018      	movs	r0, r3
 8002be0:	f000 f968 	bl	8002eb4 <DS18B20_Verification>
 8002be4:	1e03      	subs	r3, r0, #0
 8002be6:	d105      	bne.n	8002bf4 <DS18B20_GetTemp+0x98>
		return(Temperature);
 8002be8:	6838      	ldr	r0, [r7, #0]
 8002bea:	f7fd fc95 	bl	8000518 <__aeabi_f2uiz>
 8002bee:	0003      	movs	r3, r0
 8002bf0:	b29b      	uxth	r3, r3
 8002bf2:	e001      	b.n	8002bf8 <DS18B20_GetTemp+0x9c>
	}
	else{
		DS18B20_GetTemp();	//TODO Recursivit ->Il faut trouver une autre solution !!!
 8002bf4:	f7ff ffb2 	bl	8002b5c <DS18B20_GetTemp>
							//Valeur de retour non utilis ??
	}
}
 8002bf8:	0018      	movs	r0, r3
 8002bfa:	46bd      	mov	sp, r7
 8002bfc:	b003      	add	sp, #12
 8002bfe:	bd90      	pop	{r4, r7, pc}

08002c00 <DS18B20_reset>:

//Tire la ligne vers le bas pendant 480us puis vrifie que le composant fait acte de prsence

int DS18B20_reset(void){
 8002c00:	b580      	push	{r7, lr}
 8002c02:	af00      	add	r7, sp, #0
	GPIOA->MODER |= GPIO_MODER_MODE9_0;
 8002c04:	23a0      	movs	r3, #160	@ 0xa0
 8002c06:	05db      	lsls	r3, r3, #23
 8002c08:	681a      	ldr	r2, [r3, #0]
 8002c0a:	23a0      	movs	r3, #160	@ 0xa0
 8002c0c:	05db      	lsls	r3, r3, #23
 8002c0e:	2180      	movs	r1, #128	@ 0x80
 8002c10:	02c9      	lsls	r1, r1, #11
 8002c12:	430a      	orrs	r2, r1
 8002c14:	601a      	str	r2, [r3, #0]
	GPIOA->OTYPER &= ~GPIO_OTYPER_OT9;
 8002c16:	23a0      	movs	r3, #160	@ 0xa0
 8002c18:	05db      	lsls	r3, r3, #23
 8002c1a:	685a      	ldr	r2, [r3, #4]
 8002c1c:	23a0      	movs	r3, #160	@ 0xa0
 8002c1e:	05db      	lsls	r3, r3, #23
 8002c20:	4925      	ldr	r1, [pc, #148]	@ (8002cb8 <DS18B20_reset+0xb8>)
 8002c22:	400a      	ands	r2, r1
 8002c24:	605a      	str	r2, [r3, #4]
	GPIOA->ODR &= ~(1 << 9);
 8002c26:	23a0      	movs	r3, #160	@ 0xa0
 8002c28:	05db      	lsls	r3, r3, #23
 8002c2a:	695a      	ldr	r2, [r3, #20]
 8002c2c:	23a0      	movs	r3, #160	@ 0xa0
 8002c2e:	05db      	lsls	r3, r3, #23
 8002c30:	4921      	ldr	r1, [pc, #132]	@ (8002cb8 <DS18B20_reset+0xb8>)
 8002c32:	400a      	ands	r2, r1
 8002c34:	615a      	str	r2, [r3, #20]
	delay_us(480);
 8002c36:	23f0      	movs	r3, #240	@ 0xf0
 8002c38:	005b      	lsls	r3, r3, #1
 8002c3a:	0018      	movs	r0, r3
 8002c3c:	f000 ffea 	bl	8003c14 <delay_us>

	GPIOA->OTYPER |= GPIO_OTYPER_OT9;
 8002c40:	23a0      	movs	r3, #160	@ 0xa0
 8002c42:	05db      	lsls	r3, r3, #23
 8002c44:	685a      	ldr	r2, [r3, #4]
 8002c46:	23a0      	movs	r3, #160	@ 0xa0
 8002c48:	05db      	lsls	r3, r3, #23
 8002c4a:	2180      	movs	r1, #128	@ 0x80
 8002c4c:	0089      	lsls	r1, r1, #2
 8002c4e:	430a      	orrs	r2, r1
 8002c50:	605a      	str	r2, [r3, #4]
	GPIOA->MODER &= ~GPIO_MODER_MODE9_0;
 8002c52:	23a0      	movs	r3, #160	@ 0xa0
 8002c54:	05db      	lsls	r3, r3, #23
 8002c56:	681a      	ldr	r2, [r3, #0]
 8002c58:	23a0      	movs	r3, #160	@ 0xa0
 8002c5a:	05db      	lsls	r3, r3, #23
 8002c5c:	4917      	ldr	r1, [pc, #92]	@ (8002cbc <DS18B20_reset+0xbc>)
 8002c5e:	400a      	ands	r2, r1
 8002c60:	601a      	str	r2, [r3, #0]
	delay_us(80);
 8002c62:	2050      	movs	r0, #80	@ 0x50
 8002c64:	f000 ffd6 	bl	8003c14 <delay_us>

	if(!(GPIOA->IDR & (1 << 9))){
 8002c68:	23a0      	movs	r3, #160	@ 0xa0
 8002c6a:	05db      	lsls	r3, r3, #23
 8002c6c:	691a      	ldr	r2, [r3, #16]
 8002c6e:	2380      	movs	r3, #128	@ 0x80
 8002c70:	009b      	lsls	r3, r3, #2
 8002c72:	4013      	ands	r3, r2
 8002c74:	d10e      	bne.n	8002c94 <DS18B20_reset+0x94>
		delay_us(400);
 8002c76:	23c8      	movs	r3, #200	@ 0xc8
 8002c78:	005b      	lsls	r3, r3, #1
 8002c7a:	0018      	movs	r0, r3
 8002c7c:	f000 ffca 	bl	8003c14 <delay_us>
		GPIOA->OTYPER &= ~GPIO_OTYPER_OT9;
 8002c80:	23a0      	movs	r3, #160	@ 0xa0
 8002c82:	05db      	lsls	r3, r3, #23
 8002c84:	685a      	ldr	r2, [r3, #4]
 8002c86:	23a0      	movs	r3, #160	@ 0xa0
 8002c88:	05db      	lsls	r3, r3, #23
 8002c8a:	490b      	ldr	r1, [pc, #44]	@ (8002cb8 <DS18B20_reset+0xb8>)
 8002c8c:	400a      	ands	r2, r1
 8002c8e:	605a      	str	r2, [r3, #4]
		return 0;
 8002c90:	2300      	movs	r3, #0
 8002c92:	e00d      	b.n	8002cb0 <DS18B20_reset+0xb0>
	}

	else{
		delay_us(400);
 8002c94:	23c8      	movs	r3, #200	@ 0xc8
 8002c96:	005b      	lsls	r3, r3, #1
 8002c98:	0018      	movs	r0, r3
 8002c9a:	f000 ffbb 	bl	8003c14 <delay_us>
		GPIOA->OTYPER &= ~GPIO_OTYPER_OT9;
 8002c9e:	23a0      	movs	r3, #160	@ 0xa0
 8002ca0:	05db      	lsls	r3, r3, #23
 8002ca2:	685a      	ldr	r2, [r3, #4]
 8002ca4:	23a0      	movs	r3, #160	@ 0xa0
 8002ca6:	05db      	lsls	r3, r3, #23
 8002ca8:	4903      	ldr	r1, [pc, #12]	@ (8002cb8 <DS18B20_reset+0xb8>)
 8002caa:	400a      	ands	r2, r1
 8002cac:	605a      	str	r2, [r3, #4]
		return 1;
 8002cae:	2301      	movs	r3, #1
	}
}
 8002cb0:	0018      	movs	r0, r3
 8002cb2:	46bd      	mov	sp, r7
 8002cb4:	bd80      	pop	{r7, pc}
 8002cb6:	46c0      	nop			@ (mov r8, r8)
 8002cb8:	fffffdff 	.word	0xfffffdff
 8002cbc:	fffbffff 	.word	0xfffbffff

08002cc0 <DS18B20_write>:

// Ecrit un octet sur la ligne de donne, si c'est un 1, la ligne est haute pendant 45us, sinon, elle est basse pendant 45 us

void DS18B20_write(uint8_t data) {
 8002cc0:	b580      	push	{r7, lr}
 8002cc2:	b084      	sub	sp, #16
 8002cc4:	af00      	add	r7, sp, #0
 8002cc6:	0002      	movs	r2, r0
 8002cc8:	1dfb      	adds	r3, r7, #7
 8002cca:	701a      	strb	r2, [r3, #0]

	GPIOA->MODER |= GPIO_MODER_MODE9_0;
 8002ccc:	23a0      	movs	r3, #160	@ 0xa0
 8002cce:	05db      	lsls	r3, r3, #23
 8002cd0:	681a      	ldr	r2, [r3, #0]
 8002cd2:	23a0      	movs	r3, #160	@ 0xa0
 8002cd4:	05db      	lsls	r3, r3, #23
 8002cd6:	2180      	movs	r1, #128	@ 0x80
 8002cd8:	02c9      	lsls	r1, r1, #11
 8002cda:	430a      	orrs	r2, r1
 8002cdc:	601a      	str	r2, [r3, #0]

	for (int i = 0; i < 8; i++) {
 8002cde:	2300      	movs	r3, #0
 8002ce0:	60fb      	str	r3, [r7, #12]
 8002ce2:	e039      	b.n	8002d58 <DS18B20_write+0x98>
		// Si le bit est "1"
		if (data & (1 << i)) {
 8002ce4:	1dfb      	adds	r3, r7, #7
 8002ce6:	781a      	ldrb	r2, [r3, #0]
 8002ce8:	68fb      	ldr	r3, [r7, #12]
 8002cea:	411a      	asrs	r2, r3
 8002cec:	0013      	movs	r3, r2
 8002cee:	2201      	movs	r2, #1
 8002cf0:	4013      	ands	r3, r2
 8002cf2:	d017      	beq.n	8002d24 <DS18B20_write+0x64>
			GPIOA->ODR &= ~(1 << 9);
 8002cf4:	23a0      	movs	r3, #160	@ 0xa0
 8002cf6:	05db      	lsls	r3, r3, #23
 8002cf8:	695a      	ldr	r2, [r3, #20]
 8002cfa:	23a0      	movs	r3, #160	@ 0xa0
 8002cfc:	05db      	lsls	r3, r3, #23
 8002cfe:	491a      	ldr	r1, [pc, #104]	@ (8002d68 <DS18B20_write+0xa8>)
 8002d00:	400a      	ands	r2, r1
 8002d02:	615a      	str	r2, [r3, #20]
			delay_us(1);
 8002d04:	2001      	movs	r0, #1
 8002d06:	f000 ff85 	bl	8003c14 <delay_us>

			GPIOA->ODR |= (1 << 9);
 8002d0a:	23a0      	movs	r3, #160	@ 0xa0
 8002d0c:	05db      	lsls	r3, r3, #23
 8002d0e:	695a      	ldr	r2, [r3, #20]
 8002d10:	23a0      	movs	r3, #160	@ 0xa0
 8002d12:	05db      	lsls	r3, r3, #23
 8002d14:	2180      	movs	r1, #128	@ 0x80
 8002d16:	0089      	lsls	r1, r1, #2
 8002d18:	430a      	orrs	r2, r1
 8002d1a:	615a      	str	r2, [r3, #20]
			delay_us(45);
 8002d1c:	202d      	movs	r0, #45	@ 0x2d
 8002d1e:	f000 ff79 	bl	8003c14 <delay_us>
 8002d22:	e016      	b.n	8002d52 <DS18B20_write+0x92>
		}
		// Si le bit est "0"
		else {
			GPIOA->ODR &= ~(1 << 9);
 8002d24:	23a0      	movs	r3, #160	@ 0xa0
 8002d26:	05db      	lsls	r3, r3, #23
 8002d28:	695a      	ldr	r2, [r3, #20]
 8002d2a:	23a0      	movs	r3, #160	@ 0xa0
 8002d2c:	05db      	lsls	r3, r3, #23
 8002d2e:	490e      	ldr	r1, [pc, #56]	@ (8002d68 <DS18B20_write+0xa8>)
 8002d30:	400a      	ands	r2, r1
 8002d32:	615a      	str	r2, [r3, #20]
			delay_us(45);
 8002d34:	202d      	movs	r0, #45	@ 0x2d
 8002d36:	f000 ff6d 	bl	8003c14 <delay_us>

			GPIOA->ODR |= (1 << 9);
 8002d3a:	23a0      	movs	r3, #160	@ 0xa0
 8002d3c:	05db      	lsls	r3, r3, #23
 8002d3e:	695a      	ldr	r2, [r3, #20]
 8002d40:	23a0      	movs	r3, #160	@ 0xa0
 8002d42:	05db      	lsls	r3, r3, #23
 8002d44:	2180      	movs	r1, #128	@ 0x80
 8002d46:	0089      	lsls	r1, r1, #2
 8002d48:	430a      	orrs	r2, r1
 8002d4a:	615a      	str	r2, [r3, #20]
			delay_us(1);
 8002d4c:	2001      	movs	r0, #1
 8002d4e:	f000 ff61 	bl	8003c14 <delay_us>
	for (int i = 0; i < 8; i++) {
 8002d52:	68fb      	ldr	r3, [r7, #12]
 8002d54:	3301      	adds	r3, #1
 8002d56:	60fb      	str	r3, [r7, #12]
 8002d58:	68fb      	ldr	r3, [r7, #12]
 8002d5a:	2b07      	cmp	r3, #7
 8002d5c:	ddc2      	ble.n	8002ce4 <DS18B20_write+0x24>
		}
	}
}
 8002d5e:	46c0      	nop			@ (mov r8, r8)
 8002d60:	46c0      	nop			@ (mov r8, r8)
 8002d62:	46bd      	mov	sp, r7
 8002d64:	b004      	add	sp, #16
 8002d66:	bd80      	pop	{r7, pc}
 8002d68:	fffffdff 	.word	0xfffffdff

08002d6c <DS18B20_ReadConversion>:

//Lit deux octets pour avoir les 16 bits qui capte la temprature

uint16_t DS18B20_ReadConversion(void){
 8002d6c:	b590      	push	{r4, r7, lr}
 8002d6e:	b083      	sub	sp, #12
 8002d70:	af00      	add	r7, sp, #0
	uint8_t low_byte, high_byte;

	// Lire les deux octets du scratchpad
	low_byte = DS18B20_read();
 8002d72:	1dfc      	adds	r4, r7, #7
 8002d74:	f000 f81a 	bl	8002dac <DS18B20_read>
 8002d78:	0003      	movs	r3, r0
 8002d7a:	7023      	strb	r3, [r4, #0]
	high_byte = DS18B20_read();
 8002d7c:	1dbc      	adds	r4, r7, #6
 8002d7e:	f000 f815 	bl	8002dac <DS18B20_read>
 8002d82:	0003      	movs	r3, r0
 8002d84:	7023      	strb	r3, [r4, #0]

	uint16_t raw_value = ((high_byte << 8) | low_byte)*10;
 8002d86:	1dbb      	adds	r3, r7, #6
 8002d88:	781b      	ldrb	r3, [r3, #0]
 8002d8a:	021a      	lsls	r2, r3, #8
 8002d8c:	1dfb      	adds	r3, r7, #7
 8002d8e:	781b      	ldrb	r3, [r3, #0]
 8002d90:	4313      	orrs	r3, r2
 8002d92:	b29b      	uxth	r3, r3
 8002d94:	1d3a      	adds	r2, r7, #4
 8002d96:	1c19      	adds	r1, r3, #0
 8002d98:	0089      	lsls	r1, r1, #2
 8002d9a:	18cb      	adds	r3, r1, r3
 8002d9c:	18db      	adds	r3, r3, r3
 8002d9e:	8013      	strh	r3, [r2, #0]

	return raw_value;
 8002da0:	1d3b      	adds	r3, r7, #4
 8002da2:	881b      	ldrh	r3, [r3, #0]
}
 8002da4:	0018      	movs	r0, r3
 8002da6:	46bd      	mov	sp, r7
 8002da8:	b003      	add	sp, #12
 8002daa:	bd90      	pop	{r4, r7, pc}

08002dac <DS18B20_read>:

//Lit les bits sur la ligne de donne toutes les 60us et dfinis les tats au bout de 12us

uint8_t DS18B20_read(void){
 8002dac:	b580      	push	{r7, lr}
 8002dae:	b082      	sub	sp, #8
 8002db0:	af00      	add	r7, sp, #0
	uint8_t data =0;
 8002db2:	1dfb      	adds	r3, r7, #7
 8002db4:	2200      	movs	r2, #0
 8002db6:	701a      	strb	r2, [r3, #0]

	GPIOA->OTYPER |= GPIO_OTYPER_OT9;
 8002db8:	23a0      	movs	r3, #160	@ 0xa0
 8002dba:	05db      	lsls	r3, r3, #23
 8002dbc:	685a      	ldr	r2, [r3, #4]
 8002dbe:	23a0      	movs	r3, #160	@ 0xa0
 8002dc0:	05db      	lsls	r3, r3, #23
 8002dc2:	2180      	movs	r1, #128	@ 0x80
 8002dc4:	0089      	lsls	r1, r1, #2
 8002dc6:	430a      	orrs	r2, r1
 8002dc8:	605a      	str	r2, [r3, #4]
	GPIOA->MODER &= ~GPIO_MODER_MODE9_0;
 8002dca:	23a0      	movs	r3, #160	@ 0xa0
 8002dcc:	05db      	lsls	r3, r3, #23
 8002dce:	681a      	ldr	r2, [r3, #0]
 8002dd0:	23a0      	movs	r3, #160	@ 0xa0
 8002dd2:	05db      	lsls	r3, r3, #23
 8002dd4:	4927      	ldr	r1, [pc, #156]	@ (8002e74 <DS18B20_read+0xc8>)
 8002dd6:	400a      	ands	r2, r1
 8002dd8:	601a      	str	r2, [r3, #0]

	for (int i = 0; i <8; i++) {
 8002dda:	2300      	movs	r3, #0
 8002ddc:	603b      	str	r3, [r7, #0]
 8002dde:	e037      	b.n	8002e50 <DS18B20_read+0xa4>
		// Tirer la ligne basse pour initier la lecture
		GPIOA->MODER |= GPIO_MODER_MODE9_0;
 8002de0:	23a0      	movs	r3, #160	@ 0xa0
 8002de2:	05db      	lsls	r3, r3, #23
 8002de4:	681a      	ldr	r2, [r3, #0]
 8002de6:	23a0      	movs	r3, #160	@ 0xa0
 8002de8:	05db      	lsls	r3, r3, #23
 8002dea:	2180      	movs	r1, #128	@ 0x80
 8002dec:	02c9      	lsls	r1, r1, #11
 8002dee:	430a      	orrs	r2, r1
 8002df0:	601a      	str	r2, [r3, #0]
		GPIOA->ODR &= ~(1 << 9);
 8002df2:	23a0      	movs	r3, #160	@ 0xa0
 8002df4:	05db      	lsls	r3, r3, #23
 8002df6:	695a      	ldr	r2, [r3, #20]
 8002df8:	23a0      	movs	r3, #160	@ 0xa0
 8002dfa:	05db      	lsls	r3, r3, #23
 8002dfc:	491e      	ldr	r1, [pc, #120]	@ (8002e78 <DS18B20_read+0xcc>)
 8002dfe:	400a      	ands	r2, r1
 8002e00:	615a      	str	r2, [r3, #20]
		delay_us(2);
 8002e02:	2002      	movs	r0, #2
 8002e04:	f000 ff06 	bl	8003c14 <delay_us>

		// Relcher la ligne et configurer GPIO en entre pour lire le bit
		GPIOA->MODER &= ~GPIO_MODER_MODE9_0;
 8002e08:	23a0      	movs	r3, #160	@ 0xa0
 8002e0a:	05db      	lsls	r3, r3, #23
 8002e0c:	681a      	ldr	r2, [r3, #0]
 8002e0e:	23a0      	movs	r3, #160	@ 0xa0
 8002e10:	05db      	lsls	r3, r3, #23
 8002e12:	4918      	ldr	r1, [pc, #96]	@ (8002e74 <DS18B20_read+0xc8>)
 8002e14:	400a      	ands	r2, r1
 8002e16:	601a      	str	r2, [r3, #0]
		delay_us(12);
 8002e18:	200c      	movs	r0, #12
 8002e1a:	f000 fefb 	bl	8003c14 <delay_us>

		// Lire le bit et l'ajouter au rsultat
		if (GPIOA->IDR & (1 << 9)) {
 8002e1e:	23a0      	movs	r3, #160	@ 0xa0
 8002e20:	05db      	lsls	r3, r3, #23
 8002e22:	691a      	ldr	r2, [r3, #16]
 8002e24:	2380      	movs	r3, #128	@ 0x80
 8002e26:	009b      	lsls	r3, r3, #2
 8002e28:	4013      	ands	r3, r2
 8002e2a:	d00b      	beq.n	8002e44 <DS18B20_read+0x98>
			data |= (1 << i);
 8002e2c:	2201      	movs	r2, #1
 8002e2e:	683b      	ldr	r3, [r7, #0]
 8002e30:	409a      	lsls	r2, r3
 8002e32:	0013      	movs	r3, r2
 8002e34:	b25a      	sxtb	r2, r3
 8002e36:	1dfb      	adds	r3, r7, #7
 8002e38:	781b      	ldrb	r3, [r3, #0]
 8002e3a:	b25b      	sxtb	r3, r3
 8002e3c:	4313      	orrs	r3, r2
 8002e3e:	b25a      	sxtb	r2, r3
 8002e40:	1dfb      	adds	r3, r7, #7
 8002e42:	701a      	strb	r2, [r3, #0]
		}

		// Attendre la fin de la fentre de 60 s
		delay_us(50);
 8002e44:	2032      	movs	r0, #50	@ 0x32
 8002e46:	f000 fee5 	bl	8003c14 <delay_us>
	for (int i = 0; i <8; i++) {
 8002e4a:	683b      	ldr	r3, [r7, #0]
 8002e4c:	3301      	adds	r3, #1
 8002e4e:	603b      	str	r3, [r7, #0]
 8002e50:	683b      	ldr	r3, [r7, #0]
 8002e52:	2b07      	cmp	r3, #7
 8002e54:	ddc4      	ble.n	8002de0 <DS18B20_read+0x34>
	}
	GPIOA->OTYPER &= ~GPIO_OTYPER_OT9;
 8002e56:	23a0      	movs	r3, #160	@ 0xa0
 8002e58:	05db      	lsls	r3, r3, #23
 8002e5a:	685a      	ldr	r2, [r3, #4]
 8002e5c:	23a0      	movs	r3, #160	@ 0xa0
 8002e5e:	05db      	lsls	r3, r3, #23
 8002e60:	4905      	ldr	r1, [pc, #20]	@ (8002e78 <DS18B20_read+0xcc>)
 8002e62:	400a      	ands	r2, r1
 8002e64:	605a      	str	r2, [r3, #4]
	return data;
 8002e66:	1dfb      	adds	r3, r7, #7
 8002e68:	781b      	ldrb	r3, [r3, #0]
}
 8002e6a:	0018      	movs	r0, r3
 8002e6c:	46bd      	mov	sp, r7
 8002e6e:	b002      	add	sp, #8
 8002e70:	bd80      	pop	{r7, pc}
 8002e72:	46c0      	nop			@ (mov r8, r8)
 8002e74:	fffbffff 	.word	0xfffbffff
 8002e78:	fffffdff 	.word	0xfffffdff

08002e7c <DS18B20_Convertion>:

// Fonction pour convertir la valeur brute DS18B20 en valeur flotante

float DS18B20_Convertion(uint16_t raw_value) {
 8002e7c:	b580      	push	{r7, lr}
 8002e7e:	b082      	sub	sp, #8
 8002e80:	af00      	add	r7, sp, #0
 8002e82:	0002      	movs	r2, r0
 8002e84:	1dbb      	adds	r3, r7, #6
 8002e86:	801a      	strh	r2, [r3, #0]
	return raw_value * 0.0625;  // Multiplier par 0.0625 pour obtenir la temprature en C;
 8002e88:	1dbb      	adds	r3, r7, #6
 8002e8a:	881b      	ldrh	r3, [r3, #0]
 8002e8c:	0018      	movs	r0, r3
 8002e8e:	f7ff fcff 	bl	8002890 <__aeabi_i2d>
 8002e92:	2200      	movs	r2, #0
 8002e94:	4b06      	ldr	r3, [pc, #24]	@ (8002eb0 <DS18B20_Convertion+0x34>)
 8002e96:	f7fe fe39 	bl	8001b0c <__aeabi_dmul>
 8002e9a:	0002      	movs	r2, r0
 8002e9c:	000b      	movs	r3, r1
 8002e9e:	0010      	movs	r0, r2
 8002ea0:	0019      	movs	r1, r3
 8002ea2:	f7ff fd8f 	bl	80029c4 <__aeabi_d2f>
 8002ea6:	1c03      	adds	r3, r0, #0
}
 8002ea8:	1c18      	adds	r0, r3, #0
 8002eaa:	46bd      	mov	sp, r7
 8002eac:	b002      	add	sp, #8
 8002eae:	bd80      	pop	{r7, pc}
 8002eb0:	3fb00000 	.word	0x3fb00000

08002eb4 <DS18B20_Verification>:

//Vrifie qu'on ne recois pas un message d'erreur de la sonde

uint8_t DS18B20_Verification (uint16_t temp){
 8002eb4:	b580      	push	{r7, lr}
 8002eb6:	b082      	sub	sp, #8
 8002eb8:	af00      	add	r7, sp, #0
 8002eba:	0002      	movs	r2, r0
 8002ebc:	1dbb      	adds	r3, r7, #6
 8002ebe:	801a      	strh	r2, [r3, #0]
	if (temp == 850 || temp <= -550 || temp >= 1250){
 8002ec0:	1dbb      	adds	r3, r7, #6
 8002ec2:	881b      	ldrh	r3, [r3, #0]
 8002ec4:	4a07      	ldr	r2, [pc, #28]	@ (8002ee4 <DS18B20_Verification+0x30>)
 8002ec6:	4293      	cmp	r3, r2
 8002ec8:	d004      	beq.n	8002ed4 <DS18B20_Verification+0x20>
 8002eca:	1dbb      	adds	r3, r7, #6
 8002ecc:	881b      	ldrh	r3, [r3, #0]
 8002ece:	4a06      	ldr	r2, [pc, #24]	@ (8002ee8 <DS18B20_Verification+0x34>)
 8002ed0:	4293      	cmp	r3, r2
 8002ed2:	d901      	bls.n	8002ed8 <DS18B20_Verification+0x24>
		return 1;
 8002ed4:	2301      	movs	r3, #1
 8002ed6:	e000      	b.n	8002eda <DS18B20_Verification+0x26>
	}
	else{
		return 0;
 8002ed8:	2300      	movs	r3, #0
	}
}
 8002eda:	0018      	movs	r0, r3
 8002edc:	46bd      	mov	sp, r7
 8002ede:	b002      	add	sp, #8
 8002ee0:	bd80      	pop	{r7, pc}
 8002ee2:	46c0      	nop			@ (mov r8, r8)
 8002ee4:	00000352 	.word	0x00000352
 8002ee8:	000004e1 	.word	0x000004e1

08002eec <read_flash_memory>:
#include "FLASH.h"


// Fonction pour lire dans la flash
uint64_t read_flash_memory(uint32_t memory_address)
{
 8002eec:	b580      	push	{r7, lr}
 8002eee:	b082      	sub	sp, #8
 8002ef0:	af00      	add	r7, sp, #0
 8002ef2:	6078      	str	r0, [r7, #4]
	return *(__IO uint64_t*)memory_address;
 8002ef4:	687b      	ldr	r3, [r7, #4]
 8002ef6:	681a      	ldr	r2, [r3, #0]
 8002ef8:	685b      	ldr	r3, [r3, #4]
}
 8002efa:	0010      	movs	r0, r2
 8002efc:	0019      	movs	r1, r3
 8002efe:	46bd      	mov	sp, r7
 8002f00:	b002      	add	sp, #8
 8002f02:	bd80      	pop	{r7, pc}

08002f04 <flash_write>:

// Fonction pour crire 32 bits dans la flash
void flash_write(uint32_t address, uint64_t data)
{
 8002f04:	b580      	push	{r7, lr}
 8002f06:	b086      	sub	sp, #24
 8002f08:	af00      	add	r7, sp, #0
 8002f0a:	60f8      	str	r0, [r7, #12]
 8002f0c:	603a      	str	r2, [r7, #0]
 8002f0e:	607b      	str	r3, [r7, #4]
	// 1. Vrifier que l'adresse est aligne sur 32 bits
	if (address % 4 != 0) return;
 8002f10:	68fb      	ldr	r3, [r7, #12]
 8002f12:	2203      	movs	r2, #3
 8002f14:	4013      	ands	r3, r2
 8002f16:	d150      	bne.n	8002fba <flash_write+0xb6>

	// 2. Vrifier que l'adresse est dans la plage valide de la flash
	if (address < FLASH_BASE || address >= (FLASH_BASE + 64*1024)) return;
 8002f18:	68fa      	ldr	r2, [r7, #12]
 8002f1a:	2380      	movs	r3, #128	@ 0x80
 8002f1c:	051b      	lsls	r3, r3, #20
 8002f1e:	429a      	cmp	r2, r3
 8002f20:	d34d      	bcc.n	8002fbe <flash_write+0xba>
 8002f22:	68fb      	ldr	r3, [r7, #12]
 8002f24:	4a28      	ldr	r2, [pc, #160]	@ (8002fc8 <flash_write+0xc4>)
 8002f26:	4293      	cmp	r3, r2
 8002f28:	d849      	bhi.n	8002fbe <flash_write+0xba>

	// 3. Attendre que les oprations flash prcdentes soient termines
	while (FLASH->SR & FLASH_SR_BSY1);
 8002f2a:	46c0      	nop			@ (mov r8, r8)
 8002f2c:	4b27      	ldr	r3, [pc, #156]	@ (8002fcc <flash_write+0xc8>)
 8002f2e:	691a      	ldr	r2, [r3, #16]
 8002f30:	2380      	movs	r3, #128	@ 0x80
 8002f32:	025b      	lsls	r3, r3, #9
 8002f34:	4013      	ands	r3, r2
 8002f36:	d1f9      	bne.n	8002f2c <flash_write+0x28>

	// 4. Dverrouiller la flash
	if (FLASH->CR & FLASH_CR_LOCK) {
 8002f38:	4b24      	ldr	r3, [pc, #144]	@ (8002fcc <flash_write+0xc8>)
 8002f3a:	695b      	ldr	r3, [r3, #20]
 8002f3c:	2b00      	cmp	r3, #0
 8002f3e:	da05      	bge.n	8002f4c <flash_write+0x48>
		FLASH->KEYR = 0x45670123;
 8002f40:	4b22      	ldr	r3, [pc, #136]	@ (8002fcc <flash_write+0xc8>)
 8002f42:	4a23      	ldr	r2, [pc, #140]	@ (8002fd0 <flash_write+0xcc>)
 8002f44:	609a      	str	r2, [r3, #8]
		FLASH->KEYR = 0xCDEF89AB;
 8002f46:	4b21      	ldr	r3, [pc, #132]	@ (8002fcc <flash_write+0xc8>)
 8002f48:	4a22      	ldr	r2, [pc, #136]	@ (8002fd4 <flash_write+0xd0>)
 8002f4a:	609a      	str	r2, [r3, #8]
	}

	// 5. Effacer les bits d'erreur potentiels
	FLASH->SR |= (FLASH_SR_OPERR | FLASH_SR_PROGERR | FLASH_SR_WRPERR |
 8002f4c:	4b1f      	ldr	r3, [pc, #124]	@ (8002fcc <flash_write+0xc8>)
 8002f4e:	691a      	ldr	r2, [r3, #16]
 8002f50:	4b1e      	ldr	r3, [pc, #120]	@ (8002fcc <flash_write+0xc8>)
 8002f52:	4921      	ldr	r1, [pc, #132]	@ (8002fd8 <flash_write+0xd4>)
 8002f54:	430a      	orrs	r2, r1
 8002f56:	611a      	str	r2, [r3, #16]
			FLASH_SR_PGAERR | FLASH_SR_SIZERR | FLASH_SR_PGSERR |
			FLASH_SR_MISERR | FLASH_SR_FASTERR | FLASH_SR_RDERR);

	// 6. Configurer pour programmation 32 bits
	FLASH->CR &= ~FLASH_CR_PG_Msk;
 8002f58:	4b1c      	ldr	r3, [pc, #112]	@ (8002fcc <flash_write+0xc8>)
 8002f5a:	695a      	ldr	r2, [r3, #20]
 8002f5c:	4b1b      	ldr	r3, [pc, #108]	@ (8002fcc <flash_write+0xc8>)
 8002f5e:	2101      	movs	r1, #1
 8002f60:	438a      	bics	r2, r1
 8002f62:	615a      	str	r2, [r3, #20]
	FLASH->CR |= FLASH_CR_PG;
 8002f64:	4b19      	ldr	r3, [pc, #100]	@ (8002fcc <flash_write+0xc8>)
 8002f66:	695a      	ldr	r2, [r3, #20]
 8002f68:	4b18      	ldr	r3, [pc, #96]	@ (8002fcc <flash_write+0xc8>)
 8002f6a:	2101      	movs	r1, #1
 8002f6c:	430a      	orrs	r2, r1
 8002f6e:	615a      	str	r2, [r3, #20]

	// 7. crire les donnes
	*(__IO uint64_t*)address = data;
 8002f70:	68f9      	ldr	r1, [r7, #12]
 8002f72:	683a      	ldr	r2, [r7, #0]
 8002f74:	687b      	ldr	r3, [r7, #4]
 8002f76:	600a      	str	r2, [r1, #0]
 8002f78:	604b      	str	r3, [r1, #4]

	// 8. Attendre la fin de l'criture
	while (FLASH->SR & FLASH_SR_BSY1);
 8002f7a:	46c0      	nop			@ (mov r8, r8)
 8002f7c:	4b13      	ldr	r3, [pc, #76]	@ (8002fcc <flash_write+0xc8>)
 8002f7e:	691a      	ldr	r2, [r3, #16]
 8002f80:	2380      	movs	r3, #128	@ 0x80
 8002f82:	025b      	lsls	r3, r3, #9
 8002f84:	4013      	ands	r3, r2
 8002f86:	d1f9      	bne.n	8002f7c <flash_write+0x78>

	// 9. Vrifier si erreur
	// TODO utiliser cette erreur !!
	uint32_t error = FLASH->SR & (FLASH_SR_OPERR | FLASH_SR_PROGERR | FLASH_SR_WRPERR |
 8002f88:	4b10      	ldr	r3, [pc, #64]	@ (8002fcc <flash_write+0xc8>)
 8002f8a:	691b      	ldr	r3, [r3, #16]
 8002f8c:	4a12      	ldr	r2, [pc, #72]	@ (8002fd8 <flash_write+0xd4>)
 8002f8e:	4013      	ands	r3, r2
 8002f90:	617b      	str	r3, [r7, #20]
			FLASH_SR_PGAERR | FLASH_SR_SIZERR | FLASH_SR_PGSERR |
			FLASH_SR_MISERR | FLASH_SR_FASTERR | FLASH_SR_RDERR);

	// 10. Dsactiver le mode programmation
	FLASH->CR &= ~FLASH_CR_PG;
 8002f92:	4b0e      	ldr	r3, [pc, #56]	@ (8002fcc <flash_write+0xc8>)
 8002f94:	695a      	ldr	r2, [r3, #20]
 8002f96:	4b0d      	ldr	r3, [pc, #52]	@ (8002fcc <flash_write+0xc8>)
 8002f98:	2101      	movs	r1, #1
 8002f9a:	438a      	bics	r2, r1
 8002f9c:	615a      	str	r2, [r3, #20]

	FLASH->SR &= ~FLASH_SR_EOP;
 8002f9e:	4b0b      	ldr	r3, [pc, #44]	@ (8002fcc <flash_write+0xc8>)
 8002fa0:	691a      	ldr	r2, [r3, #16]
 8002fa2:	4b0a      	ldr	r3, [pc, #40]	@ (8002fcc <flash_write+0xc8>)
 8002fa4:	2101      	movs	r1, #1
 8002fa6:	438a      	bics	r2, r1
 8002fa8:	611a      	str	r2, [r3, #16]

	// 11. Reverrouiller la flash
	FLASH->CR |= FLASH_CR_LOCK;
 8002faa:	4b08      	ldr	r3, [pc, #32]	@ (8002fcc <flash_write+0xc8>)
 8002fac:	695a      	ldr	r2, [r3, #20]
 8002fae:	4b07      	ldr	r3, [pc, #28]	@ (8002fcc <flash_write+0xc8>)
 8002fb0:	2180      	movs	r1, #128	@ 0x80
 8002fb2:	0609      	lsls	r1, r1, #24
 8002fb4:	430a      	orrs	r2, r1
 8002fb6:	615a      	str	r2, [r3, #20]
 8002fb8:	e002      	b.n	8002fc0 <flash_write+0xbc>
	if (address % 4 != 0) return;
 8002fba:	46c0      	nop			@ (mov r8, r8)
 8002fbc:	e000      	b.n	8002fc0 <flash_write+0xbc>
	if (address < FLASH_BASE || address >= (FLASH_BASE + 64*1024)) return;
 8002fbe:	46c0      	nop			@ (mov r8, r8)
}
 8002fc0:	46bd      	mov	sp, r7
 8002fc2:	b006      	add	sp, #24
 8002fc4:	bd80      	pop	{r7, pc}
 8002fc6:	46c0      	nop			@ (mov r8, r8)
 8002fc8:	0800ffff 	.word	0x0800ffff
 8002fcc:	40022000 	.word	0x40022000
 8002fd0:	45670123 	.word	0x45670123
 8002fd4:	cdef89ab 	.word	0xcdef89ab
 8002fd8:	000043fa 	.word	0x000043fa

08002fdc <flash_erase_page>:

// Fonction pour effacer une page (2KB sur STM32G031)
void flash_erase_page(uint32_t page_addr)
{
 8002fdc:	b580      	push	{r7, lr}
 8002fde:	b082      	sub	sp, #8
 8002fe0:	af00      	add	r7, sp, #0
 8002fe2:	6078      	str	r0, [r7, #4]
	// Vrifier alignement sur dbut de page
	if (page_addr % 2048 != 0) return;
 8002fe4:	687b      	ldr	r3, [r7, #4]
 8002fe6:	055b      	lsls	r3, r3, #21
 8002fe8:	0d5b      	lsrs	r3, r3, #21
 8002fea:	d14a      	bne.n	8003082 <flash_erase_page+0xa6>

	// Attendre la fin des oprations flash
	while (FLASH->SR & FLASH_SR_BSY1);
 8002fec:	46c0      	nop			@ (mov r8, r8)
 8002fee:	4b27      	ldr	r3, [pc, #156]	@ (800308c <flash_erase_page+0xb0>)
 8002ff0:	691a      	ldr	r2, [r3, #16]
 8002ff2:	2380      	movs	r3, #128	@ 0x80
 8002ff4:	025b      	lsls	r3, r3, #9
 8002ff6:	4013      	ands	r3, r2
 8002ff8:	d1f9      	bne.n	8002fee <flash_erase_page+0x12>

	// Dverrouiller la flash
	if (FLASH->CR & FLASH_CR_LOCK) {
 8002ffa:	4b24      	ldr	r3, [pc, #144]	@ (800308c <flash_erase_page+0xb0>)
 8002ffc:	695b      	ldr	r3, [r3, #20]
 8002ffe:	2b00      	cmp	r3, #0
 8003000:	da05      	bge.n	800300e <flash_erase_page+0x32>
		FLASH->KEYR = 0x45670123;
 8003002:	4b22      	ldr	r3, [pc, #136]	@ (800308c <flash_erase_page+0xb0>)
 8003004:	4a22      	ldr	r2, [pc, #136]	@ (8003090 <flash_erase_page+0xb4>)
 8003006:	609a      	str	r2, [r3, #8]
		FLASH->KEYR = 0xCDEF89AB;
 8003008:	4b20      	ldr	r3, [pc, #128]	@ (800308c <flash_erase_page+0xb0>)
 800300a:	4a22      	ldr	r2, [pc, #136]	@ (8003094 <flash_erase_page+0xb8>)
 800300c:	609a      	str	r2, [r3, #8]
	}

	// Effacer les bits d'erreur
	FLASH->SR |= (FLASH_SR_OPERR | FLASH_SR_PROGERR | FLASH_SR_WRPERR |
 800300e:	4b1f      	ldr	r3, [pc, #124]	@ (800308c <flash_erase_page+0xb0>)
 8003010:	691a      	ldr	r2, [r3, #16]
 8003012:	4b1e      	ldr	r3, [pc, #120]	@ (800308c <flash_erase_page+0xb0>)
 8003014:	4920      	ldr	r1, [pc, #128]	@ (8003098 <flash_erase_page+0xbc>)
 8003016:	430a      	orrs	r2, r1
 8003018:	611a      	str	r2, [r3, #16]
			FLASH_SR_PGAERR | FLASH_SR_SIZERR | FLASH_SR_PGSERR |
			FLASH_SR_MISERR | FLASH_SR_FASTERR | FLASH_SR_RDERR);

	// Configurer pour effacement de page
	FLASH->CR |= FLASH_CR_PER;
 800301a:	4b1c      	ldr	r3, [pc, #112]	@ (800308c <flash_erase_page+0xb0>)
 800301c:	695a      	ldr	r2, [r3, #20]
 800301e:	4b1b      	ldr	r3, [pc, #108]	@ (800308c <flash_erase_page+0xb0>)
 8003020:	2102      	movs	r1, #2
 8003022:	430a      	orrs	r2, r1
 8003024:	615a      	str	r2, [r3, #20]
	FLASH->CR &= ~FLASH_CR_PNB_Msk;
 8003026:	4b19      	ldr	r3, [pc, #100]	@ (800308c <flash_erase_page+0xb0>)
 8003028:	695a      	ldr	r2, [r3, #20]
 800302a:	4b18      	ldr	r3, [pc, #96]	@ (800308c <flash_erase_page+0xb0>)
 800302c:	491b      	ldr	r1, [pc, #108]	@ (800309c <flash_erase_page+0xc0>)
 800302e:	400a      	ands	r2, r1
 8003030:	615a      	str	r2, [r3, #20]
	FLASH->CR |= ((page_addr - FLASH_BASE) / 2048) << FLASH_CR_PNB_Pos;
 8003032:	4b16      	ldr	r3, [pc, #88]	@ (800308c <flash_erase_page+0xb0>)
 8003034:	6959      	ldr	r1, [r3, #20]
 8003036:	687b      	ldr	r3, [r7, #4]
 8003038:	22f8      	movs	r2, #248	@ 0xf8
 800303a:	0612      	lsls	r2, r2, #24
 800303c:	4694      	mov	ip, r2
 800303e:	4463      	add	r3, ip
 8003040:	0adb      	lsrs	r3, r3, #11
 8003042:	00da      	lsls	r2, r3, #3
 8003044:	4b11      	ldr	r3, [pc, #68]	@ (800308c <flash_erase_page+0xb0>)
 8003046:	430a      	orrs	r2, r1
 8003048:	615a      	str	r2, [r3, #20]

	// Lancer l'effacement
	FLASH->CR |= FLASH_CR_STRT;
 800304a:	4b10      	ldr	r3, [pc, #64]	@ (800308c <flash_erase_page+0xb0>)
 800304c:	695a      	ldr	r2, [r3, #20]
 800304e:	4b0f      	ldr	r3, [pc, #60]	@ (800308c <flash_erase_page+0xb0>)
 8003050:	2180      	movs	r1, #128	@ 0x80
 8003052:	0249      	lsls	r1, r1, #9
 8003054:	430a      	orrs	r2, r1
 8003056:	615a      	str	r2, [r3, #20]

	// Attendre la fin de l'effacement
	while (FLASH->SR & FLASH_SR_BSY1);
 8003058:	46c0      	nop			@ (mov r8, r8)
 800305a:	4b0c      	ldr	r3, [pc, #48]	@ (800308c <flash_erase_page+0xb0>)
 800305c:	691a      	ldr	r2, [r3, #16]
 800305e:	2380      	movs	r3, #128	@ 0x80
 8003060:	025b      	lsls	r3, r3, #9
 8003062:	4013      	ands	r3, r2
 8003064:	d1f9      	bne.n	800305a <flash_erase_page+0x7e>

	// Dsactiver le mode effacement
	FLASH->CR &= ~FLASH_CR_PER;
 8003066:	4b09      	ldr	r3, [pc, #36]	@ (800308c <flash_erase_page+0xb0>)
 8003068:	695a      	ldr	r2, [r3, #20]
 800306a:	4b08      	ldr	r3, [pc, #32]	@ (800308c <flash_erase_page+0xb0>)
 800306c:	2102      	movs	r1, #2
 800306e:	438a      	bics	r2, r1
 8003070:	615a      	str	r2, [r3, #20]

	// Reverrouiller la flash
	FLASH->CR |= FLASH_CR_LOCK;
 8003072:	4b06      	ldr	r3, [pc, #24]	@ (800308c <flash_erase_page+0xb0>)
 8003074:	695a      	ldr	r2, [r3, #20]
 8003076:	4b05      	ldr	r3, [pc, #20]	@ (800308c <flash_erase_page+0xb0>)
 8003078:	2180      	movs	r1, #128	@ 0x80
 800307a:	0609      	lsls	r1, r1, #24
 800307c:	430a      	orrs	r2, r1
 800307e:	615a      	str	r2, [r3, #20]
 8003080:	e000      	b.n	8003084 <flash_erase_page+0xa8>
	if (page_addr % 2048 != 0) return;
 8003082:	46c0      	nop			@ (mov r8, r8)
}
 8003084:	46bd      	mov	sp, r7
 8003086:	b002      	add	sp, #8
 8003088:	bd80      	pop	{r7, pc}
 800308a:	46c0      	nop			@ (mov r8, r8)
 800308c:	40022000 	.word	0x40022000
 8003090:	45670123 	.word	0x45670123
 8003094:	cdef89ab 	.word	0xcdef89ab
 8003098:	000043fa 	.word	0x000043fa
 800309c:	ffffe007 	.word	0xffffe007

080030a0 <__NVIC_EnableIRQ>:
  \details Enables a device specific interrupt in the NVIC interrupt controller.
  \param [in]      IRQn  Device specific interrupt number.
  \note    IRQn must not be negative.
 */
__STATIC_INLINE void __NVIC_EnableIRQ(IRQn_Type IRQn)
{
 80030a0:	b580      	push	{r7, lr}
 80030a2:	b082      	sub	sp, #8
 80030a4:	af00      	add	r7, sp, #0
 80030a6:	0002      	movs	r2, r0
 80030a8:	1dfb      	adds	r3, r7, #7
 80030aa:	701a      	strb	r2, [r3, #0]
  if ((int32_t)(IRQn) >= 0)
 80030ac:	1dfb      	adds	r3, r7, #7
 80030ae:	781b      	ldrb	r3, [r3, #0]
 80030b0:	2b7f      	cmp	r3, #127	@ 0x7f
 80030b2:	d809      	bhi.n	80030c8 <__NVIC_EnableIRQ+0x28>
  {
    __COMPILER_BARRIER();
    NVIC->ISER[0U] = (uint32_t)(1UL << (((uint32_t)IRQn) & 0x1FUL));
 80030b4:	1dfb      	adds	r3, r7, #7
 80030b6:	781b      	ldrb	r3, [r3, #0]
 80030b8:	001a      	movs	r2, r3
 80030ba:	231f      	movs	r3, #31
 80030bc:	401a      	ands	r2, r3
 80030be:	4b04      	ldr	r3, [pc, #16]	@ (80030d0 <__NVIC_EnableIRQ+0x30>)
 80030c0:	2101      	movs	r1, #1
 80030c2:	4091      	lsls	r1, r2
 80030c4:	000a      	movs	r2, r1
 80030c6:	601a      	str	r2, [r3, #0]
    __COMPILER_BARRIER();
  }
}
 80030c8:	46c0      	nop			@ (mov r8, r8)
 80030ca:	46bd      	mov	sp, r7
 80030cc:	b002      	add	sp, #8
 80030ce:	bd80      	pop	{r7, pc}
 80030d0:	e000e100 	.word	0xe000e100

080030d4 <HX711_Init>:
/*-----Fonction-----*/

/**
 * \brief Appelle toutes les fonctions d'init des systmes
 */
void HX711_Init(void){
 80030d4:	b580      	push	{r7, lr}
 80030d6:	af00      	add	r7, sp, #0
	HX_Init();
 80030d8:	f000 f806 	bl	80030e8 <HX_Init>
	NVIC_Init();
 80030dc:	f000 f83a 	bl	8003154 <NVIC_Init>
}
 80030e0:	46c0      	nop			@ (mov r8, r8)
 80030e2:	46bd      	mov	sp, r7
 80030e4:	bd80      	pop	{r7, pc}
	...

080030e8 <HX_Init>:

/**
 * \brief Init GPIO, input/output pin
 */
void HX_Init(void){
 80030e8:	b580      	push	{r7, lr}
 80030ea:	af00      	add	r7, sp, #0
	/* Clock Init */
	RCC->IOPENR   |= RCC_IOPENR_GPIOBEN;
 80030ec:	4b14      	ldr	r3, [pc, #80]	@ (8003140 <HX_Init+0x58>)
 80030ee:	6b5a      	ldr	r2, [r3, #52]	@ 0x34
 80030f0:	4b13      	ldr	r3, [pc, #76]	@ (8003140 <HX_Init+0x58>)
 80030f2:	2102      	movs	r1, #2
 80030f4:	430a      	orrs	r2, r1
 80030f6:	635a      	str	r2, [r3, #52]	@ 0x34

	GPIOB->MODER  &= ~(GPIO_MODER_MODE8_Msk);
 80030f8:	4b12      	ldr	r3, [pc, #72]	@ (8003144 <HX_Init+0x5c>)
 80030fa:	681a      	ldr	r2, [r3, #0]
 80030fc:	4b11      	ldr	r3, [pc, #68]	@ (8003144 <HX_Init+0x5c>)
 80030fe:	4912      	ldr	r1, [pc, #72]	@ (8003148 <HX_Init+0x60>)
 8003100:	400a      	ands	r2, r1
 8003102:	601a      	str	r2, [r3, #0]
	GPIOB->MODER  |= OUTPUT_MODE << GPIO_MODER_MODE8_Pos;	// PB8 Output PDSK pour HX711
 8003104:	4b0f      	ldr	r3, [pc, #60]	@ (8003144 <HX_Init+0x5c>)
 8003106:	681a      	ldr	r2, [r3, #0]
 8003108:	4b0e      	ldr	r3, [pc, #56]	@ (8003144 <HX_Init+0x5c>)
 800310a:	2180      	movs	r1, #128	@ 0x80
 800310c:	0249      	lsls	r1, r1, #9
 800310e:	430a      	orrs	r2, r1
 8003110:	601a      	str	r2, [r3, #0]

	GPIOB->MODER  &= ~(GPIO_MODER_MODE9_Msk);
 8003112:	4b0c      	ldr	r3, [pc, #48]	@ (8003144 <HX_Init+0x5c>)
 8003114:	681a      	ldr	r2, [r3, #0]
 8003116:	4b0b      	ldr	r3, [pc, #44]	@ (8003144 <HX_Init+0x5c>)
 8003118:	490c      	ldr	r1, [pc, #48]	@ (800314c <HX_Init+0x64>)
 800311a:	400a      	ands	r2, r1
 800311c:	601a      	str	r2, [r3, #0]
	GPIOB->MODER  |= INPUT_MODE << GPIO_MODER_MODE9_Pos;	// PB9 en Input DOUT HX711
 800311e:	4a09      	ldr	r2, [pc, #36]	@ (8003144 <HX_Init+0x5c>)
 8003120:	4b08      	ldr	r3, [pc, #32]	@ (8003144 <HX_Init+0x5c>)
 8003122:	6812      	ldr	r2, [r2, #0]
 8003124:	601a      	str	r2, [r3, #0]

	GPIOB->MODER  &= ~(GPIO_MODER_MODE4_Msk);
 8003126:	4b07      	ldr	r3, [pc, #28]	@ (8003144 <HX_Init+0x5c>)
 8003128:	681a      	ldr	r2, [r3, #0]
 800312a:	4b06      	ldr	r3, [pc, #24]	@ (8003144 <HX_Init+0x5c>)
 800312c:	4908      	ldr	r1, [pc, #32]	@ (8003150 <HX_Init+0x68>)
 800312e:	400a      	ands	r2, r1
 8003130:	601a      	str	r2, [r3, #0]
	GPIOB->MODER  |= INPUT_MODE << GPIO_MODER_MODE4_Pos;	// PB4 en Input pour BP de Tare
 8003132:	4a04      	ldr	r2, [pc, #16]	@ (8003144 <HX_Init+0x5c>)
 8003134:	4b03      	ldr	r3, [pc, #12]	@ (8003144 <HX_Init+0x5c>)
 8003136:	6812      	ldr	r2, [r2, #0]
 8003138:	601a      	str	r2, [r3, #0]
}
 800313a:	46c0      	nop			@ (mov r8, r8)
 800313c:	46bd      	mov	sp, r7
 800313e:	bd80      	pop	{r7, pc}
 8003140:	40021000 	.word	0x40021000
 8003144:	50000400 	.word	0x50000400
 8003148:	fffcffff 	.word	0xfffcffff
 800314c:	fff3ffff 	.word	0xfff3ffff
 8003150:	fffffcff 	.word	0xfffffcff

08003154 <NVIC_Init>:

/**
 * \brief Init NVIC, PB4 en interrupt
 */
void NVIC_Init(void){
 8003154:	b580      	push	{r7, lr}
 8003156:	af00      	add	r7, sp, #0
	EXTI->EXTICR[1] |= (1 << EXTI_EXTICR2_EXTI4_Pos);		//PB4 sur la ligne EXTI
 8003158:	4b0c      	ldr	r3, [pc, #48]	@ (800318c <NVIC_Init+0x38>)
 800315a:	6e5a      	ldr	r2, [r3, #100]	@ 0x64
 800315c:	4b0b      	ldr	r3, [pc, #44]	@ (800318c <NVIC_Init+0x38>)
 800315e:	2101      	movs	r1, #1
 8003160:	430a      	orrs	r2, r1
 8003162:	665a      	str	r2, [r3, #100]	@ 0x64
	EXTI->RTSR1 |= (1 << EXTI_RTSR1_RT4_Pos);					//Rising Trigger
 8003164:	4b09      	ldr	r3, [pc, #36]	@ (800318c <NVIC_Init+0x38>)
 8003166:	681a      	ldr	r2, [r3, #0]
 8003168:	4b08      	ldr	r3, [pc, #32]	@ (800318c <NVIC_Init+0x38>)
 800316a:	2110      	movs	r1, #16
 800316c:	430a      	orrs	r2, r1
 800316e:	601a      	str	r2, [r3, #0]
	EXTI->IMR1 |= (1 << EXTI_IMR1_IM4_Pos);
 8003170:	4a06      	ldr	r2, [pc, #24]	@ (800318c <NVIC_Init+0x38>)
 8003172:	2380      	movs	r3, #128	@ 0x80
 8003174:	58d3      	ldr	r3, [r2, r3]
 8003176:	4905      	ldr	r1, [pc, #20]	@ (800318c <NVIC_Init+0x38>)
 8003178:	2210      	movs	r2, #16
 800317a:	4313      	orrs	r3, r2
 800317c:	2280      	movs	r2, #128	@ 0x80
 800317e:	508b      	str	r3, [r1, r2]
	NVIC_EnableIRQ(EXTI4_15_IRQn);
 8003180:	2007      	movs	r0, #7
 8003182:	f7ff ff8d 	bl	80030a0 <__NVIC_EnableIRQ>
}
 8003186:	46c0      	nop			@ (mov r8, r8)
 8003188:	46bd      	mov	sp, r7
 800318a:	bd80      	pop	{r7, pc}
 800318c:	40021800 	.word	0x40021800

08003190 <HX_Run>:
/**
 * \brief Main du HX711
 * \details Cette fonction gre le fonctionement du HX aprs l'init et appelle des fonctions d'envoie des donnes
 * \param[in] tare tare  0 selon le terrain o se trouve la balance
 */
uint32_t HX_Run(uint32_t tare){
 8003190:	b590      	push	{r4, r7, lr}
 8003192:	b085      	sub	sp, #20
 8003194:	af00      	add	r7, sp, #0
 8003196:	6078      	str	r0, [r7, #4]
	uint32_t donnee = 0;
 8003198:	2300      	movs	r3, #0
 800319a:	60fb      	str	r3, [r7, #12]
	//float masse = 0.0;

	donnee = hx_read(0) & 0x7FFFFF;
 800319c:	2000      	movs	r0, #0
 800319e:	f000 f871 	bl	8003284 <hx_read>
 80031a2:	0003      	movs	r3, r0
 80031a4:	025b      	lsls	r3, r3, #9
 80031a6:	0a5b      	lsrs	r3, r3, #9
 80031a8:	60fb      	str	r3, [r7, #12]

	//	masse = (roundf(masse * 100) / 100)*10;

	return (uint32_t)((((float)donnee - (float)tare) / 11363.87)*1000);
 80031aa:	68f8      	ldr	r0, [r7, #12]
 80031ac:	f7fd fcc4 	bl	8000b38 <__aeabi_ui2f>
 80031b0:	1c04      	adds	r4, r0, #0
 80031b2:	6878      	ldr	r0, [r7, #4]
 80031b4:	f7fd fcc0 	bl	8000b38 <__aeabi_ui2f>
 80031b8:	1c03      	adds	r3, r0, #0
 80031ba:	1c19      	adds	r1, r3, #0
 80031bc:	1c20      	adds	r0, r4, #0
 80031be:	f7fd faf7 	bl	80007b0 <__aeabi_fsub>
 80031c2:	1c03      	adds	r3, r0, #0
 80031c4:	1c18      	adds	r0, r3, #0
 80031c6:	f7ff fbb5 	bl	8002934 <__aeabi_f2d>
 80031ca:	4a0b      	ldr	r2, [pc, #44]	@ (80031f8 <HX_Run+0x68>)
 80031cc:	4b0b      	ldr	r3, [pc, #44]	@ (80031fc <HX_Run+0x6c>)
 80031ce:	f7fe f859 	bl	8001284 <__aeabi_ddiv>
 80031d2:	0002      	movs	r2, r0
 80031d4:	000b      	movs	r3, r1
 80031d6:	0010      	movs	r0, r2
 80031d8:	0019      	movs	r1, r3
 80031da:	2200      	movs	r2, #0
 80031dc:	4b08      	ldr	r3, [pc, #32]	@ (8003200 <HX_Run+0x70>)
 80031de:	f7fe fc95 	bl	8001b0c <__aeabi_dmul>
 80031e2:	0002      	movs	r2, r0
 80031e4:	000b      	movs	r3, r1
 80031e6:	0010      	movs	r0, r2
 80031e8:	0019      	movs	r1, r3
 80031ea:	f7fd f9ad 	bl	8000548 <__aeabi_d2uiz>
 80031ee:	0003      	movs	r3, r0
	delay_ms(500);
}
 80031f0:	0018      	movs	r0, r3
 80031f2:	46bd      	mov	sp, r7
 80031f4:	b005      	add	sp, #20
 80031f6:	bd90      	pop	{r4, r7, pc}
 80031f8:	5c28f5c3 	.word	0x5c28f5c3
 80031fc:	40c631ef 	.word	0x40c631ef
 8003200:	408f4000 	.word	0x408f4000

08003204 <ODR_write>:
 * \param[in] num_pin prends le numro de la pin dont la valeur doit changer pour effectuer le dcalage
 * \param[in] valeur prends la nouvelle valeur de sortie souhaite
 * \param[in] nom_port prends le nom du port sur lequel la pin se situe pour pouvoir fonctionner sur tous les ports GPIO
 */
void ODR_write(uint8_t num_pin, uint8_t valeur, GPIO_TypeDef * nom_port)
{
 8003204:	b580      	push	{r7, lr}
 8003206:	b084      	sub	sp, #16
 8003208:	af00      	add	r7, sp, #0
 800320a:	603a      	str	r2, [r7, #0]
 800320c:	1dfb      	adds	r3, r7, #7
 800320e:	1c02      	adds	r2, r0, #0
 8003210:	701a      	strb	r2, [r3, #0]
 8003212:	1dbb      	adds	r3, r7, #6
 8003214:	1c0a      	adds	r2, r1, #0
 8003216:	701a      	strb	r2, [r3, #0]
	uint32_t mask = 1 << num_pin;
 8003218:	1dfb      	adds	r3, r7, #7
 800321a:	781b      	ldrb	r3, [r3, #0]
 800321c:	2201      	movs	r2, #1
 800321e:	409a      	lsls	r2, r3
 8003220:	0013      	movs	r3, r2
 8003222:	60fb      	str	r3, [r7, #12]


	if(valeur == 0)
 8003224:	1dbb      	adds	r3, r7, #6
 8003226:	781b      	ldrb	r3, [r3, #0]
 8003228:	2b00      	cmp	r3, #0
 800322a:	d107      	bne.n	800323c <ODR_write+0x38>
	{
		nom_port->ODR &= ~(mask);
 800322c:	683b      	ldr	r3, [r7, #0]
 800322e:	695b      	ldr	r3, [r3, #20]
 8003230:	68fa      	ldr	r2, [r7, #12]
 8003232:	43d2      	mvns	r2, r2
 8003234:	401a      	ands	r2, r3
 8003236:	683b      	ldr	r3, [r7, #0]
 8003238:	615a      	str	r2, [r3, #20]
	}
	else
	{
		nom_port->ODR |= mask;
	}
}
 800323a:	e005      	b.n	8003248 <ODR_write+0x44>
		nom_port->ODR |= mask;
 800323c:	683b      	ldr	r3, [r7, #0]
 800323e:	695a      	ldr	r2, [r3, #20]
 8003240:	68fb      	ldr	r3, [r7, #12]
 8003242:	431a      	orrs	r2, r3
 8003244:	683b      	ldr	r3, [r7, #0]
 8003246:	615a      	str	r2, [r3, #20]
}
 8003248:	46c0      	nop			@ (mov r8, r8)
 800324a:	46bd      	mov	sp, r7
 800324c:	b004      	add	sp, #16
 800324e:	bd80      	pop	{r7, pc}

08003250 <IDR_read>:
 * \warning Cette fonction ne DOIT PAS tre utilise sur une sortie UART ou autre
 * \param[in] num_pin prends le numro de la pin dont la valeur doit changer pour effectuer le dcalage
 * \param[in] nom_port prends le nom du port sur lequel la pin se situe pour pouvoir fonctionner sur tous les ports GPIO
 */
uint8_t IDR_read(uint8_t num_pin, GPIO_TypeDef * nom_port)
{
 8003250:	b580      	push	{r7, lr}
 8003252:	b084      	sub	sp, #16
 8003254:	af00      	add	r7, sp, #0
 8003256:	0002      	movs	r2, r0
 8003258:	6039      	str	r1, [r7, #0]
 800325a:	1dfb      	adds	r3, r7, #7
 800325c:	701a      	strb	r2, [r3, #0]
	uint32_t value = nom_port->IDR;
 800325e:	683b      	ldr	r3, [r7, #0]
 8003260:	691b      	ldr	r3, [r3, #16]
 8003262:	60fb      	str	r3, [r7, #12]

	value = value >> num_pin;
 8003264:	1dfb      	adds	r3, r7, #7
 8003266:	781b      	ldrb	r3, [r3, #0]
 8003268:	68fa      	ldr	r2, [r7, #12]
 800326a:	40da      	lsrs	r2, r3
 800326c:	0013      	movs	r3, r2
 800326e:	60fb      	str	r3, [r7, #12]
	value &= 1;
 8003270:	68fb      	ldr	r3, [r7, #12]
 8003272:	2201      	movs	r2, #1
 8003274:	4013      	ands	r3, r2
 8003276:	60fb      	str	r3, [r7, #12]

	return (uint8_t)(value);
 8003278:	68fb      	ldr	r3, [r7, #12]
 800327a:	b2db      	uxtb	r3, r3
}
 800327c:	0018      	movs	r0, r3
 800327e:	46bd      	mov	sp, r7
 8003280:	b004      	add	sp, #16
 8003282:	bd80      	pop	{r7, pc}

08003284 <hx_read>:
/**
 * \brief Rcupre les donnes transmisent par le HX711
 * \details Cette fonction reoit 24 bits de donne et doit envoyer 25 coups d'horloge au HX
 * \param[in] Low_Power si est  1, met le hx en mode LP
 */
uint32_t hx_read(uint8_t Low_Power){
 8003284:	b580      	push	{r7, lr}
 8003286:	b084      	sub	sp, #16
 8003288:	af00      	add	r7, sp, #0
 800328a:	0002      	movs	r2, r0
 800328c:	1dfb      	adds	r3, r7, #7
 800328e:	701a      	strb	r2, [r3, #0]
	uint32_t Count = 0;
 8003290:	2300      	movs	r3, #0
 8003292:	60fb      	str	r3, [r7, #12]
	uint8_t i;
	//uint8_t return_value;

	ODR_write(8,0,GPIOB);
 8003294:	4b2f      	ldr	r3, [pc, #188]	@ (8003354 <hx_read+0xd0>)
 8003296:	001a      	movs	r2, r3
 8003298:	2100      	movs	r1, #0
 800329a:	2008      	movs	r0, #8
 800329c:	f7ff ffb2 	bl	8003204 <ODR_write>
	while(IDR_read(9,GPIOB)==1);
 80032a0:	46c0      	nop			@ (mov r8, r8)
 80032a2:	4b2c      	ldr	r3, [pc, #176]	@ (8003354 <hx_read+0xd0>)
 80032a4:	0019      	movs	r1, r3
 80032a6:	2009      	movs	r0, #9
 80032a8:	f7ff ffd2 	bl	8003250 <IDR_read>
 80032ac:	0003      	movs	r3, r0
 80032ae:	2b01      	cmp	r3, #1
 80032b0:	d0f7      	beq.n	80032a2 <hx_read+0x1e>


	for (i=0;i<24;i++){
 80032b2:	230b      	movs	r3, #11
 80032b4:	18fb      	adds	r3, r7, r3
 80032b6:	2200      	movs	r2, #0
 80032b8:	701a      	strb	r2, [r3, #0]
 80032ba:	e025      	b.n	8003308 <hx_read+0x84>

		ODR_write(8,1,GPIOB);
 80032bc:	4b25      	ldr	r3, [pc, #148]	@ (8003354 <hx_read+0xd0>)
 80032be:	001a      	movs	r2, r3
 80032c0:	2101      	movs	r1, #1
 80032c2:	2008      	movs	r0, #8
 80032c4:	f7ff ff9e 	bl	8003204 <ODR_write>
		Count=Count<<1;
 80032c8:	68fb      	ldr	r3, [r7, #12]
 80032ca:	005b      	lsls	r3, r3, #1
 80032cc:	60fb      	str	r3, [r7, #12]
		delay_us(40);
 80032ce:	2028      	movs	r0, #40	@ 0x28
 80032d0:	f000 fca0 	bl	8003c14 <delay_us>
		if(IDR_read(9,GPIOB)== 1){
 80032d4:	4b1f      	ldr	r3, [pc, #124]	@ (8003354 <hx_read+0xd0>)
 80032d6:	0019      	movs	r1, r3
 80032d8:	2009      	movs	r0, #9
 80032da:	f7ff ffb9 	bl	8003250 <IDR_read>
 80032de:	0003      	movs	r3, r0
 80032e0:	2b01      	cmp	r3, #1
 80032e2:	d102      	bne.n	80032ea <hx_read+0x66>
			Count++;
 80032e4:	68fb      	ldr	r3, [r7, #12]
 80032e6:	3301      	adds	r3, #1
 80032e8:	60fb      	str	r3, [r7, #12]
		}
		ODR_write(8,0,GPIOB);
 80032ea:	4b1a      	ldr	r3, [pc, #104]	@ (8003354 <hx_read+0xd0>)
 80032ec:	001a      	movs	r2, r3
 80032ee:	2100      	movs	r1, #0
 80032f0:	2008      	movs	r0, #8
 80032f2:	f7ff ff87 	bl	8003204 <ODR_write>

		delay_us(40);
 80032f6:	2028      	movs	r0, #40	@ 0x28
 80032f8:	f000 fc8c 	bl	8003c14 <delay_us>
	for (i=0;i<24;i++){
 80032fc:	210b      	movs	r1, #11
 80032fe:	187b      	adds	r3, r7, r1
 8003300:	781a      	ldrb	r2, [r3, #0]
 8003302:	187b      	adds	r3, r7, r1
 8003304:	3201      	adds	r2, #1
 8003306:	701a      	strb	r2, [r3, #0]
 8003308:	230b      	movs	r3, #11
 800330a:	18fb      	adds	r3, r7, r3
 800330c:	781b      	ldrb	r3, [r3, #0]
 800330e:	2b17      	cmp	r3, #23
 8003310:	d9d4      	bls.n	80032bc <hx_read+0x38>
	}


	ODR_write(8,1,GPIOB);
 8003312:	4b10      	ldr	r3, [pc, #64]	@ (8003354 <hx_read+0xd0>)
 8003314:	001a      	movs	r2, r3
 8003316:	2101      	movs	r1, #1
 8003318:	2008      	movs	r0, #8
 800331a:	f7ff ff73 	bl	8003204 <ODR_write>
	Count=Count^0x800000;
 800331e:	68fb      	ldr	r3, [r7, #12]
 8003320:	2280      	movs	r2, #128	@ 0x80
 8003322:	0412      	lsls	r2, r2, #16
 8003324:	4053      	eors	r3, r2
 8003326:	60fb      	str	r3, [r7, #12]

	if(Low_Power == 1){					//Aprs rception des donnes, le hx peut se mettre en LP si PDS_clk reste  1
 8003328:	1dfb      	adds	r3, r7, #7
 800332a:	781b      	ldrb	r3, [r3, #0]
 800332c:	2b01      	cmp	r3, #1
 800332e:	d106      	bne.n	800333e <hx_read+0xba>
		ODR_write(8,1,GPIOB);
 8003330:	4b08      	ldr	r3, [pc, #32]	@ (8003354 <hx_read+0xd0>)
 8003332:	001a      	movs	r2, r3
 8003334:	2101      	movs	r1, #1
 8003336:	2008      	movs	r0, #8
 8003338:	f7ff ff64 	bl	8003204 <ODR_write>
 800333c:	e005      	b.n	800334a <hx_read+0xc6>
	}
	else{
		ODR_write(8,0,GPIOB);
 800333e:	4b05      	ldr	r3, [pc, #20]	@ (8003354 <hx_read+0xd0>)
 8003340:	001a      	movs	r2, r3
 8003342:	2100      	movs	r1, #0
 8003344:	2008      	movs	r0, #8
 8003346:	f7ff ff5d 	bl	8003204 <ODR_write>
	}

	return Count;
 800334a:	68fb      	ldr	r3, [r7, #12]
}
 800334c:	0018      	movs	r0, r3
 800334e:	46bd      	mov	sp, r7
 8003350:	b004      	add	sp, #16
 8003352:	bd80      	pop	{r7, pc}
 8003354:	50000400 	.word	0x50000400

08003358 <EXTI4_15_IRQHandler>:

/**
 * \brief Gestion d'interruption HX711
 * \details Cette fonction gre l'interruption de la tare_user via GPIOB PB4
 */
void EXTI4_15_IRQHandler(void) {
 8003358:	b5b0      	push	{r4, r5, r7, lr}
 800335a:	b082      	sub	sp, #8
 800335c:	af00      	add	r7, sp, #0
	tare_user = 0;
 800335e:	4b2a      	ldr	r3, [pc, #168]	@ (8003408 <EXTI4_15_IRQHandler+0xb0>)
 8003360:	2200      	movs	r2, #0
 8003362:	601a      	str	r2, [r3, #0]

	for (uint8_t i = 0; i < 5; i++) {
 8003364:	1dfb      	adds	r3, r7, #7
 8003366:	2200      	movs	r2, #0
 8003368:	701a      	strb	r2, [r3, #0]
 800336a:	e00f      	b.n	800338c <EXTI4_15_IRQHandler+0x34>
		calibration[i] = hx_read(0) & 0x7FFFFF;
 800336c:	2000      	movs	r0, #0
 800336e:	f7ff ff89 	bl	8003284 <hx_read>
 8003372:	0001      	movs	r1, r0
 8003374:	1dfb      	adds	r3, r7, #7
 8003376:	781a      	ldrb	r2, [r3, #0]
 8003378:	024b      	lsls	r3, r1, #9
 800337a:	0a59      	lsrs	r1, r3, #9
 800337c:	4b23      	ldr	r3, [pc, #140]	@ (800340c <EXTI4_15_IRQHandler+0xb4>)
 800337e:	0092      	lsls	r2, r2, #2
 8003380:	50d1      	str	r1, [r2, r3]
	for (uint8_t i = 0; i < 5; i++) {
 8003382:	1dfb      	adds	r3, r7, #7
 8003384:	781a      	ldrb	r2, [r3, #0]
 8003386:	1dfb      	adds	r3, r7, #7
 8003388:	3201      	adds	r2, #1
 800338a:	701a      	strb	r2, [r3, #0]
 800338c:	1dfb      	adds	r3, r7, #7
 800338e:	781b      	ldrb	r3, [r3, #0]
 8003390:	2b04      	cmp	r3, #4
 8003392:	d9eb      	bls.n	800336c <EXTI4_15_IRQHandler+0x14>
	}

	//moyenne
	for (uint8_t i = 0; i < 5; i++) {
 8003394:	1dbb      	adds	r3, r7, #6
 8003396:	2200      	movs	r2, #0
 8003398:	701a      	strb	r2, [r3, #0]
 800339a:	e00e      	b.n	80033ba <EXTI4_15_IRQHandler+0x62>
		tare_user += calibration[i];
 800339c:	1dbb      	adds	r3, r7, #6
 800339e:	781a      	ldrb	r2, [r3, #0]
 80033a0:	4b1a      	ldr	r3, [pc, #104]	@ (800340c <EXTI4_15_IRQHandler+0xb4>)
 80033a2:	0092      	lsls	r2, r2, #2
 80033a4:	58d2      	ldr	r2, [r2, r3]
 80033a6:	4b18      	ldr	r3, [pc, #96]	@ (8003408 <EXTI4_15_IRQHandler+0xb0>)
 80033a8:	681b      	ldr	r3, [r3, #0]
 80033aa:	18d2      	adds	r2, r2, r3
 80033ac:	4b16      	ldr	r3, [pc, #88]	@ (8003408 <EXTI4_15_IRQHandler+0xb0>)
 80033ae:	601a      	str	r2, [r3, #0]
	for (uint8_t i = 0; i < 5; i++) {
 80033b0:	1dbb      	adds	r3, r7, #6
 80033b2:	781a      	ldrb	r2, [r3, #0]
 80033b4:	1dbb      	adds	r3, r7, #6
 80033b6:	3201      	adds	r2, #1
 80033b8:	701a      	strb	r2, [r3, #0]
 80033ba:	1dbb      	adds	r3, r7, #6
 80033bc:	781b      	ldrb	r3, [r3, #0]
 80033be:	2b04      	cmp	r3, #4
 80033c0:	d9ec      	bls.n	800339c <EXTI4_15_IRQHandler+0x44>
	}
	tare_user /= 5;
 80033c2:	4b11      	ldr	r3, [pc, #68]	@ (8003408 <EXTI4_15_IRQHandler+0xb0>)
 80033c4:	681b      	ldr	r3, [r3, #0]
 80033c6:	2105      	movs	r1, #5
 80033c8:	0018      	movs	r0, r3
 80033ca:	f7fc feb7 	bl	800013c <__udivsi3>
 80033ce:	0003      	movs	r3, r0
 80033d0:	001a      	movs	r2, r3
 80033d2:	4b0d      	ldr	r3, [pc, #52]	@ (8003408 <EXTI4_15_IRQHandler+0xb0>)
 80033d4:	601a      	str	r2, [r3, #0]
	flash_erase_page(ROMADDR);
 80033d6:	4b0e      	ldr	r3, [pc, #56]	@ (8003410 <EXTI4_15_IRQHandler+0xb8>)
 80033d8:	0018      	movs	r0, r3
 80033da:	f7ff fdff 	bl	8002fdc <flash_erase_page>
	flash_write(ROMADDR, (uint64_t) tare_user);
 80033de:	4b0a      	ldr	r3, [pc, #40]	@ (8003408 <EXTI4_15_IRQHandler+0xb0>)
 80033e0:	681b      	ldr	r3, [r3, #0]
 80033e2:	001c      	movs	r4, r3
 80033e4:	2300      	movs	r3, #0
 80033e6:	001d      	movs	r5, r3
 80033e8:	4909      	ldr	r1, [pc, #36]	@ (8003410 <EXTI4_15_IRQHandler+0xb8>)
 80033ea:	0022      	movs	r2, r4
 80033ec:	002b      	movs	r3, r5
 80033ee:	0008      	movs	r0, r1
 80033f0:	f7ff fd88 	bl	8002f04 <flash_write>
	EXTI->RPR1 |= 1 << EXTI_RPR1_RPIF4_Pos;	//Ecrire 1 pour reset ATTENTION !!
 80033f4:	4b07      	ldr	r3, [pc, #28]	@ (8003414 <EXTI4_15_IRQHandler+0xbc>)
 80033f6:	68da      	ldr	r2, [r3, #12]
 80033f8:	4b06      	ldr	r3, [pc, #24]	@ (8003414 <EXTI4_15_IRQHandler+0xbc>)
 80033fa:	2110      	movs	r1, #16
 80033fc:	430a      	orrs	r2, r1
 80033fe:	60da      	str	r2, [r3, #12]
}
 8003400:	46c0      	nop			@ (mov r8, r8)
 8003402:	46bd      	mov	sp, r7
 8003404:	b002      	add	sp, #8
 8003406:	bdb0      	pop	{r4, r5, r7, pc}
 8003408:	200001e8 	.word	0x200001e8
 800340c:	200001ec 	.word	0x200001ec
 8003410:	0800f800 	.word	0x0800f800
 8003414:	40021800 	.word	0x40021800

08003418 <LORA_initPortCom>:
//-----Variable Global-----//
uint8_t rcvBuffer[512] = {0};
uint16_t iterateurRcvBuffer = 0;

//-----Prototype-----//
void LORA_initPortCom(void) {
 8003418:	b5b0      	push	{r4, r5, r7, lr}
 800341a:	af00      	add	r7, sp, #0
	/* GPIO Init for UART on NUCLEO Board */
	RCC->IOPENR |=  RCC_IOPENR_GPIOBEN;
 800341c:	4b25      	ldr	r3, [pc, #148]	@ (80034b4 <LORA_initPortCom+0x9c>)
 800341e:	6b5a      	ldr	r2, [r3, #52]	@ 0x34
 8003420:	4b24      	ldr	r3, [pc, #144]	@ (80034b4 <LORA_initPortCom+0x9c>)
 8003422:	2102      	movs	r1, #2
 8003424:	430a      	orrs	r2, r1
 8003426:	635a      	str	r2, [r3, #52]	@ 0x34

	GPIOB->MODER  &= ~(GPIO_MODER_MODE6_Msk);
 8003428:	4b23      	ldr	r3, [pc, #140]	@ (80034b8 <LORA_initPortCom+0xa0>)
 800342a:	681a      	ldr	r2, [r3, #0]
 800342c:	4b22      	ldr	r3, [pc, #136]	@ (80034b8 <LORA_initPortCom+0xa0>)
 800342e:	4923      	ldr	r1, [pc, #140]	@ (80034bc <LORA_initPortCom+0xa4>)
 8003430:	400a      	ands	r2, r1
 8003432:	601a      	str	r2, [r3, #0]
	GPIOB->MODER  |= ALTERN_MODE << GPIO_MODER_MODE6_Pos;	// PB6 mode alternate function
 8003434:	4b20      	ldr	r3, [pc, #128]	@ (80034b8 <LORA_initPortCom+0xa0>)
 8003436:	681a      	ldr	r2, [r3, #0]
 8003438:	4b1f      	ldr	r3, [pc, #124]	@ (80034b8 <LORA_initPortCom+0xa0>)
 800343a:	2180      	movs	r1, #128	@ 0x80
 800343c:	0189      	lsls	r1, r1, #6
 800343e:	430a      	orrs	r2, r1
 8003440:	601a      	str	r2, [r3, #0]
	GPIOB->MODER  &= ~(GPIO_MODER_MODE7_Msk);
 8003442:	4b1d      	ldr	r3, [pc, #116]	@ (80034b8 <LORA_initPortCom+0xa0>)
 8003444:	681a      	ldr	r2, [r3, #0]
 8003446:	4b1c      	ldr	r3, [pc, #112]	@ (80034b8 <LORA_initPortCom+0xa0>)
 8003448:	491d      	ldr	r1, [pc, #116]	@ (80034c0 <LORA_initPortCom+0xa8>)
 800344a:	400a      	ands	r2, r1
 800344c:	601a      	str	r2, [r3, #0]
	GPIOB->MODER  |= ALTERN_MODE << GPIO_MODER_MODE7_Pos;	// PB7 mode alternate function
 800344e:	4b1a      	ldr	r3, [pc, #104]	@ (80034b8 <LORA_initPortCom+0xa0>)
 8003450:	681a      	ldr	r2, [r3, #0]
 8003452:	4b19      	ldr	r3, [pc, #100]	@ (80034b8 <LORA_initPortCom+0xa0>)
 8003454:	2180      	movs	r1, #128	@ 0x80
 8003456:	0209      	lsls	r1, r1, #8
 8003458:	430a      	orrs	r2, r1
 800345a:	601a      	str	r2, [r3, #0]

	//open-drain
	GPIOB->OTYPER |= 1 << GPIO_OTYPER_OT6_Pos;
 800345c:	4b16      	ldr	r3, [pc, #88]	@ (80034b8 <LORA_initPortCom+0xa0>)
 800345e:	685a      	ldr	r2, [r3, #4]
 8003460:	4b15      	ldr	r3, [pc, #84]	@ (80034b8 <LORA_initPortCom+0xa0>)
 8003462:	2140      	movs	r1, #64	@ 0x40
 8003464:	430a      	orrs	r2, r1
 8003466:	605a      	str	r2, [r3, #4]

	GPIOB->AFR[0] &= ~(GPIO_AFRL_AFSEL6_Msk);				//Reset
 8003468:	4b13      	ldr	r3, [pc, #76]	@ (80034b8 <LORA_initPortCom+0xa0>)
 800346a:	6a1a      	ldr	r2, [r3, #32]
 800346c:	4b12      	ldr	r3, [pc, #72]	@ (80034b8 <LORA_initPortCom+0xa0>)
 800346e:	4915      	ldr	r1, [pc, #84]	@ (80034c4 <LORA_initPortCom+0xac>)
 8003470:	400a      	ands	r2, r1
 8003472:	621a      	str	r2, [r3, #32]
	GPIOB->AFR[0] &= ~(GPIO_AFRL_AFSEL7_Msk);				//Reset
 8003474:	4b10      	ldr	r3, [pc, #64]	@ (80034b8 <LORA_initPortCom+0xa0>)
 8003476:	6a1a      	ldr	r2, [r3, #32]
 8003478:	4b0f      	ldr	r3, [pc, #60]	@ (80034b8 <LORA_initPortCom+0xa0>)
 800347a:	0112      	lsls	r2, r2, #4
 800347c:	0912      	lsrs	r2, r2, #4
 800347e:	621a      	str	r2, [r3, #32]

	//Init UART
	RCC->APBENR2 |= RCC_APBENR2_USART1EN;
 8003480:	4b0c      	ldr	r3, [pc, #48]	@ (80034b4 <LORA_initPortCom+0x9c>)
 8003482:	6c1a      	ldr	r2, [r3, #64]	@ 0x40
 8003484:	4b0b      	ldr	r3, [pc, #44]	@ (80034b4 <LORA_initPortCom+0x9c>)
 8003486:	2180      	movs	r1, #128	@ 0x80
 8003488:	01c9      	lsls	r1, r1, #7
 800348a:	430a      	orrs	r2, r1
 800348c:	641a      	str	r2, [r3, #64]	@ 0x40

	//TODO uncomment if UART rx used
//	USART1->CR1 |= 1 << USART_CR1_RXNEIE_RXFNEIE_Pos;		//Enable interruption on reception
//	NVIC_EnableIRQ(USART1_IRQn);

	USART1->CR1 |= (1<<USART_CR1_TE_Pos) | (1 << USART_CR1_RE_Pos);
 800348e:	4b0e      	ldr	r3, [pc, #56]	@ (80034c8 <LORA_initPortCom+0xb0>)
 8003490:	681a      	ldr	r2, [r3, #0]
 8003492:	4b0d      	ldr	r3, [pc, #52]	@ (80034c8 <LORA_initPortCom+0xb0>)
 8003494:	210c      	movs	r1, #12
 8003496:	430a      	orrs	r2, r1
 8003498:	601a      	str	r2, [r3, #0]
	USART1->BRR = SystemCoreClock / 9600;
 800349a:	4b0c      	ldr	r3, [pc, #48]	@ (80034cc <LORA_initPortCom+0xb4>)
 800349c:	681b      	ldr	r3, [r3, #0]
 800349e:	4c0a      	ldr	r4, [pc, #40]	@ (80034c8 <LORA_initPortCom+0xb0>)
 80034a0:	2296      	movs	r2, #150	@ 0x96
 80034a2:	0191      	lsls	r1, r2, #6
 80034a4:	0018      	movs	r0, r3
 80034a6:	f7fc fe49 	bl	800013c <__udivsi3>
 80034aa:	0003      	movs	r3, r0
 80034ac:	60e3      	str	r3, [r4, #12]
}
 80034ae:	46c0      	nop			@ (mov r8, r8)
 80034b0:	46bd      	mov	sp, r7
 80034b2:	bdb0      	pop	{r4, r5, r7, pc}
 80034b4:	40021000 	.word	0x40021000
 80034b8:	50000400 	.word	0x50000400
 80034bc:	ffffcfff 	.word	0xffffcfff
 80034c0:	ffff3fff 	.word	0xffff3fff
 80034c4:	f0ffffff 	.word	0xf0ffffff
 80034c8:	40013800 	.word	0x40013800
 80034cc:	20000000 	.word	0x20000000

080034d0 <LORA_startPortCom>:

void LORA_startPortCom(void) {
 80034d0:	b580      	push	{r7, lr}
 80034d2:	af00      	add	r7, sp, #0
	USART1->CR1 |= (1<<USART_CR1_UE_Pos);
 80034d4:	4b04      	ldr	r3, [pc, #16]	@ (80034e8 <LORA_startPortCom+0x18>)
 80034d6:	681a      	ldr	r2, [r3, #0]
 80034d8:	4b03      	ldr	r3, [pc, #12]	@ (80034e8 <LORA_startPortCom+0x18>)
 80034da:	2101      	movs	r1, #1
 80034dc:	430a      	orrs	r2, r1
 80034de:	601a      	str	r2, [r3, #0]
}
 80034e0:	46c0      	nop			@ (mov r8, r8)
 80034e2:	46bd      	mov	sp, r7
 80034e4:	bd80      	pop	{r7, pc}
 80034e6:	46c0      	nop			@ (mov r8, r8)
 80034e8:	40013800 	.word	0x40013800

080034ec <LORAWAN_Join>:

void LORA_stopPortCom(void) {
	USART1->CR1 &= ~(1<<USART_CR1_UE_Pos);
}

void LORAWAN_Join(void){
 80034ec:	b590      	push	{r4, r7, lr}
 80034ee:	b0c1      	sub	sp, #260	@ 0x104
 80034f0:	af00      	add	r7, sp, #0
	SYSTICK_Delay(1000);
 80034f2:	23fa      	movs	r3, #250	@ 0xfa
 80034f4:	009b      	lsls	r3, r3, #2
 80034f6:	0018      	movs	r0, r3
 80034f8:	f000 fb46 	bl	8003b88 <SYSTICK_Delay>
	LORA_initPortCom();
 80034fc:	f7ff ff8c 	bl	8003418 <LORA_initPortCom>
	LORA_startPortCom();
 8003500:	f7ff ffe6 	bl	80034d0 <LORA_startPortCom>

	char bufferToSend[255] = "AT+JOIN\r\n";
 8003504:	4b0f      	ldr	r3, [pc, #60]	@ (8003544 <LORAWAN_Join+0x58>)
 8003506:	3301      	adds	r3, #1
 8003508:	33ff      	adds	r3, #255	@ 0xff
 800350a:	19dc      	adds	r4, r3, r7
 800350c:	4b0e      	ldr	r3, [pc, #56]	@ (8003548 <LORAWAN_Join+0x5c>)
 800350e:	0020      	movs	r0, r4
 8003510:	0019      	movs	r1, r3
 8003512:	230a      	movs	r3, #10
 8003514:	001a      	movs	r2, r3
 8003516:	f001 fc13 	bl	8004d40 <memcpy>
 800351a:	230a      	movs	r3, #10
 800351c:	18e3      	adds	r3, r4, r3
 800351e:	22f5      	movs	r2, #245	@ 0xf5
 8003520:	2100      	movs	r1, #0
 8003522:	0018      	movs	r0, r3
 8003524:	f001 fb7a 	bl	8004c1c <memset>

	UART_send(bufferToSend, 10);
 8003528:	003b      	movs	r3, r7
 800352a:	210a      	movs	r1, #10
 800352c:	0018      	movs	r0, r3
 800352e:	f000 f85f 	bl	80035f0 <UART_send>

	SYSTICK_Delay(15000);
 8003532:	4b06      	ldr	r3, [pc, #24]	@ (800354c <LORAWAN_Join+0x60>)
 8003534:	0018      	movs	r0, r3
 8003536:	f000 fb27 	bl	8003b88 <SYSTICK_Delay>
}
 800353a:	46c0      	nop			@ (mov r8, r8)
 800353c:	46bd      	mov	sp, r7
 800353e:	b041      	add	sp, #260	@ 0x104
 8003540:	bd90      	pop	{r4, r7, pc}
 8003542:	46c0      	nop			@ (mov r8, r8)
 8003544:	ffffff00 	.word	0xffffff00
 8003548:	08008590 	.word	0x08008590
 800354c:	00003a98 	.word	0x00003a98

08003550 <LORAWAN_Send>:

void LORAWAN_Send(uint32_t Poid, uint16_t Temperature)
{
 8003550:	b5f0      	push	{r4, r5, r6, r7, lr}
 8003552:	b0c9      	sub	sp, #292	@ 0x124
 8003554:	af04      	add	r7, sp, #16
 8003556:	6078      	str	r0, [r7, #4]
 8003558:	000a      	movs	r2, r1
 800355a:	4b22      	ldr	r3, [pc, #136]	@ (80035e4 <LORAWAN_Send+0x94>)
 800355c:	2188      	movs	r1, #136	@ 0x88
 800355e:	0049      	lsls	r1, r1, #1
 8003560:	185b      	adds	r3, r3, r1
 8003562:	19db      	adds	r3, r3, r7
 8003564:	801a      	strh	r2, [r3, #0]
    uint8_t payload[6]; // 2 octets pour chaque valeur

    // Copier les valeurs uint16_t dans le tableau payload
    memcpy(&payload[0], &Poid, sizeof(uint32_t));         // Poid dans octets 0-1
 8003566:	1d39      	adds	r1, r7, #4
 8003568:	2484      	movs	r4, #132	@ 0x84
 800356a:	0064      	lsls	r4, r4, #1
 800356c:	193b      	adds	r3, r7, r4
 800356e:	2204      	movs	r2, #4
 8003570:	0018      	movs	r0, r3
 8003572:	f001 fbe5 	bl	8004d40 <memcpy>
    memcpy(&payload[4], &Temperature, sizeof(uint16_t));  // Temperature dans octets 2-3
 8003576:	1cb9      	adds	r1, r7, #2
 8003578:	193b      	adds	r3, r7, r4
 800357a:	3304      	adds	r3, #4
 800357c:	2202      	movs	r2, #2
 800357e:	0018      	movs	r0, r3
 8003580:	f001 fbde 	bl	8004d40 <memcpy>

    // Prparer la chane HEX pour l'envoi
    char bufferToSend[255];
    sprintf(bufferToSend, "AT+CMSGHEX=\"%02X%02X%02X%02X%02X%02X\"\r\n",
            payload[0], payload[1], payload[2], payload[3], payload[4],payload[5]);
 8003584:	0021      	movs	r1, r4
 8003586:	187b      	adds	r3, r7, r1
 8003588:	781b      	ldrb	r3, [r3, #0]
    sprintf(bufferToSend, "AT+CMSGHEX=\"%02X%02X%02X%02X%02X%02X\"\r\n",
 800358a:	001e      	movs	r6, r3
            payload[0], payload[1], payload[2], payload[3], payload[4],payload[5]);
 800358c:	187b      	adds	r3, r7, r1
 800358e:	785b      	ldrb	r3, [r3, #1]
    sprintf(bufferToSend, "AT+CMSGHEX=\"%02X%02X%02X%02X%02X%02X\"\r\n",
 8003590:	469c      	mov	ip, r3
            payload[0], payload[1], payload[2], payload[3], payload[4],payload[5]);
 8003592:	187b      	adds	r3, r7, r1
 8003594:	789b      	ldrb	r3, [r3, #2]
    sprintf(bufferToSend, "AT+CMSGHEX=\"%02X%02X%02X%02X%02X%02X\"\r\n",
 8003596:	001a      	movs	r2, r3
            payload[0], payload[1], payload[2], payload[3], payload[4],payload[5]);
 8003598:	187b      	adds	r3, r7, r1
 800359a:	78db      	ldrb	r3, [r3, #3]
    sprintf(bufferToSend, "AT+CMSGHEX=\"%02X%02X%02X%02X%02X%02X\"\r\n",
 800359c:	001c      	movs	r4, r3
            payload[0], payload[1], payload[2], payload[3], payload[4],payload[5]);
 800359e:	187b      	adds	r3, r7, r1
 80035a0:	791b      	ldrb	r3, [r3, #4]
    sprintf(bufferToSend, "AT+CMSGHEX=\"%02X%02X%02X%02X%02X%02X\"\r\n",
 80035a2:	001d      	movs	r5, r3
            payload[0], payload[1], payload[2], payload[3], payload[4],payload[5]);
 80035a4:	187b      	adds	r3, r7, r1
 80035a6:	795b      	ldrb	r3, [r3, #5]
    sprintf(bufferToSend, "AT+CMSGHEX=\"%02X%02X%02X%02X%02X%02X\"\r\n",
 80035a8:	490f      	ldr	r1, [pc, #60]	@ (80035e8 <LORAWAN_Send+0x98>)
 80035aa:	2008      	movs	r0, #8
 80035ac:	1838      	adds	r0, r7, r0
 80035ae:	9303      	str	r3, [sp, #12]
 80035b0:	9502      	str	r5, [sp, #8]
 80035b2:	9401      	str	r4, [sp, #4]
 80035b4:	9200      	str	r2, [sp, #0]
 80035b6:	4663      	mov	r3, ip
 80035b8:	0032      	movs	r2, r6
 80035ba:	f001 fac3 	bl	8004b44 <siprintf>

    // Envoyer la commande via UART
    UART_send(bufferToSend, strlen(bufferToSend));
 80035be:	2408      	movs	r4, #8
 80035c0:	193b      	adds	r3, r7, r4
 80035c2:	0018      	movs	r0, r3
 80035c4:	f7fc fd9e 	bl	8000104 <strlen>
 80035c8:	0002      	movs	r2, r0
 80035ca:	193b      	adds	r3, r7, r4
 80035cc:	0011      	movs	r1, r2
 80035ce:	0018      	movs	r0, r3
 80035d0:	f000 f80e 	bl	80035f0 <UART_send>
    SYSTICK_Delay(15000);
 80035d4:	4b05      	ldr	r3, [pc, #20]	@ (80035ec <LORAWAN_Send+0x9c>)
 80035d6:	0018      	movs	r0, r3
 80035d8:	f000 fad6 	bl	8003b88 <SYSTICK_Delay>
}
 80035dc:	46c0      	nop			@ (mov r8, r8)
 80035de:	46bd      	mov	sp, r7
 80035e0:	b045      	add	sp, #276	@ 0x114
 80035e2:	bdf0      	pop	{r4, r5, r6, r7, pc}
 80035e4:	fffffef2 	.word	0xfffffef2
 80035e8:	0800859c 	.word	0x0800859c
 80035ec:	00003a98 	.word	0x00003a98

080035f0 <UART_send>:
	sprintf(bufferToSend, "AT+CMSG=\"%s\"\r\n", string);
	UART_send(bufferToSend, strlen(bufferToSend));
	SYSTICK_Delay(15000);
}

void UART_send(const char* msg, uint32_t size) {
 80035f0:	b580      	push	{r7, lr}
 80035f2:	b084      	sub	sp, #16
 80035f4:	af00      	add	r7, sp, #0
 80035f6:	6078      	str	r0, [r7, #4]
 80035f8:	6039      	str	r1, [r7, #0]
	uint32_t i = 0;
 80035fa:	2300      	movs	r3, #0
 80035fc:	60fb      	str	r3, [r7, #12]
	while(i < size) {
 80035fe:	e00d      	b.n	800361c <UART_send+0x2c>
		if (USART1->ISR & USART_ISR_TXE_TXFNF_Msk) {
 8003600:	4b0e      	ldr	r3, [pc, #56]	@ (800363c <UART_send+0x4c>)
 8003602:	69db      	ldr	r3, [r3, #28]
 8003604:	2280      	movs	r2, #128	@ 0x80
 8003606:	4013      	ands	r3, r2
 8003608:	d008      	beq.n	800361c <UART_send+0x2c>
			USART1->TDR = msg[i];
 800360a:	687a      	ldr	r2, [r7, #4]
 800360c:	68fb      	ldr	r3, [r7, #12]
 800360e:	18d3      	adds	r3, r2, r3
 8003610:	781a      	ldrb	r2, [r3, #0]
 8003612:	4b0a      	ldr	r3, [pc, #40]	@ (800363c <UART_send+0x4c>)
 8003614:	629a      	str	r2, [r3, #40]	@ 0x28
			i++;
 8003616:	68fb      	ldr	r3, [r7, #12]
 8003618:	3301      	adds	r3, #1
 800361a:	60fb      	str	r3, [r7, #12]
	while(i < size) {
 800361c:	68fa      	ldr	r2, [r7, #12]
 800361e:	683b      	ldr	r3, [r7, #0]
 8003620:	429a      	cmp	r2, r3
 8003622:	d3ed      	bcc.n	8003600 <UART_send+0x10>
		}
	}
	while(!(USART1->ISR & USART_ISR_TC_Msk));	//wait transmition complete
 8003624:	46c0      	nop			@ (mov r8, r8)
 8003626:	4b05      	ldr	r3, [pc, #20]	@ (800363c <UART_send+0x4c>)
 8003628:	69db      	ldr	r3, [r3, #28]
 800362a:	2240      	movs	r2, #64	@ 0x40
 800362c:	4013      	ands	r3, r2
 800362e:	d0fa      	beq.n	8003626 <UART_send+0x36>
}
 8003630:	46c0      	nop			@ (mov r8, r8)
 8003632:	46c0      	nop			@ (mov r8, r8)
 8003634:	46bd      	mov	sp, r7
 8003636:	b004      	add	sp, #16
 8003638:	bd80      	pop	{r7, pc}
 800363a:	46c0      	nop			@ (mov r8, r8)
 800363c:	40013800 	.word	0x40013800

08003640 <__NVIC_EnableIRQ>:
{
 8003640:	b580      	push	{r7, lr}
 8003642:	b082      	sub	sp, #8
 8003644:	af00      	add	r7, sp, #0
 8003646:	0002      	movs	r2, r0
 8003648:	1dfb      	adds	r3, r7, #7
 800364a:	701a      	strb	r2, [r3, #0]
  if ((int32_t)(IRQn) >= 0)
 800364c:	1dfb      	adds	r3, r7, #7
 800364e:	781b      	ldrb	r3, [r3, #0]
 8003650:	2b7f      	cmp	r3, #127	@ 0x7f
 8003652:	d809      	bhi.n	8003668 <__NVIC_EnableIRQ+0x28>
    NVIC->ISER[0U] = (uint32_t)(1UL << (((uint32_t)IRQn) & 0x1FUL));
 8003654:	1dfb      	adds	r3, r7, #7
 8003656:	781b      	ldrb	r3, [r3, #0]
 8003658:	001a      	movs	r2, r3
 800365a:	231f      	movs	r3, #31
 800365c:	401a      	ands	r2, r3
 800365e:	4b04      	ldr	r3, [pc, #16]	@ (8003670 <__NVIC_EnableIRQ+0x30>)
 8003660:	2101      	movs	r1, #1
 8003662:	4091      	lsls	r1, r2
 8003664:	000a      	movs	r2, r1
 8003666:	601a      	str	r2, [r3, #0]
}
 8003668:	46c0      	nop			@ (mov r8, r8)
 800366a:	46bd      	mov	sp, r7
 800366c:	b002      	add	sp, #8
 800366e:	bd80      	pop	{r7, pc}
 8003670:	e000e100 	.word	0xe000e100

08003674 <RTC_TAMP_IRQHandler>:
#include "SleepMode.h"

void RTC_TAMP_IRQHandler(void) {
 8003674:	b580      	push	{r7, lr}
 8003676:	af00      	add	r7, sp, #0
	// Dverrouiller les registres RTC (important!)
	RTC->WPR = 0xCA;
 8003678:	4b08      	ldr	r3, [pc, #32]	@ (800369c <RTC_TAMP_IRQHandler+0x28>)
 800367a:	22ca      	movs	r2, #202	@ 0xca
 800367c:	625a      	str	r2, [r3, #36]	@ 0x24
	RTC->WPR = 0x53;
 800367e:	4b07      	ldr	r3, [pc, #28]	@ (800369c <RTC_TAMP_IRQHandler+0x28>)
 8003680:	2253      	movs	r2, #83	@ 0x53
 8003682:	625a      	str	r2, [r3, #36]	@ 0x24

	// Effacer le flag d'interruption
	RTC->SCR |= RTC_SCR_CWUTF;
 8003684:	4b05      	ldr	r3, [pc, #20]	@ (800369c <RTC_TAMP_IRQHandler+0x28>)
 8003686:	6dda      	ldr	r2, [r3, #92]	@ 0x5c
 8003688:	4b04      	ldr	r3, [pc, #16]	@ (800369c <RTC_TAMP_IRQHandler+0x28>)
 800368a:	2104      	movs	r1, #4
 800368c:	430a      	orrs	r2, r1
 800368e:	65da      	str	r2, [r3, #92]	@ 0x5c

	// Verrouiller  nouveau les registres
	RTC->WPR = 0xFF;
 8003690:	4b02      	ldr	r3, [pc, #8]	@ (800369c <RTC_TAMP_IRQHandler+0x28>)
 8003692:	22ff      	movs	r2, #255	@ 0xff
 8003694:	625a      	str	r2, [r3, #36]	@ 0x24
}
 8003696:	46c0      	nop			@ (mov r8, r8)
 8003698:	46bd      	mov	sp, r7
 800369a:	bd80      	pop	{r7, pc}
 800369c:	40002800 	.word	0x40002800

080036a0 <RTC_Init>:

void RTC_Init() {
 80036a0:	b580      	push	{r7, lr}
 80036a2:	af00      	add	r7, sp, #0
	RCC->APBENR1 |= RCC_APBENR1_PWREN;
 80036a4:	4b23      	ldr	r3, [pc, #140]	@ (8003734 <RTC_Init+0x94>)
 80036a6:	6bda      	ldr	r2, [r3, #60]	@ 0x3c
 80036a8:	4b22      	ldr	r3, [pc, #136]	@ (8003734 <RTC_Init+0x94>)
 80036aa:	2180      	movs	r1, #128	@ 0x80
 80036ac:	0549      	lsls	r1, r1, #21
 80036ae:	430a      	orrs	r2, r1
 80036b0:	63da      	str	r2, [r3, #60]	@ 0x3c
	RCC->APBENR1 |= RCC_APBENR1_RTCAPBEN;
 80036b2:	4b20      	ldr	r3, [pc, #128]	@ (8003734 <RTC_Init+0x94>)
 80036b4:	6bda      	ldr	r2, [r3, #60]	@ 0x3c
 80036b6:	4b1f      	ldr	r3, [pc, #124]	@ (8003734 <RTC_Init+0x94>)
 80036b8:	2180      	movs	r1, #128	@ 0x80
 80036ba:	00c9      	lsls	r1, r1, #3
 80036bc:	430a      	orrs	r2, r1
 80036be:	63da      	str	r2, [r3, #60]	@ 0x3c

	PWR->CR1 |= 1 << PWR_CR1_DBP_Pos;
 80036c0:	4b1d      	ldr	r3, [pc, #116]	@ (8003738 <RTC_Init+0x98>)
 80036c2:	681a      	ldr	r2, [r3, #0]
 80036c4:	4b1c      	ldr	r3, [pc, #112]	@ (8003738 <RTC_Init+0x98>)
 80036c6:	2180      	movs	r1, #128	@ 0x80
 80036c8:	0049      	lsls	r1, r1, #1
 80036ca:	430a      	orrs	r2, r1
 80036cc:	601a      	str	r2, [r3, #0]
	RCC->BDCR |= 1 << RCC_BDCR_RTCEN_Pos;
 80036ce:	4b19      	ldr	r3, [pc, #100]	@ (8003734 <RTC_Init+0x94>)
 80036d0:	6dda      	ldr	r2, [r3, #92]	@ 0x5c
 80036d2:	4b18      	ldr	r3, [pc, #96]	@ (8003734 <RTC_Init+0x94>)
 80036d4:	2180      	movs	r1, #128	@ 0x80
 80036d6:	0209      	lsls	r1, r1, #8
 80036d8:	430a      	orrs	r2, r1
 80036da:	65da      	str	r2, [r3, #92]	@ 0x5c
	RCC->BDCR |= (2 << RCC_BDCR_RTCSEL_Pos);  // Slectionner LSI comme source RTC
 80036dc:	4b15      	ldr	r3, [pc, #84]	@ (8003734 <RTC_Init+0x94>)
 80036de:	6dda      	ldr	r2, [r3, #92]	@ 0x5c
 80036e0:	4b14      	ldr	r3, [pc, #80]	@ (8003734 <RTC_Init+0x94>)
 80036e2:	2180      	movs	r1, #128	@ 0x80
 80036e4:	0089      	lsls	r1, r1, #2
 80036e6:	430a      	orrs	r2, r1
 80036e8:	65da      	str	r2, [r3, #92]	@ 0x5c
	RCC->CSR |= RCC_CSR_LSION;	//start LSI
 80036ea:	4b12      	ldr	r3, [pc, #72]	@ (8003734 <RTC_Init+0x94>)
 80036ec:	6e1a      	ldr	r2, [r3, #96]	@ 0x60
 80036ee:	4b11      	ldr	r3, [pc, #68]	@ (8003734 <RTC_Init+0x94>)
 80036f0:	2101      	movs	r1, #1
 80036f2:	430a      	orrs	r2, r1
 80036f4:	661a      	str	r2, [r3, #96]	@ 0x60

	while(!(RCC->CSR & RCC_CSR_LSIRDY)); // Wait for LSI ready
 80036f6:	46c0      	nop			@ (mov r8, r8)
 80036f8:	4b0e      	ldr	r3, [pc, #56]	@ (8003734 <RTC_Init+0x94>)
 80036fa:	6e1b      	ldr	r3, [r3, #96]	@ 0x60
 80036fc:	2202      	movs	r2, #2
 80036fe:	4013      	ands	r3, r2
 8003700:	d0fa      	beq.n	80036f8 <RTC_Init+0x58>
	// Rinitialiser RTC aprs rveil
	RTC->WPR = 0xCA;
 8003702:	4b0e      	ldr	r3, [pc, #56]	@ (800373c <RTC_Init+0x9c>)
 8003704:	22ca      	movs	r2, #202	@ 0xca
 8003706:	625a      	str	r2, [r3, #36]	@ 0x24
	RTC->WPR = 0x53;
 8003708:	4b0c      	ldr	r3, [pc, #48]	@ (800373c <RTC_Init+0x9c>)
 800370a:	2253      	movs	r2, #83	@ 0x53
 800370c:	625a      	str	r2, [r3, #36]	@ 0x24

	RTC->CR &= ~RTC_CR_WUTE;  // Dsactiver Wakeup Timer
 800370e:	4b0b      	ldr	r3, [pc, #44]	@ (800373c <RTC_Init+0x9c>)
 8003710:	699a      	ldr	r2, [r3, #24]
 8003712:	4b0a      	ldr	r3, [pc, #40]	@ (800373c <RTC_Init+0x9c>)
 8003714:	490a      	ldr	r1, [pc, #40]	@ (8003740 <RTC_Init+0xa0>)
 8003716:	400a      	ands	r2, r1
 8003718:	619a      	str	r2, [r3, #24]
	RTC->CR &= ~RTC_CR_WUTIE;  // Dsactiver temporairement l'interruption
 800371a:	4b08      	ldr	r3, [pc, #32]	@ (800373c <RTC_Init+0x9c>)
 800371c:	699a      	ldr	r2, [r3, #24]
 800371e:	4b07      	ldr	r3, [pc, #28]	@ (800373c <RTC_Init+0x9c>)
 8003720:	4908      	ldr	r1, [pc, #32]	@ (8003744 <RTC_Init+0xa4>)
 8003722:	400a      	ands	r2, r1
 8003724:	619a      	str	r2, [r3, #24]

	RTC->WPR = 0xFF;
 8003726:	4b05      	ldr	r3, [pc, #20]	@ (800373c <RTC_Init+0x9c>)
 8003728:	22ff      	movs	r2, #255	@ 0xff
 800372a:	625a      	str	r2, [r3, #36]	@ 0x24
}
 800372c:	46c0      	nop			@ (mov r8, r8)
 800372e:	46bd      	mov	sp, r7
 8003730:	bd80      	pop	{r7, pc}
 8003732:	46c0      	nop			@ (mov r8, r8)
 8003734:	40021000 	.word	0x40021000
 8003738:	40007000 	.word	0x40007000
 800373c:	40002800 	.word	0x40002800
 8003740:	fffffbff 	.word	0xfffffbff
 8003744:	ffffbfff 	.word	0xffffbfff

08003748 <enter_low_power_standby_mode>:

void enter_low_power_standby_mode(void) {
 8003748:	b580      	push	{r7, lr}
 800374a:	af00      	add	r7, sp, #0
	// Effacer les flags de rveil
	PWR->SCR |= PWR_SCR_CWUF;
 800374c:	4b26      	ldr	r3, [pc, #152]	@ (80037e8 <enter_low_power_standby_mode+0xa0>)
 800374e:	699a      	ldr	r2, [r3, #24]
 8003750:	4b25      	ldr	r3, [pc, #148]	@ (80037e8 <enter_low_power_standby_mode+0xa0>)
 8003752:	212b      	movs	r1, #43	@ 0x2b
 8003754:	430a      	orrs	r2, r1
 8003756:	619a      	str	r2, [r3, #24]

	RTC->WPR = 0xCA;
 8003758:	4b24      	ldr	r3, [pc, #144]	@ (80037ec <enter_low_power_standby_mode+0xa4>)
 800375a:	22ca      	movs	r2, #202	@ 0xca
 800375c:	625a      	str	r2, [r3, #36]	@ 0x24
	RTC->WPR = 0x53;
 800375e:	4b23      	ldr	r3, [pc, #140]	@ (80037ec <enter_low_power_standby_mode+0xa4>)
 8003760:	2253      	movs	r2, #83	@ 0x53
 8003762:	625a      	str	r2, [r3, #36]	@ 0x24

	// Configurer Standby mode
	PWR->CR1 |= (0b011 << PWR_CR1_LPMS_Pos);
 8003764:	4b20      	ldr	r3, [pc, #128]	@ (80037e8 <enter_low_power_standby_mode+0xa0>)
 8003766:	681a      	ldr	r2, [r3, #0]
 8003768:	4b1f      	ldr	r3, [pc, #124]	@ (80037e8 <enter_low_power_standby_mode+0xa0>)
 800376a:	2103      	movs	r1, #3
 800376c:	430a      	orrs	r2, r1
 800376e:	601a      	str	r2, [r3, #0]
	//	PWR->CR3 |= PWR_CR3_EIWUL;  // Enable internal wakeup line
	//	PWR->CR3 |= PWR_CR3_EWUP1;
	//	PWR->CR4 |= PWR_CR4_WP1;    // Enable wakeup pin 1 (vrifiez la documentation de votre puce)

	//RTC->CR |= RTC_CR_WUTE;
	RTC->CR &= ~RTC_CR_WUTE;  // Dsactiver Wakeup Timer
 8003770:	4b1e      	ldr	r3, [pc, #120]	@ (80037ec <enter_low_power_standby_mode+0xa4>)
 8003772:	699a      	ldr	r2, [r3, #24]
 8003774:	4b1d      	ldr	r3, [pc, #116]	@ (80037ec <enter_low_power_standby_mode+0xa4>)
 8003776:	491e      	ldr	r1, [pc, #120]	@ (80037f0 <enter_low_power_standby_mode+0xa8>)
 8003778:	400a      	ands	r2, r1
 800377a:	619a      	str	r2, [r3, #24]

	while (!(RTC->ICSR & RTC_ICSR_WUTWF));  // Attendre que WUTWF soit prt
 800377c:	46c0      	nop			@ (mov r8, r8)
 800377e:	4b1b      	ldr	r3, [pc, #108]	@ (80037ec <enter_low_power_standby_mode+0xa4>)
 8003780:	68db      	ldr	r3, [r3, #12]
 8003782:	2204      	movs	r2, #4
 8003784:	4013      	ands	r3, r2
 8003786:	d0fa      	beq.n	800377e <enter_low_power_standby_mode+0x36>

	RTC->WUTR = 9;  // Rveil dans 10 secondes
 8003788:	4b18      	ldr	r3, [pc, #96]	@ (80037ec <enter_low_power_standby_mode+0xa4>)
 800378a:	2209      	movs	r2, #9
 800378c:	615a      	str	r2, [r3, #20]

	// Select appropriate clock source: 100 binary (not decimal) for 1Hz
	RTC->SCR |= RTC_SCR_CWUTF;
 800378e:	4b17      	ldr	r3, [pc, #92]	@ (80037ec <enter_low_power_standby_mode+0xa4>)
 8003790:	6dda      	ldr	r2, [r3, #92]	@ 0x5c
 8003792:	4b16      	ldr	r3, [pc, #88]	@ (80037ec <enter_low_power_standby_mode+0xa4>)
 8003794:	2104      	movs	r1, #4
 8003796:	430a      	orrs	r2, r1
 8003798:	65da      	str	r2, [r3, #92]	@ 0x5c
	RTC->CR &= ~(7 << RTC_CR_WUCKSEL_Pos);  // Clear bits first
 800379a:	4b14      	ldr	r3, [pc, #80]	@ (80037ec <enter_low_power_standby_mode+0xa4>)
 800379c:	699a      	ldr	r2, [r3, #24]
 800379e:	4b13      	ldr	r3, [pc, #76]	@ (80037ec <enter_low_power_standby_mode+0xa4>)
 80037a0:	2107      	movs	r1, #7
 80037a2:	438a      	bics	r2, r1
 80037a4:	619a      	str	r2, [r3, #24]
	RTC->CR |= (4 << RTC_CR_WUCKSEL_Pos);   // Set to binary 100 (decimal 4) //TODO change for 18h->36h
 80037a6:	4b11      	ldr	r3, [pc, #68]	@ (80037ec <enter_low_power_standby_mode+0xa4>)
 80037a8:	699a      	ldr	r2, [r3, #24]
 80037aa:	4b10      	ldr	r3, [pc, #64]	@ (80037ec <enter_low_power_standby_mode+0xa4>)
 80037ac:	2104      	movs	r1, #4
 80037ae:	430a      	orrs	r2, r1
 80037b0:	619a      	str	r2, [r3, #24]

	RTC->CR |= RTC_CR_WUTE | RTC_CR_WUTIE;  // Activer le Wakeup Timer et son interruption
 80037b2:	4b0e      	ldr	r3, [pc, #56]	@ (80037ec <enter_low_power_standby_mode+0xa4>)
 80037b4:	699a      	ldr	r2, [r3, #24]
 80037b6:	4b0d      	ldr	r3, [pc, #52]	@ (80037ec <enter_low_power_standby_mode+0xa4>)
 80037b8:	2188      	movs	r1, #136	@ 0x88
 80037ba:	01c9      	lsls	r1, r1, #7
 80037bc:	430a      	orrs	r2, r1
 80037be:	619a      	str	r2, [r3, #24]

	RTC->WPR = 0xFF;
 80037c0:	4b0a      	ldr	r3, [pc, #40]	@ (80037ec <enter_low_power_standby_mode+0xa4>)
 80037c2:	22ff      	movs	r2, #255	@ 0xff
 80037c4:	625a      	str	r2, [r3, #36]	@ 0x24

	// 2. Entrer en mode veille
	SCB->SCR |= SCB_SCR_SLEEPDEEP_Msk; // Configurer le mode veille profond
 80037c6:	4b0b      	ldr	r3, [pc, #44]	@ (80037f4 <enter_low_power_standby_mode+0xac>)
 80037c8:	691a      	ldr	r2, [r3, #16]
 80037ca:	4b0a      	ldr	r3, [pc, #40]	@ (80037f4 <enter_low_power_standby_mode+0xac>)
 80037cc:	2104      	movs	r1, #4
 80037ce:	430a      	orrs	r2, r1
 80037d0:	611a      	str	r2, [r3, #16]
	NVIC_EnableIRQ(RTC_TAMP_IRQn);  // Activer lIRQ RTC Wakeup
 80037d2:	2002      	movs	r0, #2
 80037d4:	f7ff ff34 	bl	8003640 <__NVIC_EnableIRQ>

	delay_ms(10);
 80037d8:	200a      	movs	r0, #10
 80037da:	f000 fa32 	bl	8003c42 <delay_ms>

	__WFI();  // Entrer en veille (Wait For Interrupt)
 80037de:	bf30      	wfi
}
 80037e0:	46c0      	nop			@ (mov r8, r8)
 80037e2:	46bd      	mov	sp, r7
 80037e4:	bd80      	pop	{r7, pc}
 80037e6:	46c0      	nop			@ (mov r8, r8)
 80037e8:	40007000 	.word	0x40007000
 80037ec:	40002800 	.word	0x40002800
 80037f0:	fffffbff 	.word	0xfffffbff
 80037f4:	e000ed00 	.word	0xe000ed00

080037f8 <GPIO_Init>:
#include "gpio.h"

void GPIO_Init(void){
 80037f8:	b580      	push	{r7, lr}
 80037fa:	af00      	add	r7, sp, #0
	RCC->IOPENR   |= RCC_IOPENR_GPIOBEN | RCC_IOPENR_GPIOCEN|RCC_IOPENR_GPIOAEN;
 80037fc:	4b0c      	ldr	r3, [pc, #48]	@ (8003830 <GPIO_Init+0x38>)
 80037fe:	6b5a      	ldr	r2, [r3, #52]	@ 0x34
 8003800:	4b0b      	ldr	r3, [pc, #44]	@ (8003830 <GPIO_Init+0x38>)
 8003802:	2107      	movs	r1, #7
 8003804:	430a      	orrs	r2, r1
 8003806:	635a      	str	r2, [r3, #52]	@ 0x34

	GPIOA->MODER  &= ~(GPIO_MODER_MODE0_Msk);
 8003808:	23a0      	movs	r3, #160	@ 0xa0
 800380a:	05db      	lsls	r3, r3, #23
 800380c:	681a      	ldr	r2, [r3, #0]
 800380e:	23a0      	movs	r3, #160	@ 0xa0
 8003810:	05db      	lsls	r3, r3, #23
 8003812:	2103      	movs	r1, #3
 8003814:	438a      	bics	r2, r1
 8003816:	601a      	str	r2, [r3, #0]
	GPIOA->MODER  |= OUTPUT_MODE << GPIO_MODER_MODE0_Pos;	//PA0 Led D1
 8003818:	23a0      	movs	r3, #160	@ 0xa0
 800381a:	05db      	lsls	r3, r3, #23
 800381c:	681a      	ldr	r2, [r3, #0]
 800381e:	23a0      	movs	r3, #160	@ 0xa0
 8003820:	05db      	lsls	r3, r3, #23
 8003822:	2101      	movs	r1, #1
 8003824:	430a      	orrs	r2, r1
 8003826:	601a      	str	r2, [r3, #0]
}
 8003828:	46c0      	nop			@ (mov r8, r8)
 800382a:	46bd      	mov	sp, r7
 800382c:	bd80      	pop	{r7, pc}
 800382e:	46c0      	nop			@ (mov r8, r8)
 8003830:	40021000 	.word	0x40021000

08003834 <SysTick_Handler>:
#include "interrupt.h"

extern uint32_t ticks;

// Interrupt Handler for SysTick Interrupt
void SysTick_Handler(void){
 8003834:	b580      	push	{r7, lr}
 8003836:	af00      	add	r7, sp, #0
	ticks++;
 8003838:	4b03      	ldr	r3, [pc, #12]	@ (8003848 <SysTick_Handler+0x14>)
 800383a:	681b      	ldr	r3, [r3, #0]
 800383c:	1c5a      	adds	r2, r3, #1
 800383e:	4b02      	ldr	r3, [pc, #8]	@ (8003848 <SysTick_Handler+0x14>)
 8003840:	601a      	str	r2, [r3, #0]
}
 8003842:	46c0      	nop			@ (mov r8, r8)
 8003844:	46bd      	mov	sp, r7
 8003846:	bd80      	pop	{r7, pc}
 8003848:	20000204 	.word	0x20000204

0800384c <main>:

//---En-Tte de Fonction---//

//-----Programme Principal-----//
int main(void)
{
 800384c:	b590      	push	{r4, r7, lr}
 800384e:	b083      	sub	sp, #12
 8003850:	af00      	add	r7, sp, #0
	uint16_t Temperature = 0;
 8003852:	1dbb      	adds	r3, r7, #6
 8003854:	2200      	movs	r2, #0
 8003856:	801a      	strh	r2, [r3, #0]
	uint32_t Poid = 0;
 8003858:	2300      	movs	r3, #0
 800385a:	603b      	str	r3, [r7, #0]
	tare_user = (uint32_t) read_flash_memory(ROMADDR);
 800385c:	4b17      	ldr	r3, [pc, #92]	@ (80038bc <main+0x70>)
 800385e:	0018      	movs	r0, r3
 8003860:	f7ff fb44 	bl	8002eec <read_flash_memory>
 8003864:	0002      	movs	r2, r0
 8003866:	000b      	movs	r3, r1
 8003868:	4b15      	ldr	r3, [pc, #84]	@ (80038c0 <main+0x74>)
 800386a:	601a      	str	r2, [r3, #0]

	GPIO_Init();
 800386c:	f7ff ffc4 	bl	80037f8 <GPIO_Init>
	TIM2_Init();
 8003870:	f000 f9ac 	bl	8003bcc <TIM2_Init>
	SYSTICK_Init(); // TODO use only one timer, BUG with TIM2 ???
 8003874:	f000 f976 	bl	8003b64 <SYSTICK_Init>
	RTC_Init();
 8003878:	f7ff ff12 	bl	80036a0 <RTC_Init>

	DS18B20_Init();
 800387c:	f7ff f944 	bl	8002b08 <DS18B20_Init>
	HX711_Init();
 8003880:	f7ff fc28 	bl	80030d4 <HX711_Init>
	LORAWAN_Join(); //Alim coupe, donc ncessaire.
 8003884:	f7ff fe32 	bl	80034ec <LORAWAN_Join>

	//Mesure des grandeur
	Temperature = DS18B20_GetTemp();
 8003888:	1dbc      	adds	r4, r7, #6
 800388a:	f7ff f967 	bl	8002b5c <DS18B20_GetTemp>
 800388e:	0003      	movs	r3, r0
 8003890:	8023      	strh	r3, [r4, #0]

	//GPIOA->ODR |= 1 << GPIO_ODR_OD0_Pos; //LED D6

	Poid = HX_Run(tare_user);
 8003892:	4b0b      	ldr	r3, [pc, #44]	@ (80038c0 <main+0x74>)
 8003894:	681b      	ldr	r3, [r3, #0]
 8003896:	0018      	movs	r0, r3
 8003898:	f7ff fc7a 	bl	8003190 <HX_Run>
 800389c:	0003      	movs	r3, r0
 800389e:	603b      	str	r3, [r7, #0]

	LORAWAN_Send(Poid, Temperature);
 80038a0:	1dbb      	adds	r3, r7, #6
 80038a2:	881a      	ldrh	r2, [r3, #0]
 80038a4:	683b      	ldr	r3, [r7, #0]
 80038a6:	0011      	movs	r1, r2
 80038a8:	0018      	movs	r0, r3
 80038aa:	f7ff fe51 	bl	8003550 <LORAWAN_Send>

//	if((uint32_t) read_flash_memory(ROMADDR) != tare_user && tare_user != 0) {
//		flash_erase_page(ROMADDR);
//		flash_write(ROMADDR, (uint64_t) tare_user);
//	}
	enter_low_power_standby_mode();
 80038ae:	f7ff ff4b 	bl	8003748 <enter_low_power_standby_mode>
 80038b2:	2300      	movs	r3, #0
	//DO NOT ADD CODE HERE AND AFTER
}
 80038b4:	0018      	movs	r0, r3
 80038b6:	46bd      	mov	sp, r7
 80038b8:	b003      	add	sp, #12
 80038ba:	bd90      	pop	{r4, r7, pc}
 80038bc:	0800f800 	.word	0x0800f800
 80038c0:	200001e8 	.word	0x200001e8

080038c4 <_getpid>:
void initialise_monitor_handles()
{
}

int _getpid(void)
{
 80038c4:	b580      	push	{r7, lr}
 80038c6:	af00      	add	r7, sp, #0
  return 1;
 80038c8:	2301      	movs	r3, #1
}
 80038ca:	0018      	movs	r0, r3
 80038cc:	46bd      	mov	sp, r7
 80038ce:	bd80      	pop	{r7, pc}

080038d0 <_kill>:

int _kill(int pid, int sig)
{
 80038d0:	b580      	push	{r7, lr}
 80038d2:	b082      	sub	sp, #8
 80038d4:	af00      	add	r7, sp, #0
 80038d6:	6078      	str	r0, [r7, #4]
 80038d8:	6039      	str	r1, [r7, #0]
  (void)pid;
  (void)sig;
  errno = EINVAL;
 80038da:	f001 f9f9 	bl	8004cd0 <__errno>
 80038de:	0003      	movs	r3, r0
 80038e0:	2216      	movs	r2, #22
 80038e2:	601a      	str	r2, [r3, #0]
  return -1;
 80038e4:	2301      	movs	r3, #1
 80038e6:	425b      	negs	r3, r3
}
 80038e8:	0018      	movs	r0, r3
 80038ea:	46bd      	mov	sp, r7
 80038ec:	b002      	add	sp, #8
 80038ee:	bd80      	pop	{r7, pc}

080038f0 <_exit>:

void _exit (int status)
{
 80038f0:	b580      	push	{r7, lr}
 80038f2:	b082      	sub	sp, #8
 80038f4:	af00      	add	r7, sp, #0
 80038f6:	6078      	str	r0, [r7, #4]
  _kill(status, -1);
 80038f8:	2301      	movs	r3, #1
 80038fa:	425a      	negs	r2, r3
 80038fc:	687b      	ldr	r3, [r7, #4]
 80038fe:	0011      	movs	r1, r2
 8003900:	0018      	movs	r0, r3
 8003902:	f7ff ffe5 	bl	80038d0 <_kill>
  while (1) {}    /* Make sure we hang here */
 8003906:	46c0      	nop			@ (mov r8, r8)
 8003908:	e7fd      	b.n	8003906 <_exit+0x16>

0800390a <_read>:
}

__attribute__((weak)) int _read(int file, char *ptr, int len)
{
 800390a:	b580      	push	{r7, lr}
 800390c:	b086      	sub	sp, #24
 800390e:	af00      	add	r7, sp, #0
 8003910:	60f8      	str	r0, [r7, #12]
 8003912:	60b9      	str	r1, [r7, #8]
 8003914:	607a      	str	r2, [r7, #4]
  (void)file;
  int DataIdx;

  for (DataIdx = 0; DataIdx < len; DataIdx++)
 8003916:	2300      	movs	r3, #0
 8003918:	617b      	str	r3, [r7, #20]
 800391a:	e00a      	b.n	8003932 <_read+0x28>
  {
    *ptr++ = __io_getchar();
 800391c:	e000      	b.n	8003920 <_read+0x16>
 800391e:	bf00      	nop
 8003920:	0001      	movs	r1, r0
 8003922:	68bb      	ldr	r3, [r7, #8]
 8003924:	1c5a      	adds	r2, r3, #1
 8003926:	60ba      	str	r2, [r7, #8]
 8003928:	b2ca      	uxtb	r2, r1
 800392a:	701a      	strb	r2, [r3, #0]
  for (DataIdx = 0; DataIdx < len; DataIdx++)
 800392c:	697b      	ldr	r3, [r7, #20]
 800392e:	3301      	adds	r3, #1
 8003930:	617b      	str	r3, [r7, #20]
 8003932:	697a      	ldr	r2, [r7, #20]
 8003934:	687b      	ldr	r3, [r7, #4]
 8003936:	429a      	cmp	r2, r3
 8003938:	dbf0      	blt.n	800391c <_read+0x12>
  }

  return len;
 800393a:	687b      	ldr	r3, [r7, #4]
}
 800393c:	0018      	movs	r0, r3
 800393e:	46bd      	mov	sp, r7
 8003940:	b006      	add	sp, #24
 8003942:	bd80      	pop	{r7, pc}

08003944 <_write>:

__attribute__((weak)) int _write(int file, char *ptr, int len)
{
 8003944:	b580      	push	{r7, lr}
 8003946:	b086      	sub	sp, #24
 8003948:	af00      	add	r7, sp, #0
 800394a:	60f8      	str	r0, [r7, #12]
 800394c:	60b9      	str	r1, [r7, #8]
 800394e:	607a      	str	r2, [r7, #4]
  (void)file;
  int DataIdx;

  for (DataIdx = 0; DataIdx < len; DataIdx++)
 8003950:	2300      	movs	r3, #0
 8003952:	617b      	str	r3, [r7, #20]
 8003954:	e009      	b.n	800396a <_write+0x26>
  {
    __io_putchar(*ptr++);
 8003956:	68bb      	ldr	r3, [r7, #8]
 8003958:	1c5a      	adds	r2, r3, #1
 800395a:	60ba      	str	r2, [r7, #8]
 800395c:	781b      	ldrb	r3, [r3, #0]
 800395e:	0018      	movs	r0, r3
 8003960:	e000      	b.n	8003964 <_write+0x20>
 8003962:	bf00      	nop
  for (DataIdx = 0; DataIdx < len; DataIdx++)
 8003964:	697b      	ldr	r3, [r7, #20]
 8003966:	3301      	adds	r3, #1
 8003968:	617b      	str	r3, [r7, #20]
 800396a:	697a      	ldr	r2, [r7, #20]
 800396c:	687b      	ldr	r3, [r7, #4]
 800396e:	429a      	cmp	r2, r3
 8003970:	dbf1      	blt.n	8003956 <_write+0x12>
  }
  return len;
 8003972:	687b      	ldr	r3, [r7, #4]
}
 8003974:	0018      	movs	r0, r3
 8003976:	46bd      	mov	sp, r7
 8003978:	b006      	add	sp, #24
 800397a:	bd80      	pop	{r7, pc}

0800397c <_close>:

int _close(int file)
{
 800397c:	b580      	push	{r7, lr}
 800397e:	b082      	sub	sp, #8
 8003980:	af00      	add	r7, sp, #0
 8003982:	6078      	str	r0, [r7, #4]
  (void)file;
  return -1;
 8003984:	2301      	movs	r3, #1
 8003986:	425b      	negs	r3, r3
}
 8003988:	0018      	movs	r0, r3
 800398a:	46bd      	mov	sp, r7
 800398c:	b002      	add	sp, #8
 800398e:	bd80      	pop	{r7, pc}

08003990 <_fstat>:


int _fstat(int file, struct stat *st)
{
 8003990:	b580      	push	{r7, lr}
 8003992:	b082      	sub	sp, #8
 8003994:	af00      	add	r7, sp, #0
 8003996:	6078      	str	r0, [r7, #4]
 8003998:	6039      	str	r1, [r7, #0]
  (void)file;
  st->st_mode = S_IFCHR;
 800399a:	683b      	ldr	r3, [r7, #0]
 800399c:	2280      	movs	r2, #128	@ 0x80
 800399e:	0192      	lsls	r2, r2, #6
 80039a0:	605a      	str	r2, [r3, #4]
  return 0;
 80039a2:	2300      	movs	r3, #0
}
 80039a4:	0018      	movs	r0, r3
 80039a6:	46bd      	mov	sp, r7
 80039a8:	b002      	add	sp, #8
 80039aa:	bd80      	pop	{r7, pc}

080039ac <_isatty>:

int _isatty(int file)
{
 80039ac:	b580      	push	{r7, lr}
 80039ae:	b082      	sub	sp, #8
 80039b0:	af00      	add	r7, sp, #0
 80039b2:	6078      	str	r0, [r7, #4]
  (void)file;
  return 1;
 80039b4:	2301      	movs	r3, #1
}
 80039b6:	0018      	movs	r0, r3
 80039b8:	46bd      	mov	sp, r7
 80039ba:	b002      	add	sp, #8
 80039bc:	bd80      	pop	{r7, pc}

080039be <_lseek>:

int _lseek(int file, int ptr, int dir)
{
 80039be:	b580      	push	{r7, lr}
 80039c0:	b084      	sub	sp, #16
 80039c2:	af00      	add	r7, sp, #0
 80039c4:	60f8      	str	r0, [r7, #12]
 80039c6:	60b9      	str	r1, [r7, #8]
 80039c8:	607a      	str	r2, [r7, #4]
  (void)file;
  (void)ptr;
  (void)dir;
  return 0;
 80039ca:	2300      	movs	r3, #0
}
 80039cc:	0018      	movs	r0, r3
 80039ce:	46bd      	mov	sp, r7
 80039d0:	b004      	add	sp, #16
 80039d2:	bd80      	pop	{r7, pc}

080039d4 <_sbrk>:
 *
 * @param incr Memory size
 * @return Pointer to allocated memory
 */
void *_sbrk(ptrdiff_t incr)
{
 80039d4:	b580      	push	{r7, lr}
 80039d6:	b086      	sub	sp, #24
 80039d8:	af00      	add	r7, sp, #0
 80039da:	6078      	str	r0, [r7, #4]
  extern uint8_t _end; /* Symbol defined in the linker script */
  extern uint8_t _estack; /* Symbol defined in the linker script */
  extern uint32_t _Min_Stack_Size; /* Symbol defined in the linker script */
  const uint32_t stack_limit = (uint32_t)&_estack - (uint32_t)&_Min_Stack_Size;
 80039dc:	4a14      	ldr	r2, [pc, #80]	@ (8003a30 <_sbrk+0x5c>)
 80039de:	4b15      	ldr	r3, [pc, #84]	@ (8003a34 <_sbrk+0x60>)
 80039e0:	1ad3      	subs	r3, r2, r3
 80039e2:	617b      	str	r3, [r7, #20]
  const uint8_t *max_heap = (uint8_t *)stack_limit;
 80039e4:	697b      	ldr	r3, [r7, #20]
 80039e6:	613b      	str	r3, [r7, #16]
  uint8_t *prev_heap_end;

  /* Initialize heap end at first call */
  if (NULL == __sbrk_heap_end)
 80039e8:	4b13      	ldr	r3, [pc, #76]	@ (8003a38 <_sbrk+0x64>)
 80039ea:	681b      	ldr	r3, [r3, #0]
 80039ec:	2b00      	cmp	r3, #0
 80039ee:	d102      	bne.n	80039f6 <_sbrk+0x22>
  {
    __sbrk_heap_end = &_end;
 80039f0:	4b11      	ldr	r3, [pc, #68]	@ (8003a38 <_sbrk+0x64>)
 80039f2:	4a12      	ldr	r2, [pc, #72]	@ (8003a3c <_sbrk+0x68>)
 80039f4:	601a      	str	r2, [r3, #0]
  }

  /* Protect heap from growing into the reserved MSP stack */
  if (__sbrk_heap_end + incr > max_heap)
 80039f6:	4b10      	ldr	r3, [pc, #64]	@ (8003a38 <_sbrk+0x64>)
 80039f8:	681a      	ldr	r2, [r3, #0]
 80039fa:	687b      	ldr	r3, [r7, #4]
 80039fc:	18d3      	adds	r3, r2, r3
 80039fe:	693a      	ldr	r2, [r7, #16]
 8003a00:	429a      	cmp	r2, r3
 8003a02:	d207      	bcs.n	8003a14 <_sbrk+0x40>
  {
    errno = ENOMEM;
 8003a04:	f001 f964 	bl	8004cd0 <__errno>
 8003a08:	0003      	movs	r3, r0
 8003a0a:	220c      	movs	r2, #12
 8003a0c:	601a      	str	r2, [r3, #0]
    return (void *)-1;
 8003a0e:	2301      	movs	r3, #1
 8003a10:	425b      	negs	r3, r3
 8003a12:	e009      	b.n	8003a28 <_sbrk+0x54>
  }

  prev_heap_end = __sbrk_heap_end;
 8003a14:	4b08      	ldr	r3, [pc, #32]	@ (8003a38 <_sbrk+0x64>)
 8003a16:	681b      	ldr	r3, [r3, #0]
 8003a18:	60fb      	str	r3, [r7, #12]
  __sbrk_heap_end += incr;
 8003a1a:	4b07      	ldr	r3, [pc, #28]	@ (8003a38 <_sbrk+0x64>)
 8003a1c:	681a      	ldr	r2, [r3, #0]
 8003a1e:	687b      	ldr	r3, [r7, #4]
 8003a20:	18d2      	adds	r2, r2, r3
 8003a22:	4b05      	ldr	r3, [pc, #20]	@ (8003a38 <_sbrk+0x64>)
 8003a24:	601a      	str	r2, [r3, #0]

  return (void *)prev_heap_end;
 8003a26:	68fb      	ldr	r3, [r7, #12]
}
 8003a28:	0018      	movs	r0, r3
 8003a2a:	46bd      	mov	sp, r7
 8003a2c:	b006      	add	sp, #24
 8003a2e:	bd80      	pop	{r7, pc}
 8003a30:	20002000 	.word	0x20002000
 8003a34:	00000400 	.word	0x00000400
 8003a38:	20000200 	.word	0x20000200
 8003a3c:	20000358 	.word	0x20000358

08003a40 <__NVIC_SetPriority>:
  \param [in]      IRQn  Interrupt number.
  \param [in]  priority  Priority to set.
  \note    The priority cannot be set for every processor exception.
 */
__STATIC_INLINE void __NVIC_SetPriority(IRQn_Type IRQn, uint32_t priority)
{
 8003a40:	b590      	push	{r4, r7, lr}
 8003a42:	b083      	sub	sp, #12
 8003a44:	af00      	add	r7, sp, #0
 8003a46:	0002      	movs	r2, r0
 8003a48:	6039      	str	r1, [r7, #0]
 8003a4a:	1dfb      	adds	r3, r7, #7
 8003a4c:	701a      	strb	r2, [r3, #0]
  if ((int32_t)(IRQn) >= 0)
 8003a4e:	1dfb      	adds	r3, r7, #7
 8003a50:	781b      	ldrb	r3, [r3, #0]
 8003a52:	2b7f      	cmp	r3, #127	@ 0x7f
 8003a54:	d828      	bhi.n	8003aa8 <__NVIC_SetPriority+0x68>
  {
    NVIC->IP[_IP_IDX(IRQn)]  = ((uint32_t)(NVIC->IP[_IP_IDX(IRQn)]  & ~(0xFFUL << _BIT_SHIFT(IRQn))) |
 8003a56:	4a2f      	ldr	r2, [pc, #188]	@ (8003b14 <__NVIC_SetPriority+0xd4>)
 8003a58:	1dfb      	adds	r3, r7, #7
 8003a5a:	781b      	ldrb	r3, [r3, #0]
 8003a5c:	b25b      	sxtb	r3, r3
 8003a5e:	089b      	lsrs	r3, r3, #2
 8003a60:	33c0      	adds	r3, #192	@ 0xc0
 8003a62:	009b      	lsls	r3, r3, #2
 8003a64:	589b      	ldr	r3, [r3, r2]
 8003a66:	1dfa      	adds	r2, r7, #7
 8003a68:	7812      	ldrb	r2, [r2, #0]
 8003a6a:	0011      	movs	r1, r2
 8003a6c:	2203      	movs	r2, #3
 8003a6e:	400a      	ands	r2, r1
 8003a70:	00d2      	lsls	r2, r2, #3
 8003a72:	21ff      	movs	r1, #255	@ 0xff
 8003a74:	4091      	lsls	r1, r2
 8003a76:	000a      	movs	r2, r1
 8003a78:	43d2      	mvns	r2, r2
 8003a7a:	401a      	ands	r2, r3
 8003a7c:	0011      	movs	r1, r2
       (((priority << (8U - __NVIC_PRIO_BITS)) & (uint32_t)0xFFUL) << _BIT_SHIFT(IRQn)));
 8003a7e:	683b      	ldr	r3, [r7, #0]
 8003a80:	019b      	lsls	r3, r3, #6
 8003a82:	22ff      	movs	r2, #255	@ 0xff
 8003a84:	401a      	ands	r2, r3
 8003a86:	1dfb      	adds	r3, r7, #7
 8003a88:	781b      	ldrb	r3, [r3, #0]
 8003a8a:	0018      	movs	r0, r3
 8003a8c:	2303      	movs	r3, #3
 8003a8e:	4003      	ands	r3, r0
 8003a90:	00db      	lsls	r3, r3, #3
 8003a92:	409a      	lsls	r2, r3
    NVIC->IP[_IP_IDX(IRQn)]  = ((uint32_t)(NVIC->IP[_IP_IDX(IRQn)]  & ~(0xFFUL << _BIT_SHIFT(IRQn))) |
 8003a94:	481f      	ldr	r0, [pc, #124]	@ (8003b14 <__NVIC_SetPriority+0xd4>)
 8003a96:	1dfb      	adds	r3, r7, #7
 8003a98:	781b      	ldrb	r3, [r3, #0]
 8003a9a:	b25b      	sxtb	r3, r3
 8003a9c:	089b      	lsrs	r3, r3, #2
 8003a9e:	430a      	orrs	r2, r1
 8003aa0:	33c0      	adds	r3, #192	@ 0xc0
 8003aa2:	009b      	lsls	r3, r3, #2
 8003aa4:	501a      	str	r2, [r3, r0]
  else
  {
    SCB->SHP[_SHP_IDX(IRQn)] = ((uint32_t)(SCB->SHP[_SHP_IDX(IRQn)] & ~(0xFFUL << _BIT_SHIFT(IRQn))) |
       (((priority << (8U - __NVIC_PRIO_BITS)) & (uint32_t)0xFFUL) << _BIT_SHIFT(IRQn)));
  }
}
 8003aa6:	e031      	b.n	8003b0c <__NVIC_SetPriority+0xcc>
    SCB->SHP[_SHP_IDX(IRQn)] = ((uint32_t)(SCB->SHP[_SHP_IDX(IRQn)] & ~(0xFFUL << _BIT_SHIFT(IRQn))) |
 8003aa8:	4a1b      	ldr	r2, [pc, #108]	@ (8003b18 <__NVIC_SetPriority+0xd8>)
 8003aaa:	1dfb      	adds	r3, r7, #7
 8003aac:	781b      	ldrb	r3, [r3, #0]
 8003aae:	0019      	movs	r1, r3
 8003ab0:	230f      	movs	r3, #15
 8003ab2:	400b      	ands	r3, r1
 8003ab4:	3b08      	subs	r3, #8
 8003ab6:	089b      	lsrs	r3, r3, #2
 8003ab8:	3306      	adds	r3, #6
 8003aba:	009b      	lsls	r3, r3, #2
 8003abc:	18d3      	adds	r3, r2, r3
 8003abe:	3304      	adds	r3, #4
 8003ac0:	681b      	ldr	r3, [r3, #0]
 8003ac2:	1dfa      	adds	r2, r7, #7
 8003ac4:	7812      	ldrb	r2, [r2, #0]
 8003ac6:	0011      	movs	r1, r2
 8003ac8:	2203      	movs	r2, #3
 8003aca:	400a      	ands	r2, r1
 8003acc:	00d2      	lsls	r2, r2, #3
 8003ace:	21ff      	movs	r1, #255	@ 0xff
 8003ad0:	4091      	lsls	r1, r2
 8003ad2:	000a      	movs	r2, r1
 8003ad4:	43d2      	mvns	r2, r2
 8003ad6:	401a      	ands	r2, r3
 8003ad8:	0011      	movs	r1, r2
       (((priority << (8U - __NVIC_PRIO_BITS)) & (uint32_t)0xFFUL) << _BIT_SHIFT(IRQn)));
 8003ada:	683b      	ldr	r3, [r7, #0]
 8003adc:	019b      	lsls	r3, r3, #6
 8003ade:	22ff      	movs	r2, #255	@ 0xff
 8003ae0:	401a      	ands	r2, r3
 8003ae2:	1dfb      	adds	r3, r7, #7
 8003ae4:	781b      	ldrb	r3, [r3, #0]
 8003ae6:	0018      	movs	r0, r3
 8003ae8:	2303      	movs	r3, #3
 8003aea:	4003      	ands	r3, r0
 8003aec:	00db      	lsls	r3, r3, #3
 8003aee:	409a      	lsls	r2, r3
    SCB->SHP[_SHP_IDX(IRQn)] = ((uint32_t)(SCB->SHP[_SHP_IDX(IRQn)] & ~(0xFFUL << _BIT_SHIFT(IRQn))) |
 8003af0:	4809      	ldr	r0, [pc, #36]	@ (8003b18 <__NVIC_SetPriority+0xd8>)
 8003af2:	1dfb      	adds	r3, r7, #7
 8003af4:	781b      	ldrb	r3, [r3, #0]
 8003af6:	001c      	movs	r4, r3
 8003af8:	230f      	movs	r3, #15
 8003afa:	4023      	ands	r3, r4
 8003afc:	3b08      	subs	r3, #8
 8003afe:	089b      	lsrs	r3, r3, #2
 8003b00:	430a      	orrs	r2, r1
 8003b02:	3306      	adds	r3, #6
 8003b04:	009b      	lsls	r3, r3, #2
 8003b06:	18c3      	adds	r3, r0, r3
 8003b08:	3304      	adds	r3, #4
 8003b0a:	601a      	str	r2, [r3, #0]
}
 8003b0c:	46c0      	nop			@ (mov r8, r8)
 8003b0e:	46bd      	mov	sp, r7
 8003b10:	b003      	add	sp, #12
 8003b12:	bd90      	pop	{r4, r7, pc}
 8003b14:	e000e100 	.word	0xe000e100
 8003b18:	e000ed00 	.word	0xe000ed00

08003b1c <SysTick_Config>:
  \note    When the variable <b>__Vendor_SysTickConfig</b> is set to 1, then the
           function <b>SysTick_Config</b> is not included. In this case, the file <b><i>device</i>.h</b>
           must contain a vendor-specific implementation of this function.
 */
__STATIC_INLINE uint32_t SysTick_Config(uint32_t ticks)
{
 8003b1c:	b580      	push	{r7, lr}
 8003b1e:	b082      	sub	sp, #8
 8003b20:	af00      	add	r7, sp, #0
 8003b22:	6078      	str	r0, [r7, #4]
  if ((ticks - 1UL) > SysTick_LOAD_RELOAD_Msk)
 8003b24:	687b      	ldr	r3, [r7, #4]
 8003b26:	1e5a      	subs	r2, r3, #1
 8003b28:	2380      	movs	r3, #128	@ 0x80
 8003b2a:	045b      	lsls	r3, r3, #17
 8003b2c:	429a      	cmp	r2, r3
 8003b2e:	d301      	bcc.n	8003b34 <SysTick_Config+0x18>
  {
    return (1UL);                                                   /* Reload value impossible */
 8003b30:	2301      	movs	r3, #1
 8003b32:	e010      	b.n	8003b56 <SysTick_Config+0x3a>
  }

  SysTick->LOAD  = (uint32_t)(ticks - 1UL);                         /* set reload register */
 8003b34:	4b0a      	ldr	r3, [pc, #40]	@ (8003b60 <SysTick_Config+0x44>)
 8003b36:	687a      	ldr	r2, [r7, #4]
 8003b38:	3a01      	subs	r2, #1
 8003b3a:	605a      	str	r2, [r3, #4]
  NVIC_SetPriority (SysTick_IRQn, (1UL << __NVIC_PRIO_BITS) - 1UL); /* set Priority for Systick Interrupt */
 8003b3c:	2301      	movs	r3, #1
 8003b3e:	425b      	negs	r3, r3
 8003b40:	2103      	movs	r1, #3
 8003b42:	0018      	movs	r0, r3
 8003b44:	f7ff ff7c 	bl	8003a40 <__NVIC_SetPriority>
  SysTick->VAL   = 0UL;                                             /* Load the SysTick Counter Value */
 8003b48:	4b05      	ldr	r3, [pc, #20]	@ (8003b60 <SysTick_Config+0x44>)
 8003b4a:	2200      	movs	r2, #0
 8003b4c:	609a      	str	r2, [r3, #8]
  SysTick->CTRL  = SysTick_CTRL_CLKSOURCE_Msk |
 8003b4e:	4b04      	ldr	r3, [pc, #16]	@ (8003b60 <SysTick_Config+0x44>)
 8003b50:	2207      	movs	r2, #7
 8003b52:	601a      	str	r2, [r3, #0]
                   SysTick_CTRL_TICKINT_Msk   |
                   SysTick_CTRL_ENABLE_Msk;                         /* Enable SysTick IRQ and SysTick Timer */
  return (0UL);                                                     /* Function successful */
 8003b54:	2300      	movs	r3, #0
}
 8003b56:	0018      	movs	r0, r3
 8003b58:	46bd      	mov	sp, r7
 8003b5a:	b002      	add	sp, #8
 8003b5c:	bd80      	pop	{r7, pc}
 8003b5e:	46c0      	nop			@ (mov r8, r8)
 8003b60:	e000e010 	.word	0xe000e010

08003b64 <SYSTICK_Init>:
#include "timer.h"

uint32_t SystemCoreClock = 16000000;
uint32_t ticks = 0;

void SYSTICK_Init(void){
 8003b64:	b580      	push	{r7, lr}
 8003b66:	af00      	add	r7, sp, #0
	SysTick_Config(SystemCoreClock / 1000);
 8003b68:	4b06      	ldr	r3, [pc, #24]	@ (8003b84 <SYSTICK_Init+0x20>)
 8003b6a:	681b      	ldr	r3, [r3, #0]
 8003b6c:	22fa      	movs	r2, #250	@ 0xfa
 8003b6e:	0091      	lsls	r1, r2, #2
 8003b70:	0018      	movs	r0, r3
 8003b72:	f7fc fae3 	bl	800013c <__udivsi3>
 8003b76:	0003      	movs	r3, r0
 8003b78:	0018      	movs	r0, r3
 8003b7a:	f7ff ffcf 	bl	8003b1c <SysTick_Config>
}
 8003b7e:	46c0      	nop			@ (mov r8, r8)
 8003b80:	46bd      	mov	sp, r7
 8003b82:	bd80      	pop	{r7, pc}
 8003b84:	20000000 	.word	0x20000000

08003b88 <SYSTICK_Delay>:

void SYSTICK_Delay(uint32_t Delay)
{
 8003b88:	b580      	push	{r7, lr}
 8003b8a:	b084      	sub	sp, #16
 8003b8c:	af00      	add	r7, sp, #0
 8003b8e:	6078      	str	r0, [r7, #4]
	uint32_t tickstart = SYSTICK_Get();
 8003b90:	f000 f812 	bl	8003bb8 <SYSTICK_Get>
 8003b94:	0003      	movs	r3, r0
 8003b96:	60fb      	str	r3, [r7, #12]
	uint32_t wait = Delay;
 8003b98:	687b      	ldr	r3, [r7, #4]
 8003b9a:	60bb      	str	r3, [r7, #8]

	while((SYSTICK_Get() - tickstart) < wait);
 8003b9c:	46c0      	nop			@ (mov r8, r8)
 8003b9e:	f000 f80b 	bl	8003bb8 <SYSTICK_Get>
 8003ba2:	0002      	movs	r2, r0
 8003ba4:	68fb      	ldr	r3, [r7, #12]
 8003ba6:	1ad3      	subs	r3, r2, r3
 8003ba8:	68ba      	ldr	r2, [r7, #8]
 8003baa:	429a      	cmp	r2, r3
 8003bac:	d8f7      	bhi.n	8003b9e <SYSTICK_Delay+0x16>
}
 8003bae:	46c0      	nop			@ (mov r8, r8)
 8003bb0:	46c0      	nop			@ (mov r8, r8)
 8003bb2:	46bd      	mov	sp, r7
 8003bb4:	b004      	add	sp, #16
 8003bb6:	bd80      	pop	{r7, pc}

08003bb8 <SYSTICK_Get>:

uint32_t SYSTICK_Get(void){
 8003bb8:	b580      	push	{r7, lr}
 8003bba:	af00      	add	r7, sp, #0
	return ticks;
 8003bbc:	4b02      	ldr	r3, [pc, #8]	@ (8003bc8 <SYSTICK_Get+0x10>)
 8003bbe:	681b      	ldr	r3, [r3, #0]
}
 8003bc0:	0018      	movs	r0, r3
 8003bc2:	46bd      	mov	sp, r7
 8003bc4:	bd80      	pop	{r7, pc}
 8003bc6:	46c0      	nop			@ (mov r8, r8)
 8003bc8:	20000204 	.word	0x20000204

08003bcc <TIM2_Init>:

void TIM2_Init(void){
 8003bcc:	b580      	push	{r7, lr}
 8003bce:	af00      	add	r7, sp, #0
	// Init TIM2
	RCC->APBENR1 |= RCC_APBENR1_TIM2EN; 			// Activer l'horloge TIM2
 8003bd0:	4b0e      	ldr	r3, [pc, #56]	@ (8003c0c <TIM2_Init+0x40>)
 8003bd2:	6bda      	ldr	r2, [r3, #60]	@ 0x3c
 8003bd4:	4b0d      	ldr	r3, [pc, #52]	@ (8003c0c <TIM2_Init+0x40>)
 8003bd6:	2101      	movs	r1, #1
 8003bd8:	430a      	orrs	r2, r1
 8003bda:	63da      	str	r2, [r3, #60]	@ 0x3c
	TIM2->PSC = 15; 								// Diviseur pour 1 s (ajuster selon la frquence systme)
 8003bdc:	2380      	movs	r3, #128	@ 0x80
 8003bde:	05db      	lsls	r3, r3, #23
 8003be0:	220f      	movs	r2, #15
 8003be2:	629a      	str	r2, [r3, #40]	@ 0x28
	TIM2->ARR = 1000000 - 1; 						// Priode d'une seconde
 8003be4:	2380      	movs	r3, #128	@ 0x80
 8003be6:	05db      	lsls	r3, r3, #23
 8003be8:	4a09      	ldr	r2, [pc, #36]	@ (8003c10 <TIM2_Init+0x44>)
 8003bea:	62da      	str	r2, [r3, #44]	@ 0x2c
	TIM2->CNT = 0; 									// Rinitialiser le compteur
 8003bec:	2380      	movs	r3, #128	@ 0x80
 8003bee:	05db      	lsls	r3, r3, #23
 8003bf0:	2200      	movs	r2, #0
 8003bf2:	625a      	str	r2, [r3, #36]	@ 0x24
	TIM2->CR1 |= TIM_CR1_CEN; 						// Activer le compteur
 8003bf4:	2380      	movs	r3, #128	@ 0x80
 8003bf6:	05db      	lsls	r3, r3, #23
 8003bf8:	681a      	ldr	r2, [r3, #0]
 8003bfa:	2380      	movs	r3, #128	@ 0x80
 8003bfc:	05db      	lsls	r3, r3, #23
 8003bfe:	2101      	movs	r1, #1
 8003c00:	430a      	orrs	r2, r1
 8003c02:	601a      	str	r2, [r3, #0]
}
 8003c04:	46c0      	nop			@ (mov r8, r8)
 8003c06:	46bd      	mov	sp, r7
 8003c08:	bd80      	pop	{r7, pc}
 8003c0a:	46c0      	nop			@ (mov r8, r8)
 8003c0c:	40021000 	.word	0x40021000
 8003c10:	000f423f 	.word	0x000f423f

08003c14 <delay_us>:

void delay_us(uint16_t us) {
 8003c14:	b580      	push	{r7, lr}
 8003c16:	b082      	sub	sp, #8
 8003c18:	af00      	add	r7, sp, #0
 8003c1a:	0002      	movs	r2, r0
 8003c1c:	1dbb      	adds	r3, r7, #6
 8003c1e:	801a      	strh	r2, [r3, #0]
	TIM2->CNT = 0; 									// Rinitialiser le compteur
 8003c20:	2380      	movs	r3, #128	@ 0x80
 8003c22:	05db      	lsls	r3, r3, #23
 8003c24:	2200      	movs	r2, #0
 8003c26:	625a      	str	r2, [r3, #36]	@ 0x24
	while (TIM2->CNT < us); 						// Attendre que le compteur atteigne la valeur
 8003c28:	46c0      	nop			@ (mov r8, r8)
 8003c2a:	2380      	movs	r3, #128	@ 0x80
 8003c2c:	05db      	lsls	r3, r3, #23
 8003c2e:	6a5a      	ldr	r2, [r3, #36]	@ 0x24
 8003c30:	1dbb      	adds	r3, r7, #6
 8003c32:	881b      	ldrh	r3, [r3, #0]
 8003c34:	429a      	cmp	r2, r3
 8003c36:	d3f8      	bcc.n	8003c2a <delay_us+0x16>
}
 8003c38:	46c0      	nop			@ (mov r8, r8)
 8003c3a:	46c0      	nop			@ (mov r8, r8)
 8003c3c:	46bd      	mov	sp, r7
 8003c3e:	b002      	add	sp, #8
 8003c40:	bd80      	pop	{r7, pc}

08003c42 <delay_ms>:

void delay_ms(uint16_t ms) {
 8003c42:	b580      	push	{r7, lr}
 8003c44:	b084      	sub	sp, #16
 8003c46:	af00      	add	r7, sp, #0
 8003c48:	0002      	movs	r2, r0
 8003c4a:	1dbb      	adds	r3, r7, #6
 8003c4c:	801a      	strh	r2, [r3, #0]
	uint16_t i;
	for (i = 0; i < ms; i++) {
 8003c4e:	230e      	movs	r3, #14
 8003c50:	18fb      	adds	r3, r7, r3
 8003c52:	2200      	movs	r2, #0
 8003c54:	801a      	strh	r2, [r3, #0]
 8003c56:	e00a      	b.n	8003c6e <delay_ms+0x2c>
		delay_us(1000); 				// Appeler delay_us pour 1000 s (soit 1 ms)
 8003c58:	23fa      	movs	r3, #250	@ 0xfa
 8003c5a:	009b      	lsls	r3, r3, #2
 8003c5c:	0018      	movs	r0, r3
 8003c5e:	f7ff ffd9 	bl	8003c14 <delay_us>
	for (i = 0; i < ms; i++) {
 8003c62:	210e      	movs	r1, #14
 8003c64:	187b      	adds	r3, r7, r1
 8003c66:	881a      	ldrh	r2, [r3, #0]
 8003c68:	187b      	adds	r3, r7, r1
 8003c6a:	3201      	adds	r2, #1
 8003c6c:	801a      	strh	r2, [r3, #0]
 8003c6e:	230e      	movs	r3, #14
 8003c70:	18fa      	adds	r2, r7, r3
 8003c72:	1dbb      	adds	r3, r7, #6
 8003c74:	8812      	ldrh	r2, [r2, #0]
 8003c76:	881b      	ldrh	r3, [r3, #0]
 8003c78:	429a      	cmp	r2, r3
 8003c7a:	d3ed      	bcc.n	8003c58 <delay_ms+0x16>
	}
}
 8003c7c:	46c0      	nop			@ (mov r8, r8)
 8003c7e:	46c0      	nop			@ (mov r8, r8)
 8003c80:	46bd      	mov	sp, r7
 8003c82:	b004      	add	sp, #16
 8003c84:	bd80      	pop	{r7, pc}
	...

08003c88 <Reset_Handler>:

  .section .text.Reset_Handler
  .weak Reset_Handler
  .type Reset_Handler, %function
Reset_Handler:
  ldr   r0, =_estack
 8003c88:	480d      	ldr	r0, [pc, #52]	@ (8003cc0 <LoopForever+0x2>)
  mov   sp, r0          /* set stack pointer */
 8003c8a:	4685      	mov	sp, r0
/* Call the clock system initialization function.*/
  bl  SystemInit
 8003c8c:	e000      	b.n	8003c90 <Reset_Handler+0x8>
 8003c8e:	bf00      	nop

/* Copy the data segment initializers from flash to SRAM */
  ldr r0, =_sdata
 8003c90:	480c      	ldr	r0, [pc, #48]	@ (8003cc4 <LoopForever+0x6>)
  ldr r1, =_edata
 8003c92:	490d      	ldr	r1, [pc, #52]	@ (8003cc8 <LoopForever+0xa>)
  ldr r2, =_sidata
 8003c94:	4a0d      	ldr	r2, [pc, #52]	@ (8003ccc <LoopForever+0xe>)
  movs r3, #0
 8003c96:	2300      	movs	r3, #0
  b LoopCopyDataInit
 8003c98:	e002      	b.n	8003ca0 <LoopCopyDataInit>

08003c9a <CopyDataInit>:

CopyDataInit:
  ldr r4, [r2, r3]
 8003c9a:	58d4      	ldr	r4, [r2, r3]
  str r4, [r0, r3]
 8003c9c:	50c4      	str	r4, [r0, r3]
  adds r3, r3, #4
 8003c9e:	3304      	adds	r3, #4

08003ca0 <LoopCopyDataInit>:

LoopCopyDataInit:
  adds r4, r0, r3
 8003ca0:	18c4      	adds	r4, r0, r3
  cmp r4, r1
 8003ca2:	428c      	cmp	r4, r1
  bcc CopyDataInit
 8003ca4:	d3f9      	bcc.n	8003c9a <CopyDataInit>

/* Zero fill the bss segment. */
  ldr r2, =_sbss
 8003ca6:	4a0a      	ldr	r2, [pc, #40]	@ (8003cd0 <LoopForever+0x12>)
  ldr r4, =_ebss
 8003ca8:	4c0a      	ldr	r4, [pc, #40]	@ (8003cd4 <LoopForever+0x16>)
  movs r3, #0
 8003caa:	2300      	movs	r3, #0
  b LoopFillZerobss
 8003cac:	e001      	b.n	8003cb2 <LoopFillZerobss>

08003cae <FillZerobss>:

FillZerobss:
  str  r3, [r2]
 8003cae:	6013      	str	r3, [r2, #0]
  adds r2, r2, #4
 8003cb0:	3204      	adds	r2, #4

08003cb2 <LoopFillZerobss>:

LoopFillZerobss:
  cmp r2, r4
 8003cb2:	42a2      	cmp	r2, r4
  bcc FillZerobss
 8003cb4:	d3fb      	bcc.n	8003cae <FillZerobss>

/* Call static constructors */
  bl __libc_init_array
 8003cb6:	f001 f811 	bl	8004cdc <__libc_init_array>
/* Call the application's entry point.*/
  bl main
 8003cba:	f7ff fdc7 	bl	800384c <main>

08003cbe <LoopForever>:

LoopForever:
  b LoopForever
 8003cbe:	e7fe      	b.n	8003cbe <LoopForever>
  ldr   r0, =_estack
 8003cc0:	20002000 	.word	0x20002000
  ldr r0, =_sdata
 8003cc4:	20000000 	.word	0x20000000
  ldr r1, =_edata
 8003cc8:	200001cc 	.word	0x200001cc
  ldr r2, =_sidata
 8003ccc:	08008a48 	.word	0x08008a48
  ldr r2, =_sbss
 8003cd0:	200001cc 	.word	0x200001cc
  ldr r4, =_ebss
 8003cd4:	20000354 	.word	0x20000354

08003cd8 <ADC_COMP_IRQHandler>:
 * @retval : None
*/
  .section .text.Default_Handler,"ax",%progbits
Default_Handler:
Infinite_Loop:
  b Infinite_Loop
 8003cd8:	e7fe      	b.n	8003cd8 <ADC_COMP_IRQHandler>

08003cda <__cvt>:
 8003cda:	b5f0      	push	{r4, r5, r6, r7, lr}
 8003cdc:	001f      	movs	r7, r3
 8003cde:	2300      	movs	r3, #0
 8003ce0:	0016      	movs	r6, r2
 8003ce2:	b08b      	sub	sp, #44	@ 0x2c
 8003ce4:	429f      	cmp	r7, r3
 8003ce6:	da04      	bge.n	8003cf2 <__cvt+0x18>
 8003ce8:	2180      	movs	r1, #128	@ 0x80
 8003cea:	0609      	lsls	r1, r1, #24
 8003cec:	187b      	adds	r3, r7, r1
 8003cee:	001f      	movs	r7, r3
 8003cf0:	232d      	movs	r3, #45	@ 0x2d
 8003cf2:	9a12      	ldr	r2, [sp, #72]	@ 0x48
 8003cf4:	9d14      	ldr	r5, [sp, #80]	@ 0x50
 8003cf6:	7013      	strb	r3, [r2, #0]
 8003cf8:	2320      	movs	r3, #32
 8003cfa:	2203      	movs	r2, #3
 8003cfc:	439d      	bics	r5, r3
 8003cfe:	2d46      	cmp	r5, #70	@ 0x46
 8003d00:	d007      	beq.n	8003d12 <__cvt+0x38>
 8003d02:	002b      	movs	r3, r5
 8003d04:	3b45      	subs	r3, #69	@ 0x45
 8003d06:	4259      	negs	r1, r3
 8003d08:	414b      	adcs	r3, r1
 8003d0a:	9910      	ldr	r1, [sp, #64]	@ 0x40
 8003d0c:	3a01      	subs	r2, #1
 8003d0e:	18cb      	adds	r3, r1, r3
 8003d10:	9310      	str	r3, [sp, #64]	@ 0x40
 8003d12:	ab09      	add	r3, sp, #36	@ 0x24
 8003d14:	9304      	str	r3, [sp, #16]
 8003d16:	ab08      	add	r3, sp, #32
 8003d18:	9303      	str	r3, [sp, #12]
 8003d1a:	9b13      	ldr	r3, [sp, #76]	@ 0x4c
 8003d1c:	9200      	str	r2, [sp, #0]
 8003d1e:	9302      	str	r3, [sp, #8]
 8003d20:	9b10      	ldr	r3, [sp, #64]	@ 0x40
 8003d22:	0032      	movs	r2, r6
 8003d24:	9301      	str	r3, [sp, #4]
 8003d26:	003b      	movs	r3, r7
 8003d28:	f001 f8a6 	bl	8004e78 <_dtoa_r>
 8003d2c:	0004      	movs	r4, r0
 8003d2e:	2d47      	cmp	r5, #71	@ 0x47
 8003d30:	d11b      	bne.n	8003d6a <__cvt+0x90>
 8003d32:	9b11      	ldr	r3, [sp, #68]	@ 0x44
 8003d34:	07db      	lsls	r3, r3, #31
 8003d36:	d511      	bpl.n	8003d5c <__cvt+0x82>
 8003d38:	9b10      	ldr	r3, [sp, #64]	@ 0x40
 8003d3a:	18c3      	adds	r3, r0, r3
 8003d3c:	9307      	str	r3, [sp, #28]
 8003d3e:	2200      	movs	r2, #0
 8003d40:	2300      	movs	r3, #0
 8003d42:	0030      	movs	r0, r6
 8003d44:	0039      	movs	r1, r7
 8003d46:	f7fc fb7f 	bl	8000448 <__aeabi_dcmpeq>
 8003d4a:	2800      	cmp	r0, #0
 8003d4c:	d001      	beq.n	8003d52 <__cvt+0x78>
 8003d4e:	9b07      	ldr	r3, [sp, #28]
 8003d50:	9309      	str	r3, [sp, #36]	@ 0x24
 8003d52:	2230      	movs	r2, #48	@ 0x30
 8003d54:	9b09      	ldr	r3, [sp, #36]	@ 0x24
 8003d56:	9907      	ldr	r1, [sp, #28]
 8003d58:	428b      	cmp	r3, r1
 8003d5a:	d320      	bcc.n	8003d9e <__cvt+0xc4>
 8003d5c:	0020      	movs	r0, r4
 8003d5e:	9b09      	ldr	r3, [sp, #36]	@ 0x24
 8003d60:	9a15      	ldr	r2, [sp, #84]	@ 0x54
 8003d62:	1b1b      	subs	r3, r3, r4
 8003d64:	6013      	str	r3, [r2, #0]
 8003d66:	b00b      	add	sp, #44	@ 0x2c
 8003d68:	bdf0      	pop	{r4, r5, r6, r7, pc}
 8003d6a:	9b10      	ldr	r3, [sp, #64]	@ 0x40
 8003d6c:	18c3      	adds	r3, r0, r3
 8003d6e:	9307      	str	r3, [sp, #28]
 8003d70:	2d46      	cmp	r5, #70	@ 0x46
 8003d72:	d1e4      	bne.n	8003d3e <__cvt+0x64>
 8003d74:	7803      	ldrb	r3, [r0, #0]
 8003d76:	2b30      	cmp	r3, #48	@ 0x30
 8003d78:	d10c      	bne.n	8003d94 <__cvt+0xba>
 8003d7a:	2200      	movs	r2, #0
 8003d7c:	2300      	movs	r3, #0
 8003d7e:	0030      	movs	r0, r6
 8003d80:	0039      	movs	r1, r7
 8003d82:	f7fc fb61 	bl	8000448 <__aeabi_dcmpeq>
 8003d86:	2800      	cmp	r0, #0
 8003d88:	d104      	bne.n	8003d94 <__cvt+0xba>
 8003d8a:	2301      	movs	r3, #1
 8003d8c:	9a10      	ldr	r2, [sp, #64]	@ 0x40
 8003d8e:	1a9b      	subs	r3, r3, r2
 8003d90:	9a13      	ldr	r2, [sp, #76]	@ 0x4c
 8003d92:	6013      	str	r3, [r2, #0]
 8003d94:	9b13      	ldr	r3, [sp, #76]	@ 0x4c
 8003d96:	9a07      	ldr	r2, [sp, #28]
 8003d98:	681b      	ldr	r3, [r3, #0]
 8003d9a:	18d3      	adds	r3, r2, r3
 8003d9c:	e7ce      	b.n	8003d3c <__cvt+0x62>
 8003d9e:	1c59      	adds	r1, r3, #1
 8003da0:	9109      	str	r1, [sp, #36]	@ 0x24
 8003da2:	701a      	strb	r2, [r3, #0]
 8003da4:	e7d6      	b.n	8003d54 <__cvt+0x7a>

08003da6 <__exponent>:
 8003da6:	b5f0      	push	{r4, r5, r6, r7, lr}
 8003da8:	232b      	movs	r3, #43	@ 0x2b
 8003daa:	0005      	movs	r5, r0
 8003dac:	000c      	movs	r4, r1
 8003dae:	b085      	sub	sp, #20
 8003db0:	7002      	strb	r2, [r0, #0]
 8003db2:	2900      	cmp	r1, #0
 8003db4:	da01      	bge.n	8003dba <__exponent+0x14>
 8003db6:	424c      	negs	r4, r1
 8003db8:	3302      	adds	r3, #2
 8003dba:	706b      	strb	r3, [r5, #1]
 8003dbc:	2c09      	cmp	r4, #9
 8003dbe:	dd2c      	ble.n	8003e1a <__exponent+0x74>
 8003dc0:	ab02      	add	r3, sp, #8
 8003dc2:	1dde      	adds	r6, r3, #7
 8003dc4:	0020      	movs	r0, r4
 8003dc6:	210a      	movs	r1, #10
 8003dc8:	f7fc fb28 	bl	800041c <__aeabi_idivmod>
 8003dcc:	0037      	movs	r7, r6
 8003dce:	3130      	adds	r1, #48	@ 0x30
 8003dd0:	3e01      	subs	r6, #1
 8003dd2:	0020      	movs	r0, r4
 8003dd4:	7031      	strb	r1, [r6, #0]
 8003dd6:	210a      	movs	r1, #10
 8003dd8:	9401      	str	r4, [sp, #4]
 8003dda:	f7fc fa39 	bl	8000250 <__divsi3>
 8003dde:	9b01      	ldr	r3, [sp, #4]
 8003de0:	0004      	movs	r4, r0
 8003de2:	2b63      	cmp	r3, #99	@ 0x63
 8003de4:	dcee      	bgt.n	8003dc4 <__exponent+0x1e>
 8003de6:	1eba      	subs	r2, r7, #2
 8003de8:	1ca8      	adds	r0, r5, #2
 8003dea:	0001      	movs	r1, r0
 8003dec:	0013      	movs	r3, r2
 8003dee:	3430      	adds	r4, #48	@ 0x30
 8003df0:	7014      	strb	r4, [r2, #0]
 8003df2:	ac02      	add	r4, sp, #8
 8003df4:	3407      	adds	r4, #7
 8003df6:	429c      	cmp	r4, r3
 8003df8:	d80a      	bhi.n	8003e10 <__exponent+0x6a>
 8003dfa:	2300      	movs	r3, #0
 8003dfc:	42a2      	cmp	r2, r4
 8003dfe:	d803      	bhi.n	8003e08 <__exponent+0x62>
 8003e00:	3309      	adds	r3, #9
 8003e02:	aa02      	add	r2, sp, #8
 8003e04:	189b      	adds	r3, r3, r2
 8003e06:	1bdb      	subs	r3, r3, r7
 8003e08:	18c0      	adds	r0, r0, r3
 8003e0a:	1b40      	subs	r0, r0, r5
 8003e0c:	b005      	add	sp, #20
 8003e0e:	bdf0      	pop	{r4, r5, r6, r7, pc}
 8003e10:	781c      	ldrb	r4, [r3, #0]
 8003e12:	3301      	adds	r3, #1
 8003e14:	700c      	strb	r4, [r1, #0]
 8003e16:	3101      	adds	r1, #1
 8003e18:	e7eb      	b.n	8003df2 <__exponent+0x4c>
 8003e1a:	2330      	movs	r3, #48	@ 0x30
 8003e1c:	18e4      	adds	r4, r4, r3
 8003e1e:	70ab      	strb	r3, [r5, #2]
 8003e20:	1d28      	adds	r0, r5, #4
 8003e22:	70ec      	strb	r4, [r5, #3]
 8003e24:	e7f1      	b.n	8003e0a <__exponent+0x64>
	...

08003e28 <_printf_float>:
 8003e28:	b5f0      	push	{r4, r5, r6, r7, lr}
 8003e2a:	b097      	sub	sp, #92	@ 0x5c
 8003e2c:	000d      	movs	r5, r1
 8003e2e:	920a      	str	r2, [sp, #40]	@ 0x28
 8003e30:	9c1c      	ldr	r4, [sp, #112]	@ 0x70
 8003e32:	930b      	str	r3, [sp, #44]	@ 0x2c
 8003e34:	9009      	str	r0, [sp, #36]	@ 0x24
 8003e36:	f000 fef9 	bl	8004c2c <_localeconv_r>
 8003e3a:	6803      	ldr	r3, [r0, #0]
 8003e3c:	0018      	movs	r0, r3
 8003e3e:	930d      	str	r3, [sp, #52]	@ 0x34
 8003e40:	f7fc f960 	bl	8000104 <strlen>
 8003e44:	2300      	movs	r3, #0
 8003e46:	900f      	str	r0, [sp, #60]	@ 0x3c
 8003e48:	9314      	str	r3, [sp, #80]	@ 0x50
 8003e4a:	7e2b      	ldrb	r3, [r5, #24]
 8003e4c:	2207      	movs	r2, #7
 8003e4e:	930c      	str	r3, [sp, #48]	@ 0x30
 8003e50:	682b      	ldr	r3, [r5, #0]
 8003e52:	930e      	str	r3, [sp, #56]	@ 0x38
 8003e54:	990e      	ldr	r1, [sp, #56]	@ 0x38
 8003e56:	6823      	ldr	r3, [r4, #0]
 8003e58:	05c9      	lsls	r1, r1, #23
 8003e5a:	d545      	bpl.n	8003ee8 <_printf_float+0xc0>
 8003e5c:	189b      	adds	r3, r3, r2
 8003e5e:	4393      	bics	r3, r2
 8003e60:	001a      	movs	r2, r3
 8003e62:	3208      	adds	r2, #8
 8003e64:	6022      	str	r2, [r4, #0]
 8003e66:	2201      	movs	r2, #1
 8003e68:	681e      	ldr	r6, [r3, #0]
 8003e6a:	685f      	ldr	r7, [r3, #4]
 8003e6c:	007b      	lsls	r3, r7, #1
 8003e6e:	085b      	lsrs	r3, r3, #1
 8003e70:	9311      	str	r3, [sp, #68]	@ 0x44
 8003e72:	9610      	str	r6, [sp, #64]	@ 0x40
 8003e74:	64ae      	str	r6, [r5, #72]	@ 0x48
 8003e76:	64ef      	str	r7, [r5, #76]	@ 0x4c
 8003e78:	9810      	ldr	r0, [sp, #64]	@ 0x40
 8003e7a:	9911      	ldr	r1, [sp, #68]	@ 0x44
 8003e7c:	4ba7      	ldr	r3, [pc, #668]	@ (800411c <_printf_float+0x2f4>)
 8003e7e:	4252      	negs	r2, r2
 8003e80:	f7fe fca8 	bl	80027d4 <__aeabi_dcmpun>
 8003e84:	2800      	cmp	r0, #0
 8003e86:	d131      	bne.n	8003eec <_printf_float+0xc4>
 8003e88:	9810      	ldr	r0, [sp, #64]	@ 0x40
 8003e8a:	9911      	ldr	r1, [sp, #68]	@ 0x44
 8003e8c:	2201      	movs	r2, #1
 8003e8e:	4ba3      	ldr	r3, [pc, #652]	@ (800411c <_printf_float+0x2f4>)
 8003e90:	4252      	negs	r2, r2
 8003e92:	f7fc fae9 	bl	8000468 <__aeabi_dcmple>
 8003e96:	2800      	cmp	r0, #0
 8003e98:	d128      	bne.n	8003eec <_printf_float+0xc4>
 8003e9a:	2200      	movs	r2, #0
 8003e9c:	2300      	movs	r3, #0
 8003e9e:	0030      	movs	r0, r6
 8003ea0:	0039      	movs	r1, r7
 8003ea2:	f7fc fad7 	bl	8000454 <__aeabi_dcmplt>
 8003ea6:	2800      	cmp	r0, #0
 8003ea8:	d003      	beq.n	8003eb2 <_printf_float+0x8a>
 8003eaa:	002b      	movs	r3, r5
 8003eac:	222d      	movs	r2, #45	@ 0x2d
 8003eae:	3343      	adds	r3, #67	@ 0x43
 8003eb0:	701a      	strb	r2, [r3, #0]
 8003eb2:	9b0c      	ldr	r3, [sp, #48]	@ 0x30
 8003eb4:	4f9a      	ldr	r7, [pc, #616]	@ (8004120 <_printf_float+0x2f8>)
 8003eb6:	2b47      	cmp	r3, #71	@ 0x47
 8003eb8:	d900      	bls.n	8003ebc <_printf_float+0x94>
 8003eba:	4f9a      	ldr	r7, [pc, #616]	@ (8004124 <_printf_float+0x2fc>)
 8003ebc:	2303      	movs	r3, #3
 8003ebe:	2400      	movs	r4, #0
 8003ec0:	9a0e      	ldr	r2, [sp, #56]	@ 0x38
 8003ec2:	612b      	str	r3, [r5, #16]
 8003ec4:	3301      	adds	r3, #1
 8003ec6:	439a      	bics	r2, r3
 8003ec8:	602a      	str	r2, [r5, #0]
 8003eca:	9b0b      	ldr	r3, [sp, #44]	@ 0x2c
 8003ecc:	0029      	movs	r1, r5
 8003ece:	9300      	str	r3, [sp, #0]
 8003ed0:	9809      	ldr	r0, [sp, #36]	@ 0x24
 8003ed2:	9b0a      	ldr	r3, [sp, #40]	@ 0x28
 8003ed4:	aa15      	add	r2, sp, #84	@ 0x54
 8003ed6:	f000 f9e5 	bl	80042a4 <_printf_common>
 8003eda:	3001      	adds	r0, #1
 8003edc:	d000      	beq.n	8003ee0 <_printf_float+0xb8>
 8003ede:	e09f      	b.n	8004020 <_printf_float+0x1f8>
 8003ee0:	2001      	movs	r0, #1
 8003ee2:	4240      	negs	r0, r0
 8003ee4:	b017      	add	sp, #92	@ 0x5c
 8003ee6:	bdf0      	pop	{r4, r5, r6, r7, pc}
 8003ee8:	3307      	adds	r3, #7
 8003eea:	e7b8      	b.n	8003e5e <_printf_float+0x36>
 8003eec:	0032      	movs	r2, r6
 8003eee:	003b      	movs	r3, r7
 8003ef0:	0030      	movs	r0, r6
 8003ef2:	0039      	movs	r1, r7
 8003ef4:	f7fe fc6e 	bl	80027d4 <__aeabi_dcmpun>
 8003ef8:	2800      	cmp	r0, #0
 8003efa:	d00b      	beq.n	8003f14 <_printf_float+0xec>
 8003efc:	2f00      	cmp	r7, #0
 8003efe:	da03      	bge.n	8003f08 <_printf_float+0xe0>
 8003f00:	002b      	movs	r3, r5
 8003f02:	222d      	movs	r2, #45	@ 0x2d
 8003f04:	3343      	adds	r3, #67	@ 0x43
 8003f06:	701a      	strb	r2, [r3, #0]
 8003f08:	9b0c      	ldr	r3, [sp, #48]	@ 0x30
 8003f0a:	4f87      	ldr	r7, [pc, #540]	@ (8004128 <_printf_float+0x300>)
 8003f0c:	2b47      	cmp	r3, #71	@ 0x47
 8003f0e:	d9d5      	bls.n	8003ebc <_printf_float+0x94>
 8003f10:	4f86      	ldr	r7, [pc, #536]	@ (800412c <_printf_float+0x304>)
 8003f12:	e7d3      	b.n	8003ebc <_printf_float+0x94>
 8003f14:	2220      	movs	r2, #32
 8003f16:	9c0c      	ldr	r4, [sp, #48]	@ 0x30
 8003f18:	686b      	ldr	r3, [r5, #4]
 8003f1a:	4394      	bics	r4, r2
 8003f1c:	1c5a      	adds	r2, r3, #1
 8003f1e:	d146      	bne.n	8003fae <_printf_float+0x186>
 8003f20:	3307      	adds	r3, #7
 8003f22:	606b      	str	r3, [r5, #4]
 8003f24:	2380      	movs	r3, #128	@ 0x80
 8003f26:	9a0e      	ldr	r2, [sp, #56]	@ 0x38
 8003f28:	00db      	lsls	r3, r3, #3
 8003f2a:	4313      	orrs	r3, r2
 8003f2c:	2200      	movs	r2, #0
 8003f2e:	602b      	str	r3, [r5, #0]
 8003f30:	9206      	str	r2, [sp, #24]
 8003f32:	aa14      	add	r2, sp, #80	@ 0x50
 8003f34:	9205      	str	r2, [sp, #20]
 8003f36:	9a0c      	ldr	r2, [sp, #48]	@ 0x30
 8003f38:	a90a      	add	r1, sp, #40	@ 0x28
 8003f3a:	9204      	str	r2, [sp, #16]
 8003f3c:	aa13      	add	r2, sp, #76	@ 0x4c
 8003f3e:	9203      	str	r2, [sp, #12]
 8003f40:	2223      	movs	r2, #35	@ 0x23
 8003f42:	1852      	adds	r2, r2, r1
 8003f44:	9202      	str	r2, [sp, #8]
 8003f46:	9301      	str	r3, [sp, #4]
 8003f48:	686b      	ldr	r3, [r5, #4]
 8003f4a:	0032      	movs	r2, r6
 8003f4c:	9300      	str	r3, [sp, #0]
 8003f4e:	9809      	ldr	r0, [sp, #36]	@ 0x24
 8003f50:	003b      	movs	r3, r7
 8003f52:	f7ff fec2 	bl	8003cda <__cvt>
 8003f56:	9a13      	ldr	r2, [sp, #76]	@ 0x4c
 8003f58:	0007      	movs	r7, r0
 8003f5a:	2c47      	cmp	r4, #71	@ 0x47
 8003f5c:	d12d      	bne.n	8003fba <_printf_float+0x192>
 8003f5e:	1cd3      	adds	r3, r2, #3
 8003f60:	db02      	blt.n	8003f68 <_printf_float+0x140>
 8003f62:	686b      	ldr	r3, [r5, #4]
 8003f64:	429a      	cmp	r2, r3
 8003f66:	dd48      	ble.n	8003ffa <_printf_float+0x1d2>
 8003f68:	9b0c      	ldr	r3, [sp, #48]	@ 0x30
 8003f6a:	9913      	ldr	r1, [sp, #76]	@ 0x4c
 8003f6c:	3b02      	subs	r3, #2
 8003f6e:	b2db      	uxtb	r3, r3
 8003f70:	930c      	str	r3, [sp, #48]	@ 0x30
 8003f72:	0028      	movs	r0, r5
 8003f74:	9a0c      	ldr	r2, [sp, #48]	@ 0x30
 8003f76:	3901      	subs	r1, #1
 8003f78:	3050      	adds	r0, #80	@ 0x50
 8003f7a:	9113      	str	r1, [sp, #76]	@ 0x4c
 8003f7c:	f7ff ff13 	bl	8003da6 <__exponent>
 8003f80:	9a14      	ldr	r2, [sp, #80]	@ 0x50
 8003f82:	0004      	movs	r4, r0
 8003f84:	1813      	adds	r3, r2, r0
 8003f86:	612b      	str	r3, [r5, #16]
 8003f88:	2a01      	cmp	r2, #1
 8003f8a:	dc02      	bgt.n	8003f92 <_printf_float+0x16a>
 8003f8c:	682a      	ldr	r2, [r5, #0]
 8003f8e:	07d2      	lsls	r2, r2, #31
 8003f90:	d501      	bpl.n	8003f96 <_printf_float+0x16e>
 8003f92:	3301      	adds	r3, #1
 8003f94:	612b      	str	r3, [r5, #16]
 8003f96:	2323      	movs	r3, #35	@ 0x23
 8003f98:	aa0a      	add	r2, sp, #40	@ 0x28
 8003f9a:	189b      	adds	r3, r3, r2
 8003f9c:	781b      	ldrb	r3, [r3, #0]
 8003f9e:	2b00      	cmp	r3, #0
 8003fa0:	d100      	bne.n	8003fa4 <_printf_float+0x17c>
 8003fa2:	e792      	b.n	8003eca <_printf_float+0xa2>
 8003fa4:	002b      	movs	r3, r5
 8003fa6:	222d      	movs	r2, #45	@ 0x2d
 8003fa8:	3343      	adds	r3, #67	@ 0x43
 8003faa:	701a      	strb	r2, [r3, #0]
 8003fac:	e78d      	b.n	8003eca <_printf_float+0xa2>
 8003fae:	2c47      	cmp	r4, #71	@ 0x47
 8003fb0:	d1b8      	bne.n	8003f24 <_printf_float+0xfc>
 8003fb2:	2b00      	cmp	r3, #0
 8003fb4:	d1b6      	bne.n	8003f24 <_printf_float+0xfc>
 8003fb6:	3301      	adds	r3, #1
 8003fb8:	e7b3      	b.n	8003f22 <_printf_float+0xfa>
 8003fba:	9b0c      	ldr	r3, [sp, #48]	@ 0x30
 8003fbc:	0011      	movs	r1, r2
 8003fbe:	2b65      	cmp	r3, #101	@ 0x65
 8003fc0:	d9d7      	bls.n	8003f72 <_printf_float+0x14a>
 8003fc2:	9b0c      	ldr	r3, [sp, #48]	@ 0x30
 8003fc4:	2b66      	cmp	r3, #102	@ 0x66
 8003fc6:	d11a      	bne.n	8003ffe <_printf_float+0x1d6>
 8003fc8:	686b      	ldr	r3, [r5, #4]
 8003fca:	2a00      	cmp	r2, #0
 8003fcc:	dd09      	ble.n	8003fe2 <_printf_float+0x1ba>
 8003fce:	612a      	str	r2, [r5, #16]
 8003fd0:	2b00      	cmp	r3, #0
 8003fd2:	d102      	bne.n	8003fda <_printf_float+0x1b2>
 8003fd4:	6829      	ldr	r1, [r5, #0]
 8003fd6:	07c9      	lsls	r1, r1, #31
 8003fd8:	d50b      	bpl.n	8003ff2 <_printf_float+0x1ca>
 8003fda:	3301      	adds	r3, #1
 8003fdc:	189b      	adds	r3, r3, r2
 8003fde:	612b      	str	r3, [r5, #16]
 8003fe0:	e007      	b.n	8003ff2 <_printf_float+0x1ca>
 8003fe2:	2b00      	cmp	r3, #0
 8003fe4:	d103      	bne.n	8003fee <_printf_float+0x1c6>
 8003fe6:	2201      	movs	r2, #1
 8003fe8:	6829      	ldr	r1, [r5, #0]
 8003fea:	4211      	tst	r1, r2
 8003fec:	d000      	beq.n	8003ff0 <_printf_float+0x1c8>
 8003fee:	1c9a      	adds	r2, r3, #2
 8003ff0:	612a      	str	r2, [r5, #16]
 8003ff2:	9b13      	ldr	r3, [sp, #76]	@ 0x4c
 8003ff4:	2400      	movs	r4, #0
 8003ff6:	65ab      	str	r3, [r5, #88]	@ 0x58
 8003ff8:	e7cd      	b.n	8003f96 <_printf_float+0x16e>
 8003ffa:	2367      	movs	r3, #103	@ 0x67
 8003ffc:	930c      	str	r3, [sp, #48]	@ 0x30
 8003ffe:	9913      	ldr	r1, [sp, #76]	@ 0x4c
 8004000:	9b14      	ldr	r3, [sp, #80]	@ 0x50
 8004002:	4299      	cmp	r1, r3
 8004004:	db06      	blt.n	8004014 <_printf_float+0x1ec>
 8004006:	682b      	ldr	r3, [r5, #0]
 8004008:	6129      	str	r1, [r5, #16]
 800400a:	07db      	lsls	r3, r3, #31
 800400c:	d5f1      	bpl.n	8003ff2 <_printf_float+0x1ca>
 800400e:	3101      	adds	r1, #1
 8004010:	6129      	str	r1, [r5, #16]
 8004012:	e7ee      	b.n	8003ff2 <_printf_float+0x1ca>
 8004014:	2201      	movs	r2, #1
 8004016:	2900      	cmp	r1, #0
 8004018:	dce0      	bgt.n	8003fdc <_printf_float+0x1b4>
 800401a:	1892      	adds	r2, r2, r2
 800401c:	1a52      	subs	r2, r2, r1
 800401e:	e7dd      	b.n	8003fdc <_printf_float+0x1b4>
 8004020:	682a      	ldr	r2, [r5, #0]
 8004022:	0553      	lsls	r3, r2, #21
 8004024:	d408      	bmi.n	8004038 <_printf_float+0x210>
 8004026:	692b      	ldr	r3, [r5, #16]
 8004028:	003a      	movs	r2, r7
 800402a:	990a      	ldr	r1, [sp, #40]	@ 0x28
 800402c:	9809      	ldr	r0, [sp, #36]	@ 0x24
 800402e:	9c0b      	ldr	r4, [sp, #44]	@ 0x2c
 8004030:	47a0      	blx	r4
 8004032:	3001      	adds	r0, #1
 8004034:	d129      	bne.n	800408a <_printf_float+0x262>
 8004036:	e753      	b.n	8003ee0 <_printf_float+0xb8>
 8004038:	9b0c      	ldr	r3, [sp, #48]	@ 0x30
 800403a:	2b65      	cmp	r3, #101	@ 0x65
 800403c:	d800      	bhi.n	8004040 <_printf_float+0x218>
 800403e:	e0da      	b.n	80041f6 <_printf_float+0x3ce>
 8004040:	6ca8      	ldr	r0, [r5, #72]	@ 0x48
 8004042:	6ce9      	ldr	r1, [r5, #76]	@ 0x4c
 8004044:	2200      	movs	r2, #0
 8004046:	2300      	movs	r3, #0
 8004048:	f7fc f9fe 	bl	8000448 <__aeabi_dcmpeq>
 800404c:	2800      	cmp	r0, #0
 800404e:	d033      	beq.n	80040b8 <_printf_float+0x290>
 8004050:	2301      	movs	r3, #1
 8004052:	4a37      	ldr	r2, [pc, #220]	@ (8004130 <_printf_float+0x308>)
 8004054:	990a      	ldr	r1, [sp, #40]	@ 0x28
 8004056:	9809      	ldr	r0, [sp, #36]	@ 0x24
 8004058:	9c0b      	ldr	r4, [sp, #44]	@ 0x2c
 800405a:	47a0      	blx	r4
 800405c:	3001      	adds	r0, #1
 800405e:	d100      	bne.n	8004062 <_printf_float+0x23a>
 8004060:	e73e      	b.n	8003ee0 <_printf_float+0xb8>
 8004062:	9e14      	ldr	r6, [sp, #80]	@ 0x50
 8004064:	9b13      	ldr	r3, [sp, #76]	@ 0x4c
 8004066:	42b3      	cmp	r3, r6
 8004068:	db02      	blt.n	8004070 <_printf_float+0x248>
 800406a:	682b      	ldr	r3, [r5, #0]
 800406c:	07db      	lsls	r3, r3, #31
 800406e:	d50c      	bpl.n	800408a <_printf_float+0x262>
 8004070:	9c0b      	ldr	r4, [sp, #44]	@ 0x2c
 8004072:	9b0f      	ldr	r3, [sp, #60]	@ 0x3c
 8004074:	9a0d      	ldr	r2, [sp, #52]	@ 0x34
 8004076:	990a      	ldr	r1, [sp, #40]	@ 0x28
 8004078:	9809      	ldr	r0, [sp, #36]	@ 0x24
 800407a:	47a0      	blx	r4
 800407c:	2400      	movs	r4, #0
 800407e:	3001      	adds	r0, #1
 8004080:	d100      	bne.n	8004084 <_printf_float+0x25c>
 8004082:	e72d      	b.n	8003ee0 <_printf_float+0xb8>
 8004084:	1e73      	subs	r3, r6, #1
 8004086:	42a3      	cmp	r3, r4
 8004088:	dc0a      	bgt.n	80040a0 <_printf_float+0x278>
 800408a:	682b      	ldr	r3, [r5, #0]
 800408c:	079b      	lsls	r3, r3, #30
 800408e:	d500      	bpl.n	8004092 <_printf_float+0x26a>
 8004090:	e105      	b.n	800429e <_printf_float+0x476>
 8004092:	9b15      	ldr	r3, [sp, #84]	@ 0x54
 8004094:	68e8      	ldr	r0, [r5, #12]
 8004096:	4298      	cmp	r0, r3
 8004098:	db00      	blt.n	800409c <_printf_float+0x274>
 800409a:	e723      	b.n	8003ee4 <_printf_float+0xbc>
 800409c:	0018      	movs	r0, r3
 800409e:	e721      	b.n	8003ee4 <_printf_float+0xbc>
 80040a0:	002a      	movs	r2, r5
 80040a2:	2301      	movs	r3, #1
 80040a4:	990a      	ldr	r1, [sp, #40]	@ 0x28
 80040a6:	9809      	ldr	r0, [sp, #36]	@ 0x24
 80040a8:	9f0b      	ldr	r7, [sp, #44]	@ 0x2c
 80040aa:	321a      	adds	r2, #26
 80040ac:	47b8      	blx	r7
 80040ae:	3001      	adds	r0, #1
 80040b0:	d100      	bne.n	80040b4 <_printf_float+0x28c>
 80040b2:	e715      	b.n	8003ee0 <_printf_float+0xb8>
 80040b4:	3401      	adds	r4, #1
 80040b6:	e7e5      	b.n	8004084 <_printf_float+0x25c>
 80040b8:	9b13      	ldr	r3, [sp, #76]	@ 0x4c
 80040ba:	2b00      	cmp	r3, #0
 80040bc:	dc3a      	bgt.n	8004134 <_printf_float+0x30c>
 80040be:	2301      	movs	r3, #1
 80040c0:	4a1b      	ldr	r2, [pc, #108]	@ (8004130 <_printf_float+0x308>)
 80040c2:	990a      	ldr	r1, [sp, #40]	@ 0x28
 80040c4:	9809      	ldr	r0, [sp, #36]	@ 0x24
 80040c6:	9c0b      	ldr	r4, [sp, #44]	@ 0x2c
 80040c8:	47a0      	blx	r4
 80040ca:	3001      	adds	r0, #1
 80040cc:	d100      	bne.n	80040d0 <_printf_float+0x2a8>
 80040ce:	e707      	b.n	8003ee0 <_printf_float+0xb8>
 80040d0:	9e14      	ldr	r6, [sp, #80]	@ 0x50
 80040d2:	9b13      	ldr	r3, [sp, #76]	@ 0x4c
 80040d4:	4333      	orrs	r3, r6
 80040d6:	d102      	bne.n	80040de <_printf_float+0x2b6>
 80040d8:	682b      	ldr	r3, [r5, #0]
 80040da:	07db      	lsls	r3, r3, #31
 80040dc:	d5d5      	bpl.n	800408a <_printf_float+0x262>
 80040de:	9b0f      	ldr	r3, [sp, #60]	@ 0x3c
 80040e0:	9a0d      	ldr	r2, [sp, #52]	@ 0x34
 80040e2:	990a      	ldr	r1, [sp, #40]	@ 0x28
 80040e4:	9809      	ldr	r0, [sp, #36]	@ 0x24
 80040e6:	9c0b      	ldr	r4, [sp, #44]	@ 0x2c
 80040e8:	47a0      	blx	r4
 80040ea:	2300      	movs	r3, #0
 80040ec:	3001      	adds	r0, #1
 80040ee:	d100      	bne.n	80040f2 <_printf_float+0x2ca>
 80040f0:	e6f6      	b.n	8003ee0 <_printf_float+0xb8>
 80040f2:	930c      	str	r3, [sp, #48]	@ 0x30
 80040f4:	9b13      	ldr	r3, [sp, #76]	@ 0x4c
 80040f6:	9a0c      	ldr	r2, [sp, #48]	@ 0x30
 80040f8:	425b      	negs	r3, r3
 80040fa:	4293      	cmp	r3, r2
 80040fc:	dc01      	bgt.n	8004102 <_printf_float+0x2da>
 80040fe:	0033      	movs	r3, r6
 8004100:	e792      	b.n	8004028 <_printf_float+0x200>
 8004102:	002a      	movs	r2, r5
 8004104:	2301      	movs	r3, #1
 8004106:	990a      	ldr	r1, [sp, #40]	@ 0x28
 8004108:	9809      	ldr	r0, [sp, #36]	@ 0x24
 800410a:	9c0b      	ldr	r4, [sp, #44]	@ 0x2c
 800410c:	321a      	adds	r2, #26
 800410e:	47a0      	blx	r4
 8004110:	3001      	adds	r0, #1
 8004112:	d100      	bne.n	8004116 <_printf_float+0x2ee>
 8004114:	e6e4      	b.n	8003ee0 <_printf_float+0xb8>
 8004116:	9b0c      	ldr	r3, [sp, #48]	@ 0x30
 8004118:	3301      	adds	r3, #1
 800411a:	e7ea      	b.n	80040f2 <_printf_float+0x2ca>
 800411c:	7fefffff 	.word	0x7fefffff
 8004120:	08008614 	.word	0x08008614
 8004124:	08008618 	.word	0x08008618
 8004128:	0800861c 	.word	0x0800861c
 800412c:	08008620 	.word	0x08008620
 8004130:	08008624 	.word	0x08008624
 8004134:	9b14      	ldr	r3, [sp, #80]	@ 0x50
 8004136:	6dae      	ldr	r6, [r5, #88]	@ 0x58
 8004138:	930c      	str	r3, [sp, #48]	@ 0x30
 800413a:	429e      	cmp	r6, r3
 800413c:	dd00      	ble.n	8004140 <_printf_float+0x318>
 800413e:	001e      	movs	r6, r3
 8004140:	2e00      	cmp	r6, #0
 8004142:	dc31      	bgt.n	80041a8 <_printf_float+0x380>
 8004144:	43f3      	mvns	r3, r6
 8004146:	2400      	movs	r4, #0
 8004148:	17db      	asrs	r3, r3, #31
 800414a:	4033      	ands	r3, r6
 800414c:	930e      	str	r3, [sp, #56]	@ 0x38
 800414e:	6dae      	ldr	r6, [r5, #88]	@ 0x58
 8004150:	9b0e      	ldr	r3, [sp, #56]	@ 0x38
 8004152:	1af3      	subs	r3, r6, r3
 8004154:	42a3      	cmp	r3, r4
 8004156:	dc30      	bgt.n	80041ba <_printf_float+0x392>
 8004158:	9b13      	ldr	r3, [sp, #76]	@ 0x4c
 800415a:	9a0c      	ldr	r2, [sp, #48]	@ 0x30
 800415c:	429a      	cmp	r2, r3
 800415e:	dc38      	bgt.n	80041d2 <_printf_float+0x3aa>
 8004160:	682b      	ldr	r3, [r5, #0]
 8004162:	07db      	lsls	r3, r3, #31
 8004164:	d435      	bmi.n	80041d2 <_printf_float+0x3aa>
 8004166:	9c13      	ldr	r4, [sp, #76]	@ 0x4c
 8004168:	9b0c      	ldr	r3, [sp, #48]	@ 0x30
 800416a:	9a0c      	ldr	r2, [sp, #48]	@ 0x30
 800416c:	1b9b      	subs	r3, r3, r6
 800416e:	1b14      	subs	r4, r2, r4
 8004170:	429c      	cmp	r4, r3
 8004172:	dd00      	ble.n	8004176 <_printf_float+0x34e>
 8004174:	001c      	movs	r4, r3
 8004176:	2c00      	cmp	r4, #0
 8004178:	dc34      	bgt.n	80041e4 <_printf_float+0x3bc>
 800417a:	43e3      	mvns	r3, r4
 800417c:	2600      	movs	r6, #0
 800417e:	17db      	asrs	r3, r3, #31
 8004180:	401c      	ands	r4, r3
 8004182:	9b13      	ldr	r3, [sp, #76]	@ 0x4c
 8004184:	9a0c      	ldr	r2, [sp, #48]	@ 0x30
 8004186:	1ad3      	subs	r3, r2, r3
 8004188:	1b1b      	subs	r3, r3, r4
 800418a:	42b3      	cmp	r3, r6
 800418c:	dc00      	bgt.n	8004190 <_printf_float+0x368>
 800418e:	e77c      	b.n	800408a <_printf_float+0x262>
 8004190:	002a      	movs	r2, r5
 8004192:	2301      	movs	r3, #1
 8004194:	990a      	ldr	r1, [sp, #40]	@ 0x28
 8004196:	9809      	ldr	r0, [sp, #36]	@ 0x24
 8004198:	9f0b      	ldr	r7, [sp, #44]	@ 0x2c
 800419a:	321a      	adds	r2, #26
 800419c:	47b8      	blx	r7
 800419e:	3001      	adds	r0, #1
 80041a0:	d100      	bne.n	80041a4 <_printf_float+0x37c>
 80041a2:	e69d      	b.n	8003ee0 <_printf_float+0xb8>
 80041a4:	3601      	adds	r6, #1
 80041a6:	e7ec      	b.n	8004182 <_printf_float+0x35a>
 80041a8:	0033      	movs	r3, r6
 80041aa:	003a      	movs	r2, r7
 80041ac:	990a      	ldr	r1, [sp, #40]	@ 0x28
 80041ae:	9809      	ldr	r0, [sp, #36]	@ 0x24
 80041b0:	9c0b      	ldr	r4, [sp, #44]	@ 0x2c
 80041b2:	47a0      	blx	r4
 80041b4:	3001      	adds	r0, #1
 80041b6:	d1c5      	bne.n	8004144 <_printf_float+0x31c>
 80041b8:	e692      	b.n	8003ee0 <_printf_float+0xb8>
 80041ba:	002a      	movs	r2, r5
 80041bc:	2301      	movs	r3, #1
 80041be:	990a      	ldr	r1, [sp, #40]	@ 0x28
 80041c0:	9809      	ldr	r0, [sp, #36]	@ 0x24
 80041c2:	9e0b      	ldr	r6, [sp, #44]	@ 0x2c
 80041c4:	321a      	adds	r2, #26
 80041c6:	47b0      	blx	r6
 80041c8:	3001      	adds	r0, #1
 80041ca:	d100      	bne.n	80041ce <_printf_float+0x3a6>
 80041cc:	e688      	b.n	8003ee0 <_printf_float+0xb8>
 80041ce:	3401      	adds	r4, #1
 80041d0:	e7bd      	b.n	800414e <_printf_float+0x326>
 80041d2:	9b0f      	ldr	r3, [sp, #60]	@ 0x3c
 80041d4:	9a0d      	ldr	r2, [sp, #52]	@ 0x34
 80041d6:	990a      	ldr	r1, [sp, #40]	@ 0x28
 80041d8:	9809      	ldr	r0, [sp, #36]	@ 0x24
 80041da:	9c0b      	ldr	r4, [sp, #44]	@ 0x2c
 80041dc:	47a0      	blx	r4
 80041de:	3001      	adds	r0, #1
 80041e0:	d1c1      	bne.n	8004166 <_printf_float+0x33e>
 80041e2:	e67d      	b.n	8003ee0 <_printf_float+0xb8>
 80041e4:	19ba      	adds	r2, r7, r6
 80041e6:	0023      	movs	r3, r4
 80041e8:	990a      	ldr	r1, [sp, #40]	@ 0x28
 80041ea:	9809      	ldr	r0, [sp, #36]	@ 0x24
 80041ec:	9e0b      	ldr	r6, [sp, #44]	@ 0x2c
 80041ee:	47b0      	blx	r6
 80041f0:	3001      	adds	r0, #1
 80041f2:	d1c2      	bne.n	800417a <_printf_float+0x352>
 80041f4:	e674      	b.n	8003ee0 <_printf_float+0xb8>
 80041f6:	9b14      	ldr	r3, [sp, #80]	@ 0x50
 80041f8:	930c      	str	r3, [sp, #48]	@ 0x30
 80041fa:	2b01      	cmp	r3, #1
 80041fc:	dc02      	bgt.n	8004204 <_printf_float+0x3dc>
 80041fe:	2301      	movs	r3, #1
 8004200:	421a      	tst	r2, r3
 8004202:	d039      	beq.n	8004278 <_printf_float+0x450>
 8004204:	2301      	movs	r3, #1
 8004206:	003a      	movs	r2, r7
 8004208:	990a      	ldr	r1, [sp, #40]	@ 0x28
 800420a:	9809      	ldr	r0, [sp, #36]	@ 0x24
 800420c:	9e0b      	ldr	r6, [sp, #44]	@ 0x2c
 800420e:	47b0      	blx	r6
 8004210:	3001      	adds	r0, #1
 8004212:	d100      	bne.n	8004216 <_printf_float+0x3ee>
 8004214:	e664      	b.n	8003ee0 <_printf_float+0xb8>
 8004216:	9b0f      	ldr	r3, [sp, #60]	@ 0x3c
 8004218:	9a0d      	ldr	r2, [sp, #52]	@ 0x34
 800421a:	990a      	ldr	r1, [sp, #40]	@ 0x28
 800421c:	9809      	ldr	r0, [sp, #36]	@ 0x24
 800421e:	9e0b      	ldr	r6, [sp, #44]	@ 0x2c
 8004220:	47b0      	blx	r6
 8004222:	3001      	adds	r0, #1
 8004224:	d100      	bne.n	8004228 <_printf_float+0x400>
 8004226:	e65b      	b.n	8003ee0 <_printf_float+0xb8>
 8004228:	6ca8      	ldr	r0, [r5, #72]	@ 0x48
 800422a:	6ce9      	ldr	r1, [r5, #76]	@ 0x4c
 800422c:	9b0c      	ldr	r3, [sp, #48]	@ 0x30
 800422e:	2200      	movs	r2, #0
 8004230:	3b01      	subs	r3, #1
 8004232:	930c      	str	r3, [sp, #48]	@ 0x30
 8004234:	2300      	movs	r3, #0
 8004236:	f7fc f907 	bl	8000448 <__aeabi_dcmpeq>
 800423a:	2800      	cmp	r0, #0
 800423c:	d11a      	bne.n	8004274 <_printf_float+0x44c>
 800423e:	9b0c      	ldr	r3, [sp, #48]	@ 0x30
 8004240:	1c7a      	adds	r2, r7, #1
 8004242:	990a      	ldr	r1, [sp, #40]	@ 0x28
 8004244:	9809      	ldr	r0, [sp, #36]	@ 0x24
 8004246:	9e0b      	ldr	r6, [sp, #44]	@ 0x2c
 8004248:	47b0      	blx	r6
 800424a:	3001      	adds	r0, #1
 800424c:	d10e      	bne.n	800426c <_printf_float+0x444>
 800424e:	e647      	b.n	8003ee0 <_printf_float+0xb8>
 8004250:	002a      	movs	r2, r5
 8004252:	2301      	movs	r3, #1
 8004254:	990a      	ldr	r1, [sp, #40]	@ 0x28
 8004256:	9809      	ldr	r0, [sp, #36]	@ 0x24
 8004258:	9f0b      	ldr	r7, [sp, #44]	@ 0x2c
 800425a:	321a      	adds	r2, #26
 800425c:	47b8      	blx	r7
 800425e:	3001      	adds	r0, #1
 8004260:	d100      	bne.n	8004264 <_printf_float+0x43c>
 8004262:	e63d      	b.n	8003ee0 <_printf_float+0xb8>
 8004264:	3601      	adds	r6, #1
 8004266:	9b0c      	ldr	r3, [sp, #48]	@ 0x30
 8004268:	429e      	cmp	r6, r3
 800426a:	dbf1      	blt.n	8004250 <_printf_float+0x428>
 800426c:	002a      	movs	r2, r5
 800426e:	0023      	movs	r3, r4
 8004270:	3250      	adds	r2, #80	@ 0x50
 8004272:	e6da      	b.n	800402a <_printf_float+0x202>
 8004274:	2600      	movs	r6, #0
 8004276:	e7f6      	b.n	8004266 <_printf_float+0x43e>
 8004278:	003a      	movs	r2, r7
 800427a:	e7e2      	b.n	8004242 <_printf_float+0x41a>
 800427c:	002a      	movs	r2, r5
 800427e:	2301      	movs	r3, #1
 8004280:	990a      	ldr	r1, [sp, #40]	@ 0x28
 8004282:	9809      	ldr	r0, [sp, #36]	@ 0x24
 8004284:	9e0b      	ldr	r6, [sp, #44]	@ 0x2c
 8004286:	3219      	adds	r2, #25
 8004288:	47b0      	blx	r6
 800428a:	3001      	adds	r0, #1
 800428c:	d100      	bne.n	8004290 <_printf_float+0x468>
 800428e:	e627      	b.n	8003ee0 <_printf_float+0xb8>
 8004290:	3401      	adds	r4, #1
 8004292:	68eb      	ldr	r3, [r5, #12]
 8004294:	9a15      	ldr	r2, [sp, #84]	@ 0x54
 8004296:	1a9b      	subs	r3, r3, r2
 8004298:	42a3      	cmp	r3, r4
 800429a:	dcef      	bgt.n	800427c <_printf_float+0x454>
 800429c:	e6f9      	b.n	8004092 <_printf_float+0x26a>
 800429e:	2400      	movs	r4, #0
 80042a0:	e7f7      	b.n	8004292 <_printf_float+0x46a>
 80042a2:	46c0      	nop			@ (mov r8, r8)

080042a4 <_printf_common>:
 80042a4:	b5f7      	push	{r0, r1, r2, r4, r5, r6, r7, lr}
 80042a6:	0016      	movs	r6, r2
 80042a8:	9301      	str	r3, [sp, #4]
 80042aa:	688a      	ldr	r2, [r1, #8]
 80042ac:	690b      	ldr	r3, [r1, #16]
 80042ae:	000c      	movs	r4, r1
 80042b0:	9000      	str	r0, [sp, #0]
 80042b2:	4293      	cmp	r3, r2
 80042b4:	da00      	bge.n	80042b8 <_printf_common+0x14>
 80042b6:	0013      	movs	r3, r2
 80042b8:	0022      	movs	r2, r4
 80042ba:	6033      	str	r3, [r6, #0]
 80042bc:	3243      	adds	r2, #67	@ 0x43
 80042be:	7812      	ldrb	r2, [r2, #0]
 80042c0:	2a00      	cmp	r2, #0
 80042c2:	d001      	beq.n	80042c8 <_printf_common+0x24>
 80042c4:	3301      	adds	r3, #1
 80042c6:	6033      	str	r3, [r6, #0]
 80042c8:	6823      	ldr	r3, [r4, #0]
 80042ca:	069b      	lsls	r3, r3, #26
 80042cc:	d502      	bpl.n	80042d4 <_printf_common+0x30>
 80042ce:	6833      	ldr	r3, [r6, #0]
 80042d0:	3302      	adds	r3, #2
 80042d2:	6033      	str	r3, [r6, #0]
 80042d4:	6822      	ldr	r2, [r4, #0]
 80042d6:	2306      	movs	r3, #6
 80042d8:	0015      	movs	r5, r2
 80042da:	401d      	ands	r5, r3
 80042dc:	421a      	tst	r2, r3
 80042de:	d027      	beq.n	8004330 <_printf_common+0x8c>
 80042e0:	0023      	movs	r3, r4
 80042e2:	3343      	adds	r3, #67	@ 0x43
 80042e4:	781b      	ldrb	r3, [r3, #0]
 80042e6:	1e5a      	subs	r2, r3, #1
 80042e8:	4193      	sbcs	r3, r2
 80042ea:	6822      	ldr	r2, [r4, #0]
 80042ec:	0692      	lsls	r2, r2, #26
 80042ee:	d430      	bmi.n	8004352 <_printf_common+0xae>
 80042f0:	0022      	movs	r2, r4
 80042f2:	9901      	ldr	r1, [sp, #4]
 80042f4:	9800      	ldr	r0, [sp, #0]
 80042f6:	9d08      	ldr	r5, [sp, #32]
 80042f8:	3243      	adds	r2, #67	@ 0x43
 80042fa:	47a8      	blx	r5
 80042fc:	3001      	adds	r0, #1
 80042fe:	d025      	beq.n	800434c <_printf_common+0xa8>
 8004300:	2206      	movs	r2, #6
 8004302:	6823      	ldr	r3, [r4, #0]
 8004304:	2500      	movs	r5, #0
 8004306:	4013      	ands	r3, r2
 8004308:	2b04      	cmp	r3, #4
 800430a:	d105      	bne.n	8004318 <_printf_common+0x74>
 800430c:	6833      	ldr	r3, [r6, #0]
 800430e:	68e5      	ldr	r5, [r4, #12]
 8004310:	1aed      	subs	r5, r5, r3
 8004312:	43eb      	mvns	r3, r5
 8004314:	17db      	asrs	r3, r3, #31
 8004316:	401d      	ands	r5, r3
 8004318:	68a3      	ldr	r3, [r4, #8]
 800431a:	6922      	ldr	r2, [r4, #16]
 800431c:	4293      	cmp	r3, r2
 800431e:	dd01      	ble.n	8004324 <_printf_common+0x80>
 8004320:	1a9b      	subs	r3, r3, r2
 8004322:	18ed      	adds	r5, r5, r3
 8004324:	2600      	movs	r6, #0
 8004326:	42b5      	cmp	r5, r6
 8004328:	d120      	bne.n	800436c <_printf_common+0xc8>
 800432a:	2000      	movs	r0, #0
 800432c:	e010      	b.n	8004350 <_printf_common+0xac>
 800432e:	3501      	adds	r5, #1
 8004330:	68e3      	ldr	r3, [r4, #12]
 8004332:	6832      	ldr	r2, [r6, #0]
 8004334:	1a9b      	subs	r3, r3, r2
 8004336:	42ab      	cmp	r3, r5
 8004338:	ddd2      	ble.n	80042e0 <_printf_common+0x3c>
 800433a:	0022      	movs	r2, r4
 800433c:	2301      	movs	r3, #1
 800433e:	9901      	ldr	r1, [sp, #4]
 8004340:	9800      	ldr	r0, [sp, #0]
 8004342:	9f08      	ldr	r7, [sp, #32]
 8004344:	3219      	adds	r2, #25
 8004346:	47b8      	blx	r7
 8004348:	3001      	adds	r0, #1
 800434a:	d1f0      	bne.n	800432e <_printf_common+0x8a>
 800434c:	2001      	movs	r0, #1
 800434e:	4240      	negs	r0, r0
 8004350:	bdfe      	pop	{r1, r2, r3, r4, r5, r6, r7, pc}
 8004352:	2030      	movs	r0, #48	@ 0x30
 8004354:	18e1      	adds	r1, r4, r3
 8004356:	3143      	adds	r1, #67	@ 0x43
 8004358:	7008      	strb	r0, [r1, #0]
 800435a:	0021      	movs	r1, r4
 800435c:	1c5a      	adds	r2, r3, #1
 800435e:	3145      	adds	r1, #69	@ 0x45
 8004360:	7809      	ldrb	r1, [r1, #0]
 8004362:	18a2      	adds	r2, r4, r2
 8004364:	3243      	adds	r2, #67	@ 0x43
 8004366:	3302      	adds	r3, #2
 8004368:	7011      	strb	r1, [r2, #0]
 800436a:	e7c1      	b.n	80042f0 <_printf_common+0x4c>
 800436c:	0022      	movs	r2, r4
 800436e:	2301      	movs	r3, #1
 8004370:	9901      	ldr	r1, [sp, #4]
 8004372:	9800      	ldr	r0, [sp, #0]
 8004374:	9f08      	ldr	r7, [sp, #32]
 8004376:	321a      	adds	r2, #26
 8004378:	47b8      	blx	r7
 800437a:	3001      	adds	r0, #1
 800437c:	d0e6      	beq.n	800434c <_printf_common+0xa8>
 800437e:	3601      	adds	r6, #1
 8004380:	e7d1      	b.n	8004326 <_printf_common+0x82>
	...

08004384 <_printf_i>:
 8004384:	b5f0      	push	{r4, r5, r6, r7, lr}
 8004386:	b08b      	sub	sp, #44	@ 0x2c
 8004388:	9206      	str	r2, [sp, #24]
 800438a:	000a      	movs	r2, r1
 800438c:	3243      	adds	r2, #67	@ 0x43
 800438e:	9307      	str	r3, [sp, #28]
 8004390:	9005      	str	r0, [sp, #20]
 8004392:	9203      	str	r2, [sp, #12]
 8004394:	7e0a      	ldrb	r2, [r1, #24]
 8004396:	000c      	movs	r4, r1
 8004398:	9b10      	ldr	r3, [sp, #64]	@ 0x40
 800439a:	2a78      	cmp	r2, #120	@ 0x78
 800439c:	d809      	bhi.n	80043b2 <_printf_i+0x2e>
 800439e:	2a62      	cmp	r2, #98	@ 0x62
 80043a0:	d80b      	bhi.n	80043ba <_printf_i+0x36>
 80043a2:	2a00      	cmp	r2, #0
 80043a4:	d100      	bne.n	80043a8 <_printf_i+0x24>
 80043a6:	e0bc      	b.n	8004522 <_printf_i+0x19e>
 80043a8:	497b      	ldr	r1, [pc, #492]	@ (8004598 <_printf_i+0x214>)
 80043aa:	9104      	str	r1, [sp, #16]
 80043ac:	2a58      	cmp	r2, #88	@ 0x58
 80043ae:	d100      	bne.n	80043b2 <_printf_i+0x2e>
 80043b0:	e090      	b.n	80044d4 <_printf_i+0x150>
 80043b2:	0025      	movs	r5, r4
 80043b4:	3542      	adds	r5, #66	@ 0x42
 80043b6:	702a      	strb	r2, [r5, #0]
 80043b8:	e022      	b.n	8004400 <_printf_i+0x7c>
 80043ba:	0010      	movs	r0, r2
 80043bc:	3863      	subs	r0, #99	@ 0x63
 80043be:	2815      	cmp	r0, #21
 80043c0:	d8f7      	bhi.n	80043b2 <_printf_i+0x2e>
 80043c2:	f7fb feb1 	bl	8000128 <__gnu_thumb1_case_shi>
 80043c6:	0016      	.short	0x0016
 80043c8:	fff6001f 	.word	0xfff6001f
 80043cc:	fff6fff6 	.word	0xfff6fff6
 80043d0:	001ffff6 	.word	0x001ffff6
 80043d4:	fff6fff6 	.word	0xfff6fff6
 80043d8:	fff6fff6 	.word	0xfff6fff6
 80043dc:	003600a1 	.word	0x003600a1
 80043e0:	fff60080 	.word	0xfff60080
 80043e4:	00b2fff6 	.word	0x00b2fff6
 80043e8:	0036fff6 	.word	0x0036fff6
 80043ec:	fff6fff6 	.word	0xfff6fff6
 80043f0:	0084      	.short	0x0084
 80043f2:	0025      	movs	r5, r4
 80043f4:	681a      	ldr	r2, [r3, #0]
 80043f6:	3542      	adds	r5, #66	@ 0x42
 80043f8:	1d11      	adds	r1, r2, #4
 80043fa:	6019      	str	r1, [r3, #0]
 80043fc:	6813      	ldr	r3, [r2, #0]
 80043fe:	702b      	strb	r3, [r5, #0]
 8004400:	2301      	movs	r3, #1
 8004402:	e0a0      	b.n	8004546 <_printf_i+0x1c2>
 8004404:	6818      	ldr	r0, [r3, #0]
 8004406:	6809      	ldr	r1, [r1, #0]
 8004408:	1d02      	adds	r2, r0, #4
 800440a:	060d      	lsls	r5, r1, #24
 800440c:	d50b      	bpl.n	8004426 <_printf_i+0xa2>
 800440e:	6806      	ldr	r6, [r0, #0]
 8004410:	601a      	str	r2, [r3, #0]
 8004412:	2e00      	cmp	r6, #0
 8004414:	da03      	bge.n	800441e <_printf_i+0x9a>
 8004416:	232d      	movs	r3, #45	@ 0x2d
 8004418:	9a03      	ldr	r2, [sp, #12]
 800441a:	4276      	negs	r6, r6
 800441c:	7013      	strb	r3, [r2, #0]
 800441e:	4b5e      	ldr	r3, [pc, #376]	@ (8004598 <_printf_i+0x214>)
 8004420:	270a      	movs	r7, #10
 8004422:	9304      	str	r3, [sp, #16]
 8004424:	e018      	b.n	8004458 <_printf_i+0xd4>
 8004426:	6806      	ldr	r6, [r0, #0]
 8004428:	601a      	str	r2, [r3, #0]
 800442a:	0649      	lsls	r1, r1, #25
 800442c:	d5f1      	bpl.n	8004412 <_printf_i+0x8e>
 800442e:	b236      	sxth	r6, r6
 8004430:	e7ef      	b.n	8004412 <_printf_i+0x8e>
 8004432:	6808      	ldr	r0, [r1, #0]
 8004434:	6819      	ldr	r1, [r3, #0]
 8004436:	c940      	ldmia	r1!, {r6}
 8004438:	0605      	lsls	r5, r0, #24
 800443a:	d402      	bmi.n	8004442 <_printf_i+0xbe>
 800443c:	0640      	lsls	r0, r0, #25
 800443e:	d500      	bpl.n	8004442 <_printf_i+0xbe>
 8004440:	b2b6      	uxth	r6, r6
 8004442:	6019      	str	r1, [r3, #0]
 8004444:	4b54      	ldr	r3, [pc, #336]	@ (8004598 <_printf_i+0x214>)
 8004446:	270a      	movs	r7, #10
 8004448:	9304      	str	r3, [sp, #16]
 800444a:	2a6f      	cmp	r2, #111	@ 0x6f
 800444c:	d100      	bne.n	8004450 <_printf_i+0xcc>
 800444e:	3f02      	subs	r7, #2
 8004450:	0023      	movs	r3, r4
 8004452:	2200      	movs	r2, #0
 8004454:	3343      	adds	r3, #67	@ 0x43
 8004456:	701a      	strb	r2, [r3, #0]
 8004458:	6863      	ldr	r3, [r4, #4]
 800445a:	60a3      	str	r3, [r4, #8]
 800445c:	2b00      	cmp	r3, #0
 800445e:	db03      	blt.n	8004468 <_printf_i+0xe4>
 8004460:	2104      	movs	r1, #4
 8004462:	6822      	ldr	r2, [r4, #0]
 8004464:	438a      	bics	r2, r1
 8004466:	6022      	str	r2, [r4, #0]
 8004468:	2e00      	cmp	r6, #0
 800446a:	d102      	bne.n	8004472 <_printf_i+0xee>
 800446c:	9d03      	ldr	r5, [sp, #12]
 800446e:	2b00      	cmp	r3, #0
 8004470:	d00c      	beq.n	800448c <_printf_i+0x108>
 8004472:	9d03      	ldr	r5, [sp, #12]
 8004474:	0030      	movs	r0, r6
 8004476:	0039      	movs	r1, r7
 8004478:	f7fb fee6 	bl	8000248 <__aeabi_uidivmod>
 800447c:	9b04      	ldr	r3, [sp, #16]
 800447e:	3d01      	subs	r5, #1
 8004480:	5c5b      	ldrb	r3, [r3, r1]
 8004482:	702b      	strb	r3, [r5, #0]
 8004484:	0033      	movs	r3, r6
 8004486:	0006      	movs	r6, r0
 8004488:	429f      	cmp	r7, r3
 800448a:	d9f3      	bls.n	8004474 <_printf_i+0xf0>
 800448c:	2f08      	cmp	r7, #8
 800448e:	d109      	bne.n	80044a4 <_printf_i+0x120>
 8004490:	6823      	ldr	r3, [r4, #0]
 8004492:	07db      	lsls	r3, r3, #31
 8004494:	d506      	bpl.n	80044a4 <_printf_i+0x120>
 8004496:	6862      	ldr	r2, [r4, #4]
 8004498:	6923      	ldr	r3, [r4, #16]
 800449a:	429a      	cmp	r2, r3
 800449c:	dc02      	bgt.n	80044a4 <_printf_i+0x120>
 800449e:	2330      	movs	r3, #48	@ 0x30
 80044a0:	3d01      	subs	r5, #1
 80044a2:	702b      	strb	r3, [r5, #0]
 80044a4:	9b03      	ldr	r3, [sp, #12]
 80044a6:	1b5b      	subs	r3, r3, r5
 80044a8:	6123      	str	r3, [r4, #16]
 80044aa:	9b07      	ldr	r3, [sp, #28]
 80044ac:	0021      	movs	r1, r4
 80044ae:	9300      	str	r3, [sp, #0]
 80044b0:	9805      	ldr	r0, [sp, #20]
 80044b2:	9b06      	ldr	r3, [sp, #24]
 80044b4:	aa09      	add	r2, sp, #36	@ 0x24
 80044b6:	f7ff fef5 	bl	80042a4 <_printf_common>
 80044ba:	3001      	adds	r0, #1
 80044bc:	d148      	bne.n	8004550 <_printf_i+0x1cc>
 80044be:	2001      	movs	r0, #1
 80044c0:	4240      	negs	r0, r0
 80044c2:	b00b      	add	sp, #44	@ 0x2c
 80044c4:	bdf0      	pop	{r4, r5, r6, r7, pc}
 80044c6:	2220      	movs	r2, #32
 80044c8:	6809      	ldr	r1, [r1, #0]
 80044ca:	430a      	orrs	r2, r1
 80044cc:	6022      	str	r2, [r4, #0]
 80044ce:	2278      	movs	r2, #120	@ 0x78
 80044d0:	4932      	ldr	r1, [pc, #200]	@ (800459c <_printf_i+0x218>)
 80044d2:	9104      	str	r1, [sp, #16]
 80044d4:	0021      	movs	r1, r4
 80044d6:	3145      	adds	r1, #69	@ 0x45
 80044d8:	700a      	strb	r2, [r1, #0]
 80044da:	6819      	ldr	r1, [r3, #0]
 80044dc:	6822      	ldr	r2, [r4, #0]
 80044de:	c940      	ldmia	r1!, {r6}
 80044e0:	0610      	lsls	r0, r2, #24
 80044e2:	d402      	bmi.n	80044ea <_printf_i+0x166>
 80044e4:	0650      	lsls	r0, r2, #25
 80044e6:	d500      	bpl.n	80044ea <_printf_i+0x166>
 80044e8:	b2b6      	uxth	r6, r6
 80044ea:	6019      	str	r1, [r3, #0]
 80044ec:	07d3      	lsls	r3, r2, #31
 80044ee:	d502      	bpl.n	80044f6 <_printf_i+0x172>
 80044f0:	2320      	movs	r3, #32
 80044f2:	4313      	orrs	r3, r2
 80044f4:	6023      	str	r3, [r4, #0]
 80044f6:	2e00      	cmp	r6, #0
 80044f8:	d001      	beq.n	80044fe <_printf_i+0x17a>
 80044fa:	2710      	movs	r7, #16
 80044fc:	e7a8      	b.n	8004450 <_printf_i+0xcc>
 80044fe:	2220      	movs	r2, #32
 8004500:	6823      	ldr	r3, [r4, #0]
 8004502:	4393      	bics	r3, r2
 8004504:	6023      	str	r3, [r4, #0]
 8004506:	e7f8      	b.n	80044fa <_printf_i+0x176>
 8004508:	681a      	ldr	r2, [r3, #0]
 800450a:	680d      	ldr	r5, [r1, #0]
 800450c:	1d10      	adds	r0, r2, #4
 800450e:	6949      	ldr	r1, [r1, #20]
 8004510:	6018      	str	r0, [r3, #0]
 8004512:	6813      	ldr	r3, [r2, #0]
 8004514:	062e      	lsls	r6, r5, #24
 8004516:	d501      	bpl.n	800451c <_printf_i+0x198>
 8004518:	6019      	str	r1, [r3, #0]
 800451a:	e002      	b.n	8004522 <_printf_i+0x19e>
 800451c:	066d      	lsls	r5, r5, #25
 800451e:	d5fb      	bpl.n	8004518 <_printf_i+0x194>
 8004520:	8019      	strh	r1, [r3, #0]
 8004522:	2300      	movs	r3, #0
 8004524:	9d03      	ldr	r5, [sp, #12]
 8004526:	6123      	str	r3, [r4, #16]
 8004528:	e7bf      	b.n	80044aa <_printf_i+0x126>
 800452a:	681a      	ldr	r2, [r3, #0]
 800452c:	1d11      	adds	r1, r2, #4
 800452e:	6019      	str	r1, [r3, #0]
 8004530:	6815      	ldr	r5, [r2, #0]
 8004532:	2100      	movs	r1, #0
 8004534:	0028      	movs	r0, r5
 8004536:	6862      	ldr	r2, [r4, #4]
 8004538:	f000 fbf7 	bl	8004d2a <memchr>
 800453c:	2800      	cmp	r0, #0
 800453e:	d001      	beq.n	8004544 <_printf_i+0x1c0>
 8004540:	1b40      	subs	r0, r0, r5
 8004542:	6060      	str	r0, [r4, #4]
 8004544:	6863      	ldr	r3, [r4, #4]
 8004546:	6123      	str	r3, [r4, #16]
 8004548:	2300      	movs	r3, #0
 800454a:	9a03      	ldr	r2, [sp, #12]
 800454c:	7013      	strb	r3, [r2, #0]
 800454e:	e7ac      	b.n	80044aa <_printf_i+0x126>
 8004550:	002a      	movs	r2, r5
 8004552:	6923      	ldr	r3, [r4, #16]
 8004554:	9906      	ldr	r1, [sp, #24]
 8004556:	9805      	ldr	r0, [sp, #20]
 8004558:	9d07      	ldr	r5, [sp, #28]
 800455a:	47a8      	blx	r5
 800455c:	3001      	adds	r0, #1
 800455e:	d0ae      	beq.n	80044be <_printf_i+0x13a>
 8004560:	6823      	ldr	r3, [r4, #0]
 8004562:	079b      	lsls	r3, r3, #30
 8004564:	d415      	bmi.n	8004592 <_printf_i+0x20e>
 8004566:	9b09      	ldr	r3, [sp, #36]	@ 0x24
 8004568:	68e0      	ldr	r0, [r4, #12]
 800456a:	4298      	cmp	r0, r3
 800456c:	daa9      	bge.n	80044c2 <_printf_i+0x13e>
 800456e:	0018      	movs	r0, r3
 8004570:	e7a7      	b.n	80044c2 <_printf_i+0x13e>
 8004572:	0022      	movs	r2, r4
 8004574:	2301      	movs	r3, #1
 8004576:	9906      	ldr	r1, [sp, #24]
 8004578:	9805      	ldr	r0, [sp, #20]
 800457a:	9e07      	ldr	r6, [sp, #28]
 800457c:	3219      	adds	r2, #25
 800457e:	47b0      	blx	r6
 8004580:	3001      	adds	r0, #1
 8004582:	d09c      	beq.n	80044be <_printf_i+0x13a>
 8004584:	3501      	adds	r5, #1
 8004586:	68e3      	ldr	r3, [r4, #12]
 8004588:	9a09      	ldr	r2, [sp, #36]	@ 0x24
 800458a:	1a9b      	subs	r3, r3, r2
 800458c:	42ab      	cmp	r3, r5
 800458e:	dcf0      	bgt.n	8004572 <_printf_i+0x1ee>
 8004590:	e7e9      	b.n	8004566 <_printf_i+0x1e2>
 8004592:	2500      	movs	r5, #0
 8004594:	e7f7      	b.n	8004586 <_printf_i+0x202>
 8004596:	46c0      	nop			@ (mov r8, r8)
 8004598:	08008626 	.word	0x08008626
 800459c:	08008637 	.word	0x08008637

080045a0 <_scanf_float>:
 80045a0:	b5f0      	push	{r4, r5, r6, r7, lr}
 80045a2:	b08b      	sub	sp, #44	@ 0x2c
 80045a4:	0016      	movs	r6, r2
 80045a6:	9003      	str	r0, [sp, #12]
 80045a8:	22ae      	movs	r2, #174	@ 0xae
 80045aa:	2000      	movs	r0, #0
 80045ac:	9307      	str	r3, [sp, #28]
 80045ae:	688b      	ldr	r3, [r1, #8]
 80045b0:	000c      	movs	r4, r1
 80045b2:	1e59      	subs	r1, r3, #1
 80045b4:	0052      	lsls	r2, r2, #1
 80045b6:	9006      	str	r0, [sp, #24]
 80045b8:	4291      	cmp	r1, r2
 80045ba:	d905      	bls.n	80045c8 <_scanf_float+0x28>
 80045bc:	3b5e      	subs	r3, #94	@ 0x5e
 80045be:	3bff      	subs	r3, #255	@ 0xff
 80045c0:	9306      	str	r3, [sp, #24]
 80045c2:	235e      	movs	r3, #94	@ 0x5e
 80045c4:	33ff      	adds	r3, #255	@ 0xff
 80045c6:	60a3      	str	r3, [r4, #8]
 80045c8:	23f0      	movs	r3, #240	@ 0xf0
 80045ca:	6822      	ldr	r2, [r4, #0]
 80045cc:	00db      	lsls	r3, r3, #3
 80045ce:	4313      	orrs	r3, r2
 80045d0:	6023      	str	r3, [r4, #0]
 80045d2:	0023      	movs	r3, r4
 80045d4:	2500      	movs	r5, #0
 80045d6:	331c      	adds	r3, #28
 80045d8:	001f      	movs	r7, r3
 80045da:	9304      	str	r3, [sp, #16]
 80045dc:	9502      	str	r5, [sp, #8]
 80045de:	9509      	str	r5, [sp, #36]	@ 0x24
 80045e0:	9508      	str	r5, [sp, #32]
 80045e2:	9501      	str	r5, [sp, #4]
 80045e4:	9505      	str	r5, [sp, #20]
 80045e6:	68a2      	ldr	r2, [r4, #8]
 80045e8:	2a00      	cmp	r2, #0
 80045ea:	d00a      	beq.n	8004602 <_scanf_float+0x62>
 80045ec:	6833      	ldr	r3, [r6, #0]
 80045ee:	781b      	ldrb	r3, [r3, #0]
 80045f0:	2b4e      	cmp	r3, #78	@ 0x4e
 80045f2:	d844      	bhi.n	800467e <_scanf_float+0xde>
 80045f4:	0018      	movs	r0, r3
 80045f6:	2b40      	cmp	r3, #64	@ 0x40
 80045f8:	d82c      	bhi.n	8004654 <_scanf_float+0xb4>
 80045fa:	382b      	subs	r0, #43	@ 0x2b
 80045fc:	b2c1      	uxtb	r1, r0
 80045fe:	290e      	cmp	r1, #14
 8004600:	d92a      	bls.n	8004658 <_scanf_float+0xb8>
 8004602:	9b01      	ldr	r3, [sp, #4]
 8004604:	2b00      	cmp	r3, #0
 8004606:	d003      	beq.n	8004610 <_scanf_float+0x70>
 8004608:	6823      	ldr	r3, [r4, #0]
 800460a:	4aa6      	ldr	r2, [pc, #664]	@ (80048a4 <_scanf_float+0x304>)
 800460c:	4013      	ands	r3, r2
 800460e:	6023      	str	r3, [r4, #0]
 8004610:	9b02      	ldr	r3, [sp, #8]
 8004612:	3b01      	subs	r3, #1
 8004614:	2b01      	cmp	r3, #1
 8004616:	d900      	bls.n	800461a <_scanf_float+0x7a>
 8004618:	e0fe      	b.n	8004818 <_scanf_float+0x278>
 800461a:	25be      	movs	r5, #190	@ 0xbe
 800461c:	006d      	lsls	r5, r5, #1
 800461e:	9b04      	ldr	r3, [sp, #16]
 8004620:	429f      	cmp	r7, r3
 8004622:	d900      	bls.n	8004626 <_scanf_float+0x86>
 8004624:	e0ee      	b.n	8004804 <_scanf_float+0x264>
 8004626:	2001      	movs	r0, #1
 8004628:	b00b      	add	sp, #44	@ 0x2c
 800462a:	bdf0      	pop	{r4, r5, r6, r7, pc}
 800462c:	0018      	movs	r0, r3
 800462e:	3861      	subs	r0, #97	@ 0x61
 8004630:	280d      	cmp	r0, #13
 8004632:	d8e6      	bhi.n	8004602 <_scanf_float+0x62>
 8004634:	f7fb fd78 	bl	8000128 <__gnu_thumb1_case_shi>
 8004638:	ffe50089 	.word	0xffe50089
 800463c:	ffe5ffe5 	.word	0xffe5ffe5
 8004640:	00a700bb 	.word	0x00a700bb
 8004644:	ffe5ffe5 	.word	0xffe5ffe5
 8004648:	ffe5008f 	.word	0xffe5008f
 800464c:	ffe5ffe5 	.word	0xffe5ffe5
 8004650:	006bffe5 	.word	0x006bffe5
 8004654:	3841      	subs	r0, #65	@ 0x41
 8004656:	e7eb      	b.n	8004630 <_scanf_float+0x90>
 8004658:	280e      	cmp	r0, #14
 800465a:	d8d2      	bhi.n	8004602 <_scanf_float+0x62>
 800465c:	f7fb fd64 	bl	8000128 <__gnu_thumb1_case_shi>
 8004660:	ffd1004f 	.word	0xffd1004f
 8004664:	009d004f 	.word	0x009d004f
 8004668:	0021ffd1 	.word	0x0021ffd1
 800466c:	00410041 	.word	0x00410041
 8004670:	00410041 	.word	0x00410041
 8004674:	00410041 	.word	0x00410041
 8004678:	00410041 	.word	0x00410041
 800467c:	0041      	.short	0x0041
 800467e:	2b6e      	cmp	r3, #110	@ 0x6e
 8004680:	d80a      	bhi.n	8004698 <_scanf_float+0xf8>
 8004682:	2b60      	cmp	r3, #96	@ 0x60
 8004684:	d8d2      	bhi.n	800462c <_scanf_float+0x8c>
 8004686:	2b54      	cmp	r3, #84	@ 0x54
 8004688:	d100      	bne.n	800468c <_scanf_float+0xec>
 800468a:	e081      	b.n	8004790 <_scanf_float+0x1f0>
 800468c:	2b59      	cmp	r3, #89	@ 0x59
 800468e:	d1b8      	bne.n	8004602 <_scanf_float+0x62>
 8004690:	2d07      	cmp	r5, #7
 8004692:	d1b6      	bne.n	8004602 <_scanf_float+0x62>
 8004694:	2508      	movs	r5, #8
 8004696:	e02f      	b.n	80046f8 <_scanf_float+0x158>
 8004698:	2b74      	cmp	r3, #116	@ 0x74
 800469a:	d079      	beq.n	8004790 <_scanf_float+0x1f0>
 800469c:	2b79      	cmp	r3, #121	@ 0x79
 800469e:	d0f7      	beq.n	8004690 <_scanf_float+0xf0>
 80046a0:	e7af      	b.n	8004602 <_scanf_float+0x62>
 80046a2:	6821      	ldr	r1, [r4, #0]
 80046a4:	05c8      	lsls	r0, r1, #23
 80046a6:	d51c      	bpl.n	80046e2 <_scanf_float+0x142>
 80046a8:	2380      	movs	r3, #128	@ 0x80
 80046aa:	4399      	bics	r1, r3
 80046ac:	9b01      	ldr	r3, [sp, #4]
 80046ae:	6021      	str	r1, [r4, #0]
 80046b0:	3301      	adds	r3, #1
 80046b2:	9301      	str	r3, [sp, #4]
 80046b4:	9b06      	ldr	r3, [sp, #24]
 80046b6:	2b00      	cmp	r3, #0
 80046b8:	d003      	beq.n	80046c2 <_scanf_float+0x122>
 80046ba:	3b01      	subs	r3, #1
 80046bc:	3201      	adds	r2, #1
 80046be:	9306      	str	r3, [sp, #24]
 80046c0:	60a2      	str	r2, [r4, #8]
 80046c2:	68a3      	ldr	r3, [r4, #8]
 80046c4:	3b01      	subs	r3, #1
 80046c6:	60a3      	str	r3, [r4, #8]
 80046c8:	6923      	ldr	r3, [r4, #16]
 80046ca:	3301      	adds	r3, #1
 80046cc:	6123      	str	r3, [r4, #16]
 80046ce:	6873      	ldr	r3, [r6, #4]
 80046d0:	3b01      	subs	r3, #1
 80046d2:	6073      	str	r3, [r6, #4]
 80046d4:	2b00      	cmp	r3, #0
 80046d6:	dc00      	bgt.n	80046da <_scanf_float+0x13a>
 80046d8:	e08a      	b.n	80047f0 <_scanf_float+0x250>
 80046da:	6833      	ldr	r3, [r6, #0]
 80046dc:	3301      	adds	r3, #1
 80046de:	6033      	str	r3, [r6, #0]
 80046e0:	e781      	b.n	80045e6 <_scanf_float+0x46>
 80046e2:	9a02      	ldr	r2, [sp, #8]
 80046e4:	1951      	adds	r1, r2, r5
 80046e6:	2900      	cmp	r1, #0
 80046e8:	d000      	beq.n	80046ec <_scanf_float+0x14c>
 80046ea:	e78a      	b.n	8004602 <_scanf_float+0x62>
 80046ec:	000d      	movs	r5, r1
 80046ee:	6822      	ldr	r2, [r4, #0]
 80046f0:	486d      	ldr	r0, [pc, #436]	@ (80048a8 <_scanf_float+0x308>)
 80046f2:	9102      	str	r1, [sp, #8]
 80046f4:	4002      	ands	r2, r0
 80046f6:	6022      	str	r2, [r4, #0]
 80046f8:	703b      	strb	r3, [r7, #0]
 80046fa:	3701      	adds	r7, #1
 80046fc:	e7e1      	b.n	80046c2 <_scanf_float+0x122>
 80046fe:	2180      	movs	r1, #128	@ 0x80
 8004700:	6822      	ldr	r2, [r4, #0]
 8004702:	420a      	tst	r2, r1
 8004704:	d100      	bne.n	8004708 <_scanf_float+0x168>
 8004706:	e77c      	b.n	8004602 <_scanf_float+0x62>
 8004708:	438a      	bics	r2, r1
 800470a:	6022      	str	r2, [r4, #0]
 800470c:	e7f4      	b.n	80046f8 <_scanf_float+0x158>
 800470e:	9a02      	ldr	r2, [sp, #8]
 8004710:	2a00      	cmp	r2, #0
 8004712:	d10f      	bne.n	8004734 <_scanf_float+0x194>
 8004714:	9a01      	ldr	r2, [sp, #4]
 8004716:	2a00      	cmp	r2, #0
 8004718:	d10f      	bne.n	800473a <_scanf_float+0x19a>
 800471a:	6822      	ldr	r2, [r4, #0]
 800471c:	21e0      	movs	r1, #224	@ 0xe0
 800471e:	0010      	movs	r0, r2
 8004720:	00c9      	lsls	r1, r1, #3
 8004722:	4008      	ands	r0, r1
 8004724:	4288      	cmp	r0, r1
 8004726:	d108      	bne.n	800473a <_scanf_float+0x19a>
 8004728:	4960      	ldr	r1, [pc, #384]	@ (80048ac <_scanf_float+0x30c>)
 800472a:	400a      	ands	r2, r1
 800472c:	6022      	str	r2, [r4, #0]
 800472e:	2201      	movs	r2, #1
 8004730:	9202      	str	r2, [sp, #8]
 8004732:	e7e1      	b.n	80046f8 <_scanf_float+0x158>
 8004734:	9a02      	ldr	r2, [sp, #8]
 8004736:	2a02      	cmp	r2, #2
 8004738:	d058      	beq.n	80047ec <_scanf_float+0x24c>
 800473a:	2d01      	cmp	r5, #1
 800473c:	d002      	beq.n	8004744 <_scanf_float+0x1a4>
 800473e:	2d04      	cmp	r5, #4
 8004740:	d000      	beq.n	8004744 <_scanf_float+0x1a4>
 8004742:	e75e      	b.n	8004602 <_scanf_float+0x62>
 8004744:	3501      	adds	r5, #1
 8004746:	b2ed      	uxtb	r5, r5
 8004748:	e7d6      	b.n	80046f8 <_scanf_float+0x158>
 800474a:	9a02      	ldr	r2, [sp, #8]
 800474c:	2a01      	cmp	r2, #1
 800474e:	d000      	beq.n	8004752 <_scanf_float+0x1b2>
 8004750:	e757      	b.n	8004602 <_scanf_float+0x62>
 8004752:	2202      	movs	r2, #2
 8004754:	e7ec      	b.n	8004730 <_scanf_float+0x190>
 8004756:	2d00      	cmp	r5, #0
 8004758:	d110      	bne.n	800477c <_scanf_float+0x1dc>
 800475a:	9a01      	ldr	r2, [sp, #4]
 800475c:	2a00      	cmp	r2, #0
 800475e:	d000      	beq.n	8004762 <_scanf_float+0x1c2>
 8004760:	e752      	b.n	8004608 <_scanf_float+0x68>
 8004762:	6822      	ldr	r2, [r4, #0]
 8004764:	21e0      	movs	r1, #224	@ 0xe0
 8004766:	0010      	movs	r0, r2
 8004768:	00c9      	lsls	r1, r1, #3
 800476a:	4008      	ands	r0, r1
 800476c:	4288      	cmp	r0, r1
 800476e:	d000      	beq.n	8004772 <_scanf_float+0x1d2>
 8004770:	e11d      	b.n	80049ae <_scanf_float+0x40e>
 8004772:	494e      	ldr	r1, [pc, #312]	@ (80048ac <_scanf_float+0x30c>)
 8004774:	3501      	adds	r5, #1
 8004776:	400a      	ands	r2, r1
 8004778:	6022      	str	r2, [r4, #0]
 800477a:	e7bd      	b.n	80046f8 <_scanf_float+0x158>
 800477c:	21fd      	movs	r1, #253	@ 0xfd
 800477e:	1eea      	subs	r2, r5, #3
 8004780:	420a      	tst	r2, r1
 8004782:	d0df      	beq.n	8004744 <_scanf_float+0x1a4>
 8004784:	e73d      	b.n	8004602 <_scanf_float+0x62>
 8004786:	2d02      	cmp	r5, #2
 8004788:	d000      	beq.n	800478c <_scanf_float+0x1ec>
 800478a:	e73a      	b.n	8004602 <_scanf_float+0x62>
 800478c:	2503      	movs	r5, #3
 800478e:	e7b3      	b.n	80046f8 <_scanf_float+0x158>
 8004790:	2d06      	cmp	r5, #6
 8004792:	d000      	beq.n	8004796 <_scanf_float+0x1f6>
 8004794:	e735      	b.n	8004602 <_scanf_float+0x62>
 8004796:	2507      	movs	r5, #7
 8004798:	e7ae      	b.n	80046f8 <_scanf_float+0x158>
 800479a:	6822      	ldr	r2, [r4, #0]
 800479c:	0591      	lsls	r1, r2, #22
 800479e:	d400      	bmi.n	80047a2 <_scanf_float+0x202>
 80047a0:	e72f      	b.n	8004602 <_scanf_float+0x62>
 80047a2:	4943      	ldr	r1, [pc, #268]	@ (80048b0 <_scanf_float+0x310>)
 80047a4:	400a      	ands	r2, r1
 80047a6:	6022      	str	r2, [r4, #0]
 80047a8:	9a01      	ldr	r2, [sp, #4]
 80047aa:	9205      	str	r2, [sp, #20]
 80047ac:	e7a4      	b.n	80046f8 <_scanf_float+0x158>
 80047ae:	21a0      	movs	r1, #160	@ 0xa0
 80047b0:	2080      	movs	r0, #128	@ 0x80
 80047b2:	6822      	ldr	r2, [r4, #0]
 80047b4:	00c9      	lsls	r1, r1, #3
 80047b6:	4011      	ands	r1, r2
 80047b8:	00c0      	lsls	r0, r0, #3
 80047ba:	4281      	cmp	r1, r0
 80047bc:	d006      	beq.n	80047cc <_scanf_float+0x22c>
 80047be:	4202      	tst	r2, r0
 80047c0:	d100      	bne.n	80047c4 <_scanf_float+0x224>
 80047c2:	e71e      	b.n	8004602 <_scanf_float+0x62>
 80047c4:	9901      	ldr	r1, [sp, #4]
 80047c6:	2900      	cmp	r1, #0
 80047c8:	d100      	bne.n	80047cc <_scanf_float+0x22c>
 80047ca:	e0f0      	b.n	80049ae <_scanf_float+0x40e>
 80047cc:	0591      	lsls	r1, r2, #22
 80047ce:	d404      	bmi.n	80047da <_scanf_float+0x23a>
 80047d0:	9901      	ldr	r1, [sp, #4]
 80047d2:	9805      	ldr	r0, [sp, #20]
 80047d4:	9709      	str	r7, [sp, #36]	@ 0x24
 80047d6:	1a09      	subs	r1, r1, r0
 80047d8:	9108      	str	r1, [sp, #32]
 80047da:	4934      	ldr	r1, [pc, #208]	@ (80048ac <_scanf_float+0x30c>)
 80047dc:	400a      	ands	r2, r1
 80047de:	21c0      	movs	r1, #192	@ 0xc0
 80047e0:	0049      	lsls	r1, r1, #1
 80047e2:	430a      	orrs	r2, r1
 80047e4:	6022      	str	r2, [r4, #0]
 80047e6:	2200      	movs	r2, #0
 80047e8:	9201      	str	r2, [sp, #4]
 80047ea:	e785      	b.n	80046f8 <_scanf_float+0x158>
 80047ec:	2203      	movs	r2, #3
 80047ee:	e79f      	b.n	8004730 <_scanf_float+0x190>
 80047f0:	23c0      	movs	r3, #192	@ 0xc0
 80047f2:	005b      	lsls	r3, r3, #1
 80047f4:	0031      	movs	r1, r6
 80047f6:	58e3      	ldr	r3, [r4, r3]
 80047f8:	9803      	ldr	r0, [sp, #12]
 80047fa:	4798      	blx	r3
 80047fc:	2800      	cmp	r0, #0
 80047fe:	d100      	bne.n	8004802 <_scanf_float+0x262>
 8004800:	e6f1      	b.n	80045e6 <_scanf_float+0x46>
 8004802:	e6fe      	b.n	8004602 <_scanf_float+0x62>
 8004804:	3f01      	subs	r7, #1
 8004806:	5963      	ldr	r3, [r4, r5]
 8004808:	0032      	movs	r2, r6
 800480a:	7839      	ldrb	r1, [r7, #0]
 800480c:	9803      	ldr	r0, [sp, #12]
 800480e:	4798      	blx	r3
 8004810:	6923      	ldr	r3, [r4, #16]
 8004812:	3b01      	subs	r3, #1
 8004814:	6123      	str	r3, [r4, #16]
 8004816:	e702      	b.n	800461e <_scanf_float+0x7e>
 8004818:	1e6b      	subs	r3, r5, #1
 800481a:	2b06      	cmp	r3, #6
 800481c:	d80e      	bhi.n	800483c <_scanf_float+0x29c>
 800481e:	9702      	str	r7, [sp, #8]
 8004820:	2d02      	cmp	r5, #2
 8004822:	d920      	bls.n	8004866 <_scanf_float+0x2c6>
 8004824:	1beb      	subs	r3, r5, r7
 8004826:	b2db      	uxtb	r3, r3
 8004828:	9306      	str	r3, [sp, #24]
 800482a:	9b02      	ldr	r3, [sp, #8]
 800482c:	9a06      	ldr	r2, [sp, #24]
 800482e:	189b      	adds	r3, r3, r2
 8004830:	b2db      	uxtb	r3, r3
 8004832:	2b03      	cmp	r3, #3
 8004834:	d127      	bne.n	8004886 <_scanf_float+0x2e6>
 8004836:	3d03      	subs	r5, #3
 8004838:	b2ed      	uxtb	r5, r5
 800483a:	1b7f      	subs	r7, r7, r5
 800483c:	6823      	ldr	r3, [r4, #0]
 800483e:	05da      	lsls	r2, r3, #23
 8004840:	d553      	bpl.n	80048ea <_scanf_float+0x34a>
 8004842:	055b      	lsls	r3, r3, #21
 8004844:	d536      	bpl.n	80048b4 <_scanf_float+0x314>
 8004846:	25be      	movs	r5, #190	@ 0xbe
 8004848:	006d      	lsls	r5, r5, #1
 800484a:	9b04      	ldr	r3, [sp, #16]
 800484c:	429f      	cmp	r7, r3
 800484e:	d800      	bhi.n	8004852 <_scanf_float+0x2b2>
 8004850:	e6e9      	b.n	8004626 <_scanf_float+0x86>
 8004852:	3f01      	subs	r7, #1
 8004854:	5963      	ldr	r3, [r4, r5]
 8004856:	0032      	movs	r2, r6
 8004858:	7839      	ldrb	r1, [r7, #0]
 800485a:	9803      	ldr	r0, [sp, #12]
 800485c:	4798      	blx	r3
 800485e:	6923      	ldr	r3, [r4, #16]
 8004860:	3b01      	subs	r3, #1
 8004862:	6123      	str	r3, [r4, #16]
 8004864:	e7f1      	b.n	800484a <_scanf_float+0x2aa>
 8004866:	25be      	movs	r5, #190	@ 0xbe
 8004868:	006d      	lsls	r5, r5, #1
 800486a:	9b04      	ldr	r3, [sp, #16]
 800486c:	429f      	cmp	r7, r3
 800486e:	d800      	bhi.n	8004872 <_scanf_float+0x2d2>
 8004870:	e6d9      	b.n	8004626 <_scanf_float+0x86>
 8004872:	3f01      	subs	r7, #1
 8004874:	5963      	ldr	r3, [r4, r5]
 8004876:	0032      	movs	r2, r6
 8004878:	7839      	ldrb	r1, [r7, #0]
 800487a:	9803      	ldr	r0, [sp, #12]
 800487c:	4798      	blx	r3
 800487e:	6923      	ldr	r3, [r4, #16]
 8004880:	3b01      	subs	r3, #1
 8004882:	6123      	str	r3, [r4, #16]
 8004884:	e7f1      	b.n	800486a <_scanf_float+0x2ca>
 8004886:	9b02      	ldr	r3, [sp, #8]
 8004888:	0032      	movs	r2, r6
 800488a:	3b01      	subs	r3, #1
 800488c:	7819      	ldrb	r1, [r3, #0]
 800488e:	9302      	str	r3, [sp, #8]
 8004890:	23be      	movs	r3, #190	@ 0xbe
 8004892:	005b      	lsls	r3, r3, #1
 8004894:	58e3      	ldr	r3, [r4, r3]
 8004896:	9803      	ldr	r0, [sp, #12]
 8004898:	4798      	blx	r3
 800489a:	6923      	ldr	r3, [r4, #16]
 800489c:	3b01      	subs	r3, #1
 800489e:	6123      	str	r3, [r4, #16]
 80048a0:	e7c3      	b.n	800482a <_scanf_float+0x28a>
 80048a2:	46c0      	nop			@ (mov r8, r8)
 80048a4:	fffffeff 	.word	0xfffffeff
 80048a8:	fffffe7f 	.word	0xfffffe7f
 80048ac:	fffff87f 	.word	0xfffff87f
 80048b0:	fffffd7f 	.word	0xfffffd7f
 80048b4:	6923      	ldr	r3, [r4, #16]
 80048b6:	1e7d      	subs	r5, r7, #1
 80048b8:	7829      	ldrb	r1, [r5, #0]
 80048ba:	3b01      	subs	r3, #1
 80048bc:	6123      	str	r3, [r4, #16]
 80048be:	2965      	cmp	r1, #101	@ 0x65
 80048c0:	d00c      	beq.n	80048dc <_scanf_float+0x33c>
 80048c2:	2945      	cmp	r1, #69	@ 0x45
 80048c4:	d00a      	beq.n	80048dc <_scanf_float+0x33c>
 80048c6:	23be      	movs	r3, #190	@ 0xbe
 80048c8:	005b      	lsls	r3, r3, #1
 80048ca:	58e3      	ldr	r3, [r4, r3]
 80048cc:	0032      	movs	r2, r6
 80048ce:	9803      	ldr	r0, [sp, #12]
 80048d0:	4798      	blx	r3
 80048d2:	6923      	ldr	r3, [r4, #16]
 80048d4:	1ebd      	subs	r5, r7, #2
 80048d6:	3b01      	subs	r3, #1
 80048d8:	7829      	ldrb	r1, [r5, #0]
 80048da:	6123      	str	r3, [r4, #16]
 80048dc:	23be      	movs	r3, #190	@ 0xbe
 80048de:	005b      	lsls	r3, r3, #1
 80048e0:	0032      	movs	r2, r6
 80048e2:	58e3      	ldr	r3, [r4, r3]
 80048e4:	9803      	ldr	r0, [sp, #12]
 80048e6:	4798      	blx	r3
 80048e8:	002f      	movs	r7, r5
 80048ea:	6821      	ldr	r1, [r4, #0]
 80048ec:	2310      	movs	r3, #16
 80048ee:	000a      	movs	r2, r1
 80048f0:	401a      	ands	r2, r3
 80048f2:	4219      	tst	r1, r3
 80048f4:	d001      	beq.n	80048fa <_scanf_float+0x35a>
 80048f6:	2000      	movs	r0, #0
 80048f8:	e696      	b.n	8004628 <_scanf_float+0x88>
 80048fa:	21c0      	movs	r1, #192	@ 0xc0
 80048fc:	703a      	strb	r2, [r7, #0]
 80048fe:	6823      	ldr	r3, [r4, #0]
 8004900:	00c9      	lsls	r1, r1, #3
 8004902:	400b      	ands	r3, r1
 8004904:	2180      	movs	r1, #128	@ 0x80
 8004906:	00c9      	lsls	r1, r1, #3
 8004908:	428b      	cmp	r3, r1
 800490a:	d11c      	bne.n	8004946 <_scanf_float+0x3a6>
 800490c:	9b05      	ldr	r3, [sp, #20]
 800490e:	9a01      	ldr	r2, [sp, #4]
 8004910:	9905      	ldr	r1, [sp, #20]
 8004912:	1a9a      	subs	r2, r3, r2
 8004914:	9b01      	ldr	r3, [sp, #4]
 8004916:	428b      	cmp	r3, r1
 8004918:	d121      	bne.n	800495e <_scanf_float+0x3be>
 800491a:	2200      	movs	r2, #0
 800491c:	9904      	ldr	r1, [sp, #16]
 800491e:	9803      	ldr	r0, [sp, #12]
 8004920:	f002 fc78 	bl	8007214 <_strtod_r>
 8004924:	9b07      	ldr	r3, [sp, #28]
 8004926:	6822      	ldr	r2, [r4, #0]
 8004928:	0006      	movs	r6, r0
 800492a:	000f      	movs	r7, r1
 800492c:	681b      	ldr	r3, [r3, #0]
 800492e:	0791      	lsls	r1, r2, #30
 8004930:	d522      	bpl.n	8004978 <_scanf_float+0x3d8>
 8004932:	9907      	ldr	r1, [sp, #28]
 8004934:	1d1a      	adds	r2, r3, #4
 8004936:	600a      	str	r2, [r1, #0]
 8004938:	681b      	ldr	r3, [r3, #0]
 800493a:	601e      	str	r6, [r3, #0]
 800493c:	605f      	str	r7, [r3, #4]
 800493e:	68e3      	ldr	r3, [r4, #12]
 8004940:	3301      	adds	r3, #1
 8004942:	60e3      	str	r3, [r4, #12]
 8004944:	e7d7      	b.n	80048f6 <_scanf_float+0x356>
 8004946:	9b08      	ldr	r3, [sp, #32]
 8004948:	2b00      	cmp	r3, #0
 800494a:	d0e6      	beq.n	800491a <_scanf_float+0x37a>
 800494c:	9b09      	ldr	r3, [sp, #36]	@ 0x24
 800494e:	9803      	ldr	r0, [sp, #12]
 8004950:	1c59      	adds	r1, r3, #1
 8004952:	230a      	movs	r3, #10
 8004954:	f002 fcf0 	bl	8007338 <_strtol_r>
 8004958:	9b08      	ldr	r3, [sp, #32]
 800495a:	9f09      	ldr	r7, [sp, #36]	@ 0x24
 800495c:	1ac2      	subs	r2, r0, r3
 800495e:	0023      	movs	r3, r4
 8004960:	3370      	adds	r3, #112	@ 0x70
 8004962:	33ff      	adds	r3, #255	@ 0xff
 8004964:	429f      	cmp	r7, r3
 8004966:	d302      	bcc.n	800496e <_scanf_float+0x3ce>
 8004968:	0027      	movs	r7, r4
 800496a:	376f      	adds	r7, #111	@ 0x6f
 800496c:	37ff      	adds	r7, #255	@ 0xff
 800496e:	0038      	movs	r0, r7
 8004970:	4910      	ldr	r1, [pc, #64]	@ (80049b4 <_scanf_float+0x414>)
 8004972:	f000 f8e7 	bl	8004b44 <siprintf>
 8004976:	e7d0      	b.n	800491a <_scanf_float+0x37a>
 8004978:	1d19      	adds	r1, r3, #4
 800497a:	0752      	lsls	r2, r2, #29
 800497c:	d502      	bpl.n	8004984 <_scanf_float+0x3e4>
 800497e:	9a07      	ldr	r2, [sp, #28]
 8004980:	6011      	str	r1, [r2, #0]
 8004982:	e7d9      	b.n	8004938 <_scanf_float+0x398>
 8004984:	9a07      	ldr	r2, [sp, #28]
 8004986:	0030      	movs	r0, r6
 8004988:	6011      	str	r1, [r2, #0]
 800498a:	681d      	ldr	r5, [r3, #0]
 800498c:	0032      	movs	r2, r6
 800498e:	003b      	movs	r3, r7
 8004990:	0039      	movs	r1, r7
 8004992:	f7fd ff1f 	bl	80027d4 <__aeabi_dcmpun>
 8004996:	2800      	cmp	r0, #0
 8004998:	d004      	beq.n	80049a4 <_scanf_float+0x404>
 800499a:	4807      	ldr	r0, [pc, #28]	@ (80049b8 <_scanf_float+0x418>)
 800499c:	f000 f9da 	bl	8004d54 <nanf>
 80049a0:	6028      	str	r0, [r5, #0]
 80049a2:	e7cc      	b.n	800493e <_scanf_float+0x39e>
 80049a4:	0030      	movs	r0, r6
 80049a6:	0039      	movs	r1, r7
 80049a8:	f7fe f80c 	bl	80029c4 <__aeabi_d2f>
 80049ac:	e7f8      	b.n	80049a0 <_scanf_float+0x400>
 80049ae:	2300      	movs	r3, #0
 80049b0:	9301      	str	r3, [sp, #4]
 80049b2:	e62d      	b.n	8004610 <_scanf_float+0x70>
 80049b4:	08008648 	.word	0x08008648
 80049b8:	080089dd 	.word	0x080089dd

080049bc <std>:
 80049bc:	2300      	movs	r3, #0
 80049be:	b510      	push	{r4, lr}
 80049c0:	0004      	movs	r4, r0
 80049c2:	6003      	str	r3, [r0, #0]
 80049c4:	6043      	str	r3, [r0, #4]
 80049c6:	6083      	str	r3, [r0, #8]
 80049c8:	8181      	strh	r1, [r0, #12]
 80049ca:	6643      	str	r3, [r0, #100]	@ 0x64
 80049cc:	81c2      	strh	r2, [r0, #14]
 80049ce:	6103      	str	r3, [r0, #16]
 80049d0:	6143      	str	r3, [r0, #20]
 80049d2:	6183      	str	r3, [r0, #24]
 80049d4:	0019      	movs	r1, r3
 80049d6:	2208      	movs	r2, #8
 80049d8:	305c      	adds	r0, #92	@ 0x5c
 80049da:	f000 f91f 	bl	8004c1c <memset>
 80049de:	4b0b      	ldr	r3, [pc, #44]	@ (8004a0c <std+0x50>)
 80049e0:	6224      	str	r4, [r4, #32]
 80049e2:	6263      	str	r3, [r4, #36]	@ 0x24
 80049e4:	4b0a      	ldr	r3, [pc, #40]	@ (8004a10 <std+0x54>)
 80049e6:	62a3      	str	r3, [r4, #40]	@ 0x28
 80049e8:	4b0a      	ldr	r3, [pc, #40]	@ (8004a14 <std+0x58>)
 80049ea:	62e3      	str	r3, [r4, #44]	@ 0x2c
 80049ec:	4b0a      	ldr	r3, [pc, #40]	@ (8004a18 <std+0x5c>)
 80049ee:	6323      	str	r3, [r4, #48]	@ 0x30
 80049f0:	4b0a      	ldr	r3, [pc, #40]	@ (8004a1c <std+0x60>)
 80049f2:	429c      	cmp	r4, r3
 80049f4:	d005      	beq.n	8004a02 <std+0x46>
 80049f6:	4b0a      	ldr	r3, [pc, #40]	@ (8004a20 <std+0x64>)
 80049f8:	429c      	cmp	r4, r3
 80049fa:	d002      	beq.n	8004a02 <std+0x46>
 80049fc:	4b09      	ldr	r3, [pc, #36]	@ (8004a24 <std+0x68>)
 80049fe:	429c      	cmp	r4, r3
 8004a00:	d103      	bne.n	8004a0a <std+0x4e>
 8004a02:	0020      	movs	r0, r4
 8004a04:	3058      	adds	r0, #88	@ 0x58
 8004a06:	f000 f98d 	bl	8004d24 <__retarget_lock_init_recursive>
 8004a0a:	bd10      	pop	{r4, pc}
 8004a0c:	08004b85 	.word	0x08004b85
 8004a10:	08004bad 	.word	0x08004bad
 8004a14:	08004be5 	.word	0x08004be5
 8004a18:	08004c11 	.word	0x08004c11
 8004a1c:	20000208 	.word	0x20000208
 8004a20:	20000270 	.word	0x20000270
 8004a24:	200002d8 	.word	0x200002d8

08004a28 <stdio_exit_handler>:
 8004a28:	b510      	push	{r4, lr}
 8004a2a:	4a03      	ldr	r2, [pc, #12]	@ (8004a38 <stdio_exit_handler+0x10>)
 8004a2c:	4903      	ldr	r1, [pc, #12]	@ (8004a3c <stdio_exit_handler+0x14>)
 8004a2e:	4804      	ldr	r0, [pc, #16]	@ (8004a40 <stdio_exit_handler+0x18>)
 8004a30:	f000 f86c 	bl	8004b0c <_fwalk_sglue>
 8004a34:	bd10      	pop	{r4, pc}
 8004a36:	46c0      	nop			@ (mov r8, r8)
 8004a38:	20000004 	.word	0x20000004
 8004a3c:	08007709 	.word	0x08007709
 8004a40:	20000014 	.word	0x20000014

08004a44 <cleanup_stdio>:
 8004a44:	6841      	ldr	r1, [r0, #4]
 8004a46:	4b0b      	ldr	r3, [pc, #44]	@ (8004a74 <cleanup_stdio+0x30>)
 8004a48:	b510      	push	{r4, lr}
 8004a4a:	0004      	movs	r4, r0
 8004a4c:	4299      	cmp	r1, r3
 8004a4e:	d001      	beq.n	8004a54 <cleanup_stdio+0x10>
 8004a50:	f002 fe5a 	bl	8007708 <_fflush_r>
 8004a54:	68a1      	ldr	r1, [r4, #8]
 8004a56:	4b08      	ldr	r3, [pc, #32]	@ (8004a78 <cleanup_stdio+0x34>)
 8004a58:	4299      	cmp	r1, r3
 8004a5a:	d002      	beq.n	8004a62 <cleanup_stdio+0x1e>
 8004a5c:	0020      	movs	r0, r4
 8004a5e:	f002 fe53 	bl	8007708 <_fflush_r>
 8004a62:	68e1      	ldr	r1, [r4, #12]
 8004a64:	4b05      	ldr	r3, [pc, #20]	@ (8004a7c <cleanup_stdio+0x38>)
 8004a66:	4299      	cmp	r1, r3
 8004a68:	d002      	beq.n	8004a70 <cleanup_stdio+0x2c>
 8004a6a:	0020      	movs	r0, r4
 8004a6c:	f002 fe4c 	bl	8007708 <_fflush_r>
 8004a70:	bd10      	pop	{r4, pc}
 8004a72:	46c0      	nop			@ (mov r8, r8)
 8004a74:	20000208 	.word	0x20000208
 8004a78:	20000270 	.word	0x20000270
 8004a7c:	200002d8 	.word	0x200002d8

08004a80 <global_stdio_init.part.0>:
 8004a80:	b510      	push	{r4, lr}
 8004a82:	4b09      	ldr	r3, [pc, #36]	@ (8004aa8 <global_stdio_init.part.0+0x28>)
 8004a84:	4a09      	ldr	r2, [pc, #36]	@ (8004aac <global_stdio_init.part.0+0x2c>)
 8004a86:	2104      	movs	r1, #4
 8004a88:	601a      	str	r2, [r3, #0]
 8004a8a:	4809      	ldr	r0, [pc, #36]	@ (8004ab0 <global_stdio_init.part.0+0x30>)
 8004a8c:	2200      	movs	r2, #0
 8004a8e:	f7ff ff95 	bl	80049bc <std>
 8004a92:	2201      	movs	r2, #1
 8004a94:	2109      	movs	r1, #9
 8004a96:	4807      	ldr	r0, [pc, #28]	@ (8004ab4 <global_stdio_init.part.0+0x34>)
 8004a98:	f7ff ff90 	bl	80049bc <std>
 8004a9c:	2202      	movs	r2, #2
 8004a9e:	2112      	movs	r1, #18
 8004aa0:	4805      	ldr	r0, [pc, #20]	@ (8004ab8 <global_stdio_init.part.0+0x38>)
 8004aa2:	f7ff ff8b 	bl	80049bc <std>
 8004aa6:	bd10      	pop	{r4, pc}
 8004aa8:	20000340 	.word	0x20000340
 8004aac:	08004a29 	.word	0x08004a29
 8004ab0:	20000208 	.word	0x20000208
 8004ab4:	20000270 	.word	0x20000270
 8004ab8:	200002d8 	.word	0x200002d8

08004abc <__sfp_lock_acquire>:
 8004abc:	b510      	push	{r4, lr}
 8004abe:	4802      	ldr	r0, [pc, #8]	@ (8004ac8 <__sfp_lock_acquire+0xc>)
 8004ac0:	f000 f931 	bl	8004d26 <__retarget_lock_acquire_recursive>
 8004ac4:	bd10      	pop	{r4, pc}
 8004ac6:	46c0      	nop			@ (mov r8, r8)
 8004ac8:	20000349 	.word	0x20000349

08004acc <__sfp_lock_release>:
 8004acc:	b510      	push	{r4, lr}
 8004ace:	4802      	ldr	r0, [pc, #8]	@ (8004ad8 <__sfp_lock_release+0xc>)
 8004ad0:	f000 f92a 	bl	8004d28 <__retarget_lock_release_recursive>
 8004ad4:	bd10      	pop	{r4, pc}
 8004ad6:	46c0      	nop			@ (mov r8, r8)
 8004ad8:	20000349 	.word	0x20000349

08004adc <__sinit>:
 8004adc:	b510      	push	{r4, lr}
 8004ade:	0004      	movs	r4, r0
 8004ae0:	f7ff ffec 	bl	8004abc <__sfp_lock_acquire>
 8004ae4:	6a23      	ldr	r3, [r4, #32]
 8004ae6:	2b00      	cmp	r3, #0
 8004ae8:	d002      	beq.n	8004af0 <__sinit+0x14>
 8004aea:	f7ff ffef 	bl	8004acc <__sfp_lock_release>
 8004aee:	bd10      	pop	{r4, pc}
 8004af0:	4b04      	ldr	r3, [pc, #16]	@ (8004b04 <__sinit+0x28>)
 8004af2:	6223      	str	r3, [r4, #32]
 8004af4:	4b04      	ldr	r3, [pc, #16]	@ (8004b08 <__sinit+0x2c>)
 8004af6:	681b      	ldr	r3, [r3, #0]
 8004af8:	2b00      	cmp	r3, #0
 8004afa:	d1f6      	bne.n	8004aea <__sinit+0xe>
 8004afc:	f7ff ffc0 	bl	8004a80 <global_stdio_init.part.0>
 8004b00:	e7f3      	b.n	8004aea <__sinit+0xe>
 8004b02:	46c0      	nop			@ (mov r8, r8)
 8004b04:	08004a45 	.word	0x08004a45
 8004b08:	20000340 	.word	0x20000340

08004b0c <_fwalk_sglue>:
 8004b0c:	b5f7      	push	{r0, r1, r2, r4, r5, r6, r7, lr}
 8004b0e:	0014      	movs	r4, r2
 8004b10:	2600      	movs	r6, #0
 8004b12:	9000      	str	r0, [sp, #0]
 8004b14:	9101      	str	r1, [sp, #4]
 8004b16:	68a5      	ldr	r5, [r4, #8]
 8004b18:	6867      	ldr	r7, [r4, #4]
 8004b1a:	3f01      	subs	r7, #1
 8004b1c:	d504      	bpl.n	8004b28 <_fwalk_sglue+0x1c>
 8004b1e:	6824      	ldr	r4, [r4, #0]
 8004b20:	2c00      	cmp	r4, #0
 8004b22:	d1f8      	bne.n	8004b16 <_fwalk_sglue+0xa>
 8004b24:	0030      	movs	r0, r6
 8004b26:	bdfe      	pop	{r1, r2, r3, r4, r5, r6, r7, pc}
 8004b28:	89ab      	ldrh	r3, [r5, #12]
 8004b2a:	2b01      	cmp	r3, #1
 8004b2c:	d908      	bls.n	8004b40 <_fwalk_sglue+0x34>
 8004b2e:	220e      	movs	r2, #14
 8004b30:	5eab      	ldrsh	r3, [r5, r2]
 8004b32:	3301      	adds	r3, #1
 8004b34:	d004      	beq.n	8004b40 <_fwalk_sglue+0x34>
 8004b36:	0029      	movs	r1, r5
 8004b38:	9800      	ldr	r0, [sp, #0]
 8004b3a:	9b01      	ldr	r3, [sp, #4]
 8004b3c:	4798      	blx	r3
 8004b3e:	4306      	orrs	r6, r0
 8004b40:	3568      	adds	r5, #104	@ 0x68
 8004b42:	e7ea      	b.n	8004b1a <_fwalk_sglue+0xe>

08004b44 <siprintf>:
 8004b44:	b40e      	push	{r1, r2, r3}
 8004b46:	b500      	push	{lr}
 8004b48:	490b      	ldr	r1, [pc, #44]	@ (8004b78 <siprintf+0x34>)
 8004b4a:	b09c      	sub	sp, #112	@ 0x70
 8004b4c:	ab1d      	add	r3, sp, #116	@ 0x74
 8004b4e:	9002      	str	r0, [sp, #8]
 8004b50:	9006      	str	r0, [sp, #24]
 8004b52:	9107      	str	r1, [sp, #28]
 8004b54:	9104      	str	r1, [sp, #16]
 8004b56:	4809      	ldr	r0, [pc, #36]	@ (8004b7c <siprintf+0x38>)
 8004b58:	4909      	ldr	r1, [pc, #36]	@ (8004b80 <siprintf+0x3c>)
 8004b5a:	cb04      	ldmia	r3!, {r2}
 8004b5c:	9105      	str	r1, [sp, #20]
 8004b5e:	6800      	ldr	r0, [r0, #0]
 8004b60:	a902      	add	r1, sp, #8
 8004b62:	9301      	str	r3, [sp, #4]
 8004b64:	f002 fc4c 	bl	8007400 <_svfiprintf_r>
 8004b68:	2200      	movs	r2, #0
 8004b6a:	9b02      	ldr	r3, [sp, #8]
 8004b6c:	701a      	strb	r2, [r3, #0]
 8004b6e:	b01c      	add	sp, #112	@ 0x70
 8004b70:	bc08      	pop	{r3}
 8004b72:	b003      	add	sp, #12
 8004b74:	4718      	bx	r3
 8004b76:	46c0      	nop			@ (mov r8, r8)
 8004b78:	7fffffff 	.word	0x7fffffff
 8004b7c:	20000010 	.word	0x20000010
 8004b80:	ffff0208 	.word	0xffff0208

08004b84 <__sread>:
 8004b84:	b570      	push	{r4, r5, r6, lr}
 8004b86:	000c      	movs	r4, r1
 8004b88:	250e      	movs	r5, #14
 8004b8a:	5f49      	ldrsh	r1, [r1, r5]
 8004b8c:	f000 f878 	bl	8004c80 <_read_r>
 8004b90:	2800      	cmp	r0, #0
 8004b92:	db03      	blt.n	8004b9c <__sread+0x18>
 8004b94:	6d63      	ldr	r3, [r4, #84]	@ 0x54
 8004b96:	181b      	adds	r3, r3, r0
 8004b98:	6563      	str	r3, [r4, #84]	@ 0x54
 8004b9a:	bd70      	pop	{r4, r5, r6, pc}
 8004b9c:	89a3      	ldrh	r3, [r4, #12]
 8004b9e:	4a02      	ldr	r2, [pc, #8]	@ (8004ba8 <__sread+0x24>)
 8004ba0:	4013      	ands	r3, r2
 8004ba2:	81a3      	strh	r3, [r4, #12]
 8004ba4:	e7f9      	b.n	8004b9a <__sread+0x16>
 8004ba6:	46c0      	nop			@ (mov r8, r8)
 8004ba8:	ffffefff 	.word	0xffffefff

08004bac <__swrite>:
 8004bac:	b5f8      	push	{r3, r4, r5, r6, r7, lr}
 8004bae:	001f      	movs	r7, r3
 8004bb0:	898b      	ldrh	r3, [r1, #12]
 8004bb2:	0005      	movs	r5, r0
 8004bb4:	000c      	movs	r4, r1
 8004bb6:	0016      	movs	r6, r2
 8004bb8:	05db      	lsls	r3, r3, #23
 8004bba:	d505      	bpl.n	8004bc8 <__swrite+0x1c>
 8004bbc:	230e      	movs	r3, #14
 8004bbe:	5ec9      	ldrsh	r1, [r1, r3]
 8004bc0:	2200      	movs	r2, #0
 8004bc2:	2302      	movs	r3, #2
 8004bc4:	f000 f848 	bl	8004c58 <_lseek_r>
 8004bc8:	89a3      	ldrh	r3, [r4, #12]
 8004bca:	4a05      	ldr	r2, [pc, #20]	@ (8004be0 <__swrite+0x34>)
 8004bcc:	0028      	movs	r0, r5
 8004bce:	4013      	ands	r3, r2
 8004bd0:	81a3      	strh	r3, [r4, #12]
 8004bd2:	0032      	movs	r2, r6
 8004bd4:	230e      	movs	r3, #14
 8004bd6:	5ee1      	ldrsh	r1, [r4, r3]
 8004bd8:	003b      	movs	r3, r7
 8004bda:	f000 f865 	bl	8004ca8 <_write_r>
 8004bde:	bdf8      	pop	{r3, r4, r5, r6, r7, pc}
 8004be0:	ffffefff 	.word	0xffffefff

08004be4 <__sseek>:
 8004be4:	b570      	push	{r4, r5, r6, lr}
 8004be6:	000c      	movs	r4, r1
 8004be8:	250e      	movs	r5, #14
 8004bea:	5f49      	ldrsh	r1, [r1, r5]
 8004bec:	f000 f834 	bl	8004c58 <_lseek_r>
 8004bf0:	89a3      	ldrh	r3, [r4, #12]
 8004bf2:	1c42      	adds	r2, r0, #1
 8004bf4:	d103      	bne.n	8004bfe <__sseek+0x1a>
 8004bf6:	4a05      	ldr	r2, [pc, #20]	@ (8004c0c <__sseek+0x28>)
 8004bf8:	4013      	ands	r3, r2
 8004bfa:	81a3      	strh	r3, [r4, #12]
 8004bfc:	bd70      	pop	{r4, r5, r6, pc}
 8004bfe:	2280      	movs	r2, #128	@ 0x80
 8004c00:	0152      	lsls	r2, r2, #5
 8004c02:	4313      	orrs	r3, r2
 8004c04:	81a3      	strh	r3, [r4, #12]
 8004c06:	6560      	str	r0, [r4, #84]	@ 0x54
 8004c08:	e7f8      	b.n	8004bfc <__sseek+0x18>
 8004c0a:	46c0      	nop			@ (mov r8, r8)
 8004c0c:	ffffefff 	.word	0xffffefff

08004c10 <__sclose>:
 8004c10:	b510      	push	{r4, lr}
 8004c12:	230e      	movs	r3, #14
 8004c14:	5ec9      	ldrsh	r1, [r1, r3]
 8004c16:	f000 f80d 	bl	8004c34 <_close_r>
 8004c1a:	bd10      	pop	{r4, pc}

08004c1c <memset>:
 8004c1c:	0003      	movs	r3, r0
 8004c1e:	1882      	adds	r2, r0, r2
 8004c20:	4293      	cmp	r3, r2
 8004c22:	d100      	bne.n	8004c26 <memset+0xa>
 8004c24:	4770      	bx	lr
 8004c26:	7019      	strb	r1, [r3, #0]
 8004c28:	3301      	adds	r3, #1
 8004c2a:	e7f9      	b.n	8004c20 <memset+0x4>

08004c2c <_localeconv_r>:
 8004c2c:	4800      	ldr	r0, [pc, #0]	@ (8004c30 <_localeconv_r+0x4>)
 8004c2e:	4770      	bx	lr
 8004c30:	20000150 	.word	0x20000150

08004c34 <_close_r>:
 8004c34:	2300      	movs	r3, #0
 8004c36:	b570      	push	{r4, r5, r6, lr}
 8004c38:	4d06      	ldr	r5, [pc, #24]	@ (8004c54 <_close_r+0x20>)
 8004c3a:	0004      	movs	r4, r0
 8004c3c:	0008      	movs	r0, r1
 8004c3e:	602b      	str	r3, [r5, #0]
 8004c40:	f7fe fe9c 	bl	800397c <_close>
 8004c44:	1c43      	adds	r3, r0, #1
 8004c46:	d103      	bne.n	8004c50 <_close_r+0x1c>
 8004c48:	682b      	ldr	r3, [r5, #0]
 8004c4a:	2b00      	cmp	r3, #0
 8004c4c:	d000      	beq.n	8004c50 <_close_r+0x1c>
 8004c4e:	6023      	str	r3, [r4, #0]
 8004c50:	bd70      	pop	{r4, r5, r6, pc}
 8004c52:	46c0      	nop			@ (mov r8, r8)
 8004c54:	20000344 	.word	0x20000344

08004c58 <_lseek_r>:
 8004c58:	b570      	push	{r4, r5, r6, lr}
 8004c5a:	0004      	movs	r4, r0
 8004c5c:	0008      	movs	r0, r1
 8004c5e:	0011      	movs	r1, r2
 8004c60:	001a      	movs	r2, r3
 8004c62:	2300      	movs	r3, #0
 8004c64:	4d05      	ldr	r5, [pc, #20]	@ (8004c7c <_lseek_r+0x24>)
 8004c66:	602b      	str	r3, [r5, #0]
 8004c68:	f7fe fea9 	bl	80039be <_lseek>
 8004c6c:	1c43      	adds	r3, r0, #1
 8004c6e:	d103      	bne.n	8004c78 <_lseek_r+0x20>
 8004c70:	682b      	ldr	r3, [r5, #0]
 8004c72:	2b00      	cmp	r3, #0
 8004c74:	d000      	beq.n	8004c78 <_lseek_r+0x20>
 8004c76:	6023      	str	r3, [r4, #0]
 8004c78:	bd70      	pop	{r4, r5, r6, pc}
 8004c7a:	46c0      	nop			@ (mov r8, r8)
 8004c7c:	20000344 	.word	0x20000344

08004c80 <_read_r>:
 8004c80:	b570      	push	{r4, r5, r6, lr}
 8004c82:	0004      	movs	r4, r0
 8004c84:	0008      	movs	r0, r1
 8004c86:	0011      	movs	r1, r2
 8004c88:	001a      	movs	r2, r3
 8004c8a:	2300      	movs	r3, #0
 8004c8c:	4d05      	ldr	r5, [pc, #20]	@ (8004ca4 <_read_r+0x24>)
 8004c8e:	602b      	str	r3, [r5, #0]
 8004c90:	f7fe fe3b 	bl	800390a <_read>
 8004c94:	1c43      	adds	r3, r0, #1
 8004c96:	d103      	bne.n	8004ca0 <_read_r+0x20>
 8004c98:	682b      	ldr	r3, [r5, #0]
 8004c9a:	2b00      	cmp	r3, #0
 8004c9c:	d000      	beq.n	8004ca0 <_read_r+0x20>
 8004c9e:	6023      	str	r3, [r4, #0]
 8004ca0:	bd70      	pop	{r4, r5, r6, pc}
 8004ca2:	46c0      	nop			@ (mov r8, r8)
 8004ca4:	20000344 	.word	0x20000344

08004ca8 <_write_r>:
 8004ca8:	b570      	push	{r4, r5, r6, lr}
 8004caa:	0004      	movs	r4, r0
 8004cac:	0008      	movs	r0, r1
 8004cae:	0011      	movs	r1, r2
 8004cb0:	001a      	movs	r2, r3
 8004cb2:	2300      	movs	r3, #0
 8004cb4:	4d05      	ldr	r5, [pc, #20]	@ (8004ccc <_write_r+0x24>)
 8004cb6:	602b      	str	r3, [r5, #0]
 8004cb8:	f7fe fe44 	bl	8003944 <_write>
 8004cbc:	1c43      	adds	r3, r0, #1
 8004cbe:	d103      	bne.n	8004cc8 <_write_r+0x20>
 8004cc0:	682b      	ldr	r3, [r5, #0]
 8004cc2:	2b00      	cmp	r3, #0
 8004cc4:	d000      	beq.n	8004cc8 <_write_r+0x20>
 8004cc6:	6023      	str	r3, [r4, #0]
 8004cc8:	bd70      	pop	{r4, r5, r6, pc}
 8004cca:	46c0      	nop			@ (mov r8, r8)
 8004ccc:	20000344 	.word	0x20000344

08004cd0 <__errno>:
 8004cd0:	4b01      	ldr	r3, [pc, #4]	@ (8004cd8 <__errno+0x8>)
 8004cd2:	6818      	ldr	r0, [r3, #0]
 8004cd4:	4770      	bx	lr
 8004cd6:	46c0      	nop			@ (mov r8, r8)
 8004cd8:	20000010 	.word	0x20000010

08004cdc <__libc_init_array>:
 8004cdc:	b570      	push	{r4, r5, r6, lr}
 8004cde:	2600      	movs	r6, #0
 8004ce0:	4c0c      	ldr	r4, [pc, #48]	@ (8004d14 <__libc_init_array+0x38>)
 8004ce2:	4d0d      	ldr	r5, [pc, #52]	@ (8004d18 <__libc_init_array+0x3c>)
 8004ce4:	1b64      	subs	r4, r4, r5
 8004ce6:	10a4      	asrs	r4, r4, #2
 8004ce8:	42a6      	cmp	r6, r4
 8004cea:	d109      	bne.n	8004d00 <__libc_init_array+0x24>
 8004cec:	2600      	movs	r6, #0
 8004cee:	f003 fc43 	bl	8008578 <_init>
 8004cf2:	4c0a      	ldr	r4, [pc, #40]	@ (8004d1c <__libc_init_array+0x40>)
 8004cf4:	4d0a      	ldr	r5, [pc, #40]	@ (8004d20 <__libc_init_array+0x44>)
 8004cf6:	1b64      	subs	r4, r4, r5
 8004cf8:	10a4      	asrs	r4, r4, #2
 8004cfa:	42a6      	cmp	r6, r4
 8004cfc:	d105      	bne.n	8004d0a <__libc_init_array+0x2e>
 8004cfe:	bd70      	pop	{r4, r5, r6, pc}
 8004d00:	00b3      	lsls	r3, r6, #2
 8004d02:	58eb      	ldr	r3, [r5, r3]
 8004d04:	4798      	blx	r3
 8004d06:	3601      	adds	r6, #1
 8004d08:	e7ee      	b.n	8004ce8 <__libc_init_array+0xc>
 8004d0a:	00b3      	lsls	r3, r6, #2
 8004d0c:	58eb      	ldr	r3, [r5, r3]
 8004d0e:	4798      	blx	r3
 8004d10:	3601      	adds	r6, #1
 8004d12:	e7f2      	b.n	8004cfa <__libc_init_array+0x1e>
 8004d14:	08008a40 	.word	0x08008a40
 8004d18:	08008a40 	.word	0x08008a40
 8004d1c:	08008a44 	.word	0x08008a44
 8004d20:	08008a40 	.word	0x08008a40

08004d24 <__retarget_lock_init_recursive>:
 8004d24:	4770      	bx	lr

08004d26 <__retarget_lock_acquire_recursive>:
 8004d26:	4770      	bx	lr

08004d28 <__retarget_lock_release_recursive>:
 8004d28:	4770      	bx	lr

08004d2a <memchr>:
 8004d2a:	b2c9      	uxtb	r1, r1
 8004d2c:	1882      	adds	r2, r0, r2
 8004d2e:	4290      	cmp	r0, r2
 8004d30:	d101      	bne.n	8004d36 <memchr+0xc>
 8004d32:	2000      	movs	r0, #0
 8004d34:	4770      	bx	lr
 8004d36:	7803      	ldrb	r3, [r0, #0]
 8004d38:	428b      	cmp	r3, r1
 8004d3a:	d0fb      	beq.n	8004d34 <memchr+0xa>
 8004d3c:	3001      	adds	r0, #1
 8004d3e:	e7f6      	b.n	8004d2e <memchr+0x4>

08004d40 <memcpy>:
 8004d40:	2300      	movs	r3, #0
 8004d42:	b510      	push	{r4, lr}
 8004d44:	429a      	cmp	r2, r3
 8004d46:	d100      	bne.n	8004d4a <memcpy+0xa>
 8004d48:	bd10      	pop	{r4, pc}
 8004d4a:	5ccc      	ldrb	r4, [r1, r3]
 8004d4c:	54c4      	strb	r4, [r0, r3]
 8004d4e:	3301      	adds	r3, #1
 8004d50:	e7f8      	b.n	8004d44 <memcpy+0x4>
	...

08004d54 <nanf>:
 8004d54:	4800      	ldr	r0, [pc, #0]	@ (8004d58 <nanf+0x4>)
 8004d56:	4770      	bx	lr
 8004d58:	7fc00000 	.word	0x7fc00000

08004d5c <quorem>:
 8004d5c:	b5f0      	push	{r4, r5, r6, r7, lr}
 8004d5e:	6902      	ldr	r2, [r0, #16]
 8004d60:	690f      	ldr	r7, [r1, #16]
 8004d62:	b087      	sub	sp, #28
 8004d64:	0006      	movs	r6, r0
 8004d66:	000b      	movs	r3, r1
 8004d68:	2000      	movs	r0, #0
 8004d6a:	9102      	str	r1, [sp, #8]
 8004d6c:	42ba      	cmp	r2, r7
 8004d6e:	db6d      	blt.n	8004e4c <quorem+0xf0>
 8004d70:	3f01      	subs	r7, #1
 8004d72:	00bc      	lsls	r4, r7, #2
 8004d74:	3314      	adds	r3, #20
 8004d76:	9305      	str	r3, [sp, #20]
 8004d78:	191b      	adds	r3, r3, r4
 8004d7a:	9303      	str	r3, [sp, #12]
 8004d7c:	0033      	movs	r3, r6
 8004d7e:	3314      	adds	r3, #20
 8004d80:	191c      	adds	r4, r3, r4
 8004d82:	9301      	str	r3, [sp, #4]
 8004d84:	6823      	ldr	r3, [r4, #0]
 8004d86:	9304      	str	r3, [sp, #16]
 8004d88:	9b03      	ldr	r3, [sp, #12]
 8004d8a:	9804      	ldr	r0, [sp, #16]
 8004d8c:	681d      	ldr	r5, [r3, #0]
 8004d8e:	3501      	adds	r5, #1
 8004d90:	0029      	movs	r1, r5
 8004d92:	f7fb f9d3 	bl	800013c <__udivsi3>
 8004d96:	9b04      	ldr	r3, [sp, #16]
 8004d98:	9000      	str	r0, [sp, #0]
 8004d9a:	42ab      	cmp	r3, r5
 8004d9c:	d32b      	bcc.n	8004df6 <quorem+0x9a>
 8004d9e:	9b05      	ldr	r3, [sp, #20]
 8004da0:	9d01      	ldr	r5, [sp, #4]
 8004da2:	469c      	mov	ip, r3
 8004da4:	2300      	movs	r3, #0
 8004da6:	9305      	str	r3, [sp, #20]
 8004da8:	9304      	str	r3, [sp, #16]
 8004daa:	4662      	mov	r2, ip
 8004dac:	ca08      	ldmia	r2!, {r3}
 8004dae:	6828      	ldr	r0, [r5, #0]
 8004db0:	4694      	mov	ip, r2
 8004db2:	9a00      	ldr	r2, [sp, #0]
 8004db4:	b299      	uxth	r1, r3
 8004db6:	4351      	muls	r1, r2
 8004db8:	9a05      	ldr	r2, [sp, #20]
 8004dba:	0c1b      	lsrs	r3, r3, #16
 8004dbc:	1889      	adds	r1, r1, r2
 8004dbe:	9a00      	ldr	r2, [sp, #0]
 8004dc0:	4353      	muls	r3, r2
 8004dc2:	0c0a      	lsrs	r2, r1, #16
 8004dc4:	189b      	adds	r3, r3, r2
 8004dc6:	0c1a      	lsrs	r2, r3, #16
 8004dc8:	b289      	uxth	r1, r1
 8004dca:	9205      	str	r2, [sp, #20]
 8004dcc:	b282      	uxth	r2, r0
 8004dce:	1a52      	subs	r2, r2, r1
 8004dd0:	9904      	ldr	r1, [sp, #16]
 8004dd2:	0c00      	lsrs	r0, r0, #16
 8004dd4:	1852      	adds	r2, r2, r1
 8004dd6:	b29b      	uxth	r3, r3
 8004dd8:	1411      	asrs	r1, r2, #16
 8004dda:	1ac3      	subs	r3, r0, r3
 8004ddc:	185b      	adds	r3, r3, r1
 8004dde:	1419      	asrs	r1, r3, #16
 8004de0:	b292      	uxth	r2, r2
 8004de2:	041b      	lsls	r3, r3, #16
 8004de4:	431a      	orrs	r2, r3
 8004de6:	9b03      	ldr	r3, [sp, #12]
 8004de8:	9104      	str	r1, [sp, #16]
 8004dea:	c504      	stmia	r5!, {r2}
 8004dec:	4563      	cmp	r3, ip
 8004dee:	d2dc      	bcs.n	8004daa <quorem+0x4e>
 8004df0:	6823      	ldr	r3, [r4, #0]
 8004df2:	2b00      	cmp	r3, #0
 8004df4:	d030      	beq.n	8004e58 <quorem+0xfc>
 8004df6:	0030      	movs	r0, r6
 8004df8:	9902      	ldr	r1, [sp, #8]
 8004dfa:	f001 fa11 	bl	8006220 <__mcmp>
 8004dfe:	2800      	cmp	r0, #0
 8004e00:	db23      	blt.n	8004e4a <quorem+0xee>
 8004e02:	0034      	movs	r4, r6
 8004e04:	2500      	movs	r5, #0
 8004e06:	9902      	ldr	r1, [sp, #8]
 8004e08:	3414      	adds	r4, #20
 8004e0a:	3114      	adds	r1, #20
 8004e0c:	6823      	ldr	r3, [r4, #0]
 8004e0e:	c901      	ldmia	r1!, {r0}
 8004e10:	9302      	str	r3, [sp, #8]
 8004e12:	466b      	mov	r3, sp
 8004e14:	891b      	ldrh	r3, [r3, #8]
 8004e16:	b282      	uxth	r2, r0
 8004e18:	1a9a      	subs	r2, r3, r2
 8004e1a:	9b02      	ldr	r3, [sp, #8]
 8004e1c:	1952      	adds	r2, r2, r5
 8004e1e:	0c00      	lsrs	r0, r0, #16
 8004e20:	0c1b      	lsrs	r3, r3, #16
 8004e22:	1a1b      	subs	r3, r3, r0
 8004e24:	1410      	asrs	r0, r2, #16
 8004e26:	181b      	adds	r3, r3, r0
 8004e28:	141d      	asrs	r5, r3, #16
 8004e2a:	b292      	uxth	r2, r2
 8004e2c:	041b      	lsls	r3, r3, #16
 8004e2e:	431a      	orrs	r2, r3
 8004e30:	9b03      	ldr	r3, [sp, #12]
 8004e32:	c404      	stmia	r4!, {r2}
 8004e34:	428b      	cmp	r3, r1
 8004e36:	d2e9      	bcs.n	8004e0c <quorem+0xb0>
 8004e38:	9a01      	ldr	r2, [sp, #4]
 8004e3a:	00bb      	lsls	r3, r7, #2
 8004e3c:	18d3      	adds	r3, r2, r3
 8004e3e:	681a      	ldr	r2, [r3, #0]
 8004e40:	2a00      	cmp	r2, #0
 8004e42:	d013      	beq.n	8004e6c <quorem+0x110>
 8004e44:	9b00      	ldr	r3, [sp, #0]
 8004e46:	3301      	adds	r3, #1
 8004e48:	9300      	str	r3, [sp, #0]
 8004e4a:	9800      	ldr	r0, [sp, #0]
 8004e4c:	b007      	add	sp, #28
 8004e4e:	bdf0      	pop	{r4, r5, r6, r7, pc}
 8004e50:	6823      	ldr	r3, [r4, #0]
 8004e52:	2b00      	cmp	r3, #0
 8004e54:	d104      	bne.n	8004e60 <quorem+0x104>
 8004e56:	3f01      	subs	r7, #1
 8004e58:	9b01      	ldr	r3, [sp, #4]
 8004e5a:	3c04      	subs	r4, #4
 8004e5c:	42a3      	cmp	r3, r4
 8004e5e:	d3f7      	bcc.n	8004e50 <quorem+0xf4>
 8004e60:	6137      	str	r7, [r6, #16]
 8004e62:	e7c8      	b.n	8004df6 <quorem+0x9a>
 8004e64:	681a      	ldr	r2, [r3, #0]
 8004e66:	2a00      	cmp	r2, #0
 8004e68:	d104      	bne.n	8004e74 <quorem+0x118>
 8004e6a:	3f01      	subs	r7, #1
 8004e6c:	9a01      	ldr	r2, [sp, #4]
 8004e6e:	3b04      	subs	r3, #4
 8004e70:	429a      	cmp	r2, r3
 8004e72:	d3f7      	bcc.n	8004e64 <quorem+0x108>
 8004e74:	6137      	str	r7, [r6, #16]
 8004e76:	e7e5      	b.n	8004e44 <quorem+0xe8>

08004e78 <_dtoa_r>:
 8004e78:	b5f0      	push	{r4, r5, r6, r7, lr}
 8004e7a:	0014      	movs	r4, r2
 8004e7c:	001d      	movs	r5, r3
 8004e7e:	69c6      	ldr	r6, [r0, #28]
 8004e80:	b09d      	sub	sp, #116	@ 0x74
 8004e82:	940a      	str	r4, [sp, #40]	@ 0x28
 8004e84:	950b      	str	r5, [sp, #44]	@ 0x2c
 8004e86:	9f25      	ldr	r7, [sp, #148]	@ 0x94
 8004e88:	9003      	str	r0, [sp, #12]
 8004e8a:	2e00      	cmp	r6, #0
 8004e8c:	d10f      	bne.n	8004eae <_dtoa_r+0x36>
 8004e8e:	2010      	movs	r0, #16
 8004e90:	f000 fe30 	bl	8005af4 <malloc>
 8004e94:	9b03      	ldr	r3, [sp, #12]
 8004e96:	1e02      	subs	r2, r0, #0
 8004e98:	61d8      	str	r0, [r3, #28]
 8004e9a:	d104      	bne.n	8004ea6 <_dtoa_r+0x2e>
 8004e9c:	21ef      	movs	r1, #239	@ 0xef
 8004e9e:	4bc7      	ldr	r3, [pc, #796]	@ (80051bc <_dtoa_r+0x344>)
 8004ea0:	48c7      	ldr	r0, [pc, #796]	@ (80051c0 <_dtoa_r+0x348>)
 8004ea2:	f002 fc99 	bl	80077d8 <__assert_func>
 8004ea6:	6046      	str	r6, [r0, #4]
 8004ea8:	6086      	str	r6, [r0, #8]
 8004eaa:	6006      	str	r6, [r0, #0]
 8004eac:	60c6      	str	r6, [r0, #12]
 8004eae:	9b03      	ldr	r3, [sp, #12]
 8004eb0:	69db      	ldr	r3, [r3, #28]
 8004eb2:	6819      	ldr	r1, [r3, #0]
 8004eb4:	2900      	cmp	r1, #0
 8004eb6:	d00b      	beq.n	8004ed0 <_dtoa_r+0x58>
 8004eb8:	685a      	ldr	r2, [r3, #4]
 8004eba:	2301      	movs	r3, #1
 8004ebc:	4093      	lsls	r3, r2
 8004ebe:	604a      	str	r2, [r1, #4]
 8004ec0:	608b      	str	r3, [r1, #8]
 8004ec2:	9803      	ldr	r0, [sp, #12]
 8004ec4:	f000 ff16 	bl	8005cf4 <_Bfree>
 8004ec8:	2200      	movs	r2, #0
 8004eca:	9b03      	ldr	r3, [sp, #12]
 8004ecc:	69db      	ldr	r3, [r3, #28]
 8004ece:	601a      	str	r2, [r3, #0]
 8004ed0:	2d00      	cmp	r5, #0
 8004ed2:	da1e      	bge.n	8004f12 <_dtoa_r+0x9a>
 8004ed4:	2301      	movs	r3, #1
 8004ed6:	603b      	str	r3, [r7, #0]
 8004ed8:	006b      	lsls	r3, r5, #1
 8004eda:	085b      	lsrs	r3, r3, #1
 8004edc:	930b      	str	r3, [sp, #44]	@ 0x2c
 8004ede:	9f0b      	ldr	r7, [sp, #44]	@ 0x2c
 8004ee0:	4bb8      	ldr	r3, [pc, #736]	@ (80051c4 <_dtoa_r+0x34c>)
 8004ee2:	4ab8      	ldr	r2, [pc, #736]	@ (80051c4 <_dtoa_r+0x34c>)
 8004ee4:	403b      	ands	r3, r7
 8004ee6:	4293      	cmp	r3, r2
 8004ee8:	d116      	bne.n	8004f18 <_dtoa_r+0xa0>
 8004eea:	4bb7      	ldr	r3, [pc, #732]	@ (80051c8 <_dtoa_r+0x350>)
 8004eec:	9a24      	ldr	r2, [sp, #144]	@ 0x90
 8004eee:	6013      	str	r3, [r2, #0]
 8004ef0:	033b      	lsls	r3, r7, #12
 8004ef2:	0b1b      	lsrs	r3, r3, #12
 8004ef4:	4323      	orrs	r3, r4
 8004ef6:	d101      	bne.n	8004efc <_dtoa_r+0x84>
 8004ef8:	f000 fd83 	bl	8005a02 <_dtoa_r+0xb8a>
 8004efc:	4bb3      	ldr	r3, [pc, #716]	@ (80051cc <_dtoa_r+0x354>)
 8004efe:	9a26      	ldr	r2, [sp, #152]	@ 0x98
 8004f00:	9308      	str	r3, [sp, #32]
 8004f02:	2a00      	cmp	r2, #0
 8004f04:	d002      	beq.n	8004f0c <_dtoa_r+0x94>
 8004f06:	4bb2      	ldr	r3, [pc, #712]	@ (80051d0 <_dtoa_r+0x358>)
 8004f08:	9a26      	ldr	r2, [sp, #152]	@ 0x98
 8004f0a:	6013      	str	r3, [r2, #0]
 8004f0c:	9808      	ldr	r0, [sp, #32]
 8004f0e:	b01d      	add	sp, #116	@ 0x74
 8004f10:	bdf0      	pop	{r4, r5, r6, r7, pc}
 8004f12:	2300      	movs	r3, #0
 8004f14:	603b      	str	r3, [r7, #0]
 8004f16:	e7e2      	b.n	8004ede <_dtoa_r+0x66>
 8004f18:	9a0a      	ldr	r2, [sp, #40]	@ 0x28
 8004f1a:	9b0b      	ldr	r3, [sp, #44]	@ 0x2c
 8004f1c:	9212      	str	r2, [sp, #72]	@ 0x48
 8004f1e:	9313      	str	r3, [sp, #76]	@ 0x4c
 8004f20:	9812      	ldr	r0, [sp, #72]	@ 0x48
 8004f22:	9913      	ldr	r1, [sp, #76]	@ 0x4c
 8004f24:	2200      	movs	r2, #0
 8004f26:	2300      	movs	r3, #0
 8004f28:	f7fb fa8e 	bl	8000448 <__aeabi_dcmpeq>
 8004f2c:	1e06      	subs	r6, r0, #0
 8004f2e:	d00b      	beq.n	8004f48 <_dtoa_r+0xd0>
 8004f30:	2301      	movs	r3, #1
 8004f32:	9a24      	ldr	r2, [sp, #144]	@ 0x90
 8004f34:	6013      	str	r3, [r2, #0]
 8004f36:	9b26      	ldr	r3, [sp, #152]	@ 0x98
 8004f38:	2b00      	cmp	r3, #0
 8004f3a:	d002      	beq.n	8004f42 <_dtoa_r+0xca>
 8004f3c:	4ba5      	ldr	r3, [pc, #660]	@ (80051d4 <_dtoa_r+0x35c>)
 8004f3e:	9a26      	ldr	r2, [sp, #152]	@ 0x98
 8004f40:	6013      	str	r3, [r2, #0]
 8004f42:	4ba5      	ldr	r3, [pc, #660]	@ (80051d8 <_dtoa_r+0x360>)
 8004f44:	9308      	str	r3, [sp, #32]
 8004f46:	e7e1      	b.n	8004f0c <_dtoa_r+0x94>
 8004f48:	ab1a      	add	r3, sp, #104	@ 0x68
 8004f4a:	9301      	str	r3, [sp, #4]
 8004f4c:	ab1b      	add	r3, sp, #108	@ 0x6c
 8004f4e:	9300      	str	r3, [sp, #0]
 8004f50:	9803      	ldr	r0, [sp, #12]
 8004f52:	9a12      	ldr	r2, [sp, #72]	@ 0x48
 8004f54:	9b13      	ldr	r3, [sp, #76]	@ 0x4c
 8004f56:	f001 fa85 	bl	8006464 <__d2b>
 8004f5a:	007a      	lsls	r2, r7, #1
 8004f5c:	9005      	str	r0, [sp, #20]
 8004f5e:	0d52      	lsrs	r2, r2, #21
 8004f60:	d100      	bne.n	8004f64 <_dtoa_r+0xec>
 8004f62:	e07b      	b.n	800505c <_dtoa_r+0x1e4>
 8004f64:	9b13      	ldr	r3, [sp, #76]	@ 0x4c
 8004f66:	9618      	str	r6, [sp, #96]	@ 0x60
 8004f68:	0319      	lsls	r1, r3, #12
 8004f6a:	4b9c      	ldr	r3, [pc, #624]	@ (80051dc <_dtoa_r+0x364>)
 8004f6c:	0b09      	lsrs	r1, r1, #12
 8004f6e:	430b      	orrs	r3, r1
 8004f70:	499b      	ldr	r1, [pc, #620]	@ (80051e0 <_dtoa_r+0x368>)
 8004f72:	1857      	adds	r7, r2, r1
 8004f74:	9812      	ldr	r0, [sp, #72]	@ 0x48
 8004f76:	9913      	ldr	r1, [sp, #76]	@ 0x4c
 8004f78:	0019      	movs	r1, r3
 8004f7a:	2200      	movs	r2, #0
 8004f7c:	4b99      	ldr	r3, [pc, #612]	@ (80051e4 <_dtoa_r+0x36c>)
 8004f7e:	f7fd f88d 	bl	800209c <__aeabi_dsub>
 8004f82:	4a99      	ldr	r2, [pc, #612]	@ (80051e8 <_dtoa_r+0x370>)
 8004f84:	4b99      	ldr	r3, [pc, #612]	@ (80051ec <_dtoa_r+0x374>)
 8004f86:	f7fc fdc1 	bl	8001b0c <__aeabi_dmul>
 8004f8a:	4a99      	ldr	r2, [pc, #612]	@ (80051f0 <_dtoa_r+0x378>)
 8004f8c:	4b99      	ldr	r3, [pc, #612]	@ (80051f4 <_dtoa_r+0x37c>)
 8004f8e:	f7fb fe15 	bl	8000bbc <__aeabi_dadd>
 8004f92:	0004      	movs	r4, r0
 8004f94:	0038      	movs	r0, r7
 8004f96:	000d      	movs	r5, r1
 8004f98:	f7fd fc7a 	bl	8002890 <__aeabi_i2d>
 8004f9c:	4a96      	ldr	r2, [pc, #600]	@ (80051f8 <_dtoa_r+0x380>)
 8004f9e:	4b97      	ldr	r3, [pc, #604]	@ (80051fc <_dtoa_r+0x384>)
 8004fa0:	f7fc fdb4 	bl	8001b0c <__aeabi_dmul>
 8004fa4:	0002      	movs	r2, r0
 8004fa6:	000b      	movs	r3, r1
 8004fa8:	0020      	movs	r0, r4
 8004faa:	0029      	movs	r1, r5
 8004fac:	f7fb fe06 	bl	8000bbc <__aeabi_dadd>
 8004fb0:	0004      	movs	r4, r0
 8004fb2:	000d      	movs	r5, r1
 8004fb4:	f7fd fc30 	bl	8002818 <__aeabi_d2iz>
 8004fb8:	2200      	movs	r2, #0
 8004fba:	9004      	str	r0, [sp, #16]
 8004fbc:	2300      	movs	r3, #0
 8004fbe:	0020      	movs	r0, r4
 8004fc0:	0029      	movs	r1, r5
 8004fc2:	f7fb fa47 	bl	8000454 <__aeabi_dcmplt>
 8004fc6:	2800      	cmp	r0, #0
 8004fc8:	d00b      	beq.n	8004fe2 <_dtoa_r+0x16a>
 8004fca:	9804      	ldr	r0, [sp, #16]
 8004fcc:	f7fd fc60 	bl	8002890 <__aeabi_i2d>
 8004fd0:	002b      	movs	r3, r5
 8004fd2:	0022      	movs	r2, r4
 8004fd4:	f7fb fa38 	bl	8000448 <__aeabi_dcmpeq>
 8004fd8:	4243      	negs	r3, r0
 8004fda:	4158      	adcs	r0, r3
 8004fdc:	9b04      	ldr	r3, [sp, #16]
 8004fde:	1a1b      	subs	r3, r3, r0
 8004fe0:	9304      	str	r3, [sp, #16]
 8004fe2:	2301      	movs	r3, #1
 8004fe4:	9315      	str	r3, [sp, #84]	@ 0x54
 8004fe6:	9b04      	ldr	r3, [sp, #16]
 8004fe8:	2b16      	cmp	r3, #22
 8004fea:	d810      	bhi.n	800500e <_dtoa_r+0x196>
 8004fec:	9812      	ldr	r0, [sp, #72]	@ 0x48
 8004fee:	9913      	ldr	r1, [sp, #76]	@ 0x4c
 8004ff0:	9a04      	ldr	r2, [sp, #16]
 8004ff2:	4b83      	ldr	r3, [pc, #524]	@ (8005200 <_dtoa_r+0x388>)
 8004ff4:	00d2      	lsls	r2, r2, #3
 8004ff6:	189b      	adds	r3, r3, r2
 8004ff8:	681a      	ldr	r2, [r3, #0]
 8004ffa:	685b      	ldr	r3, [r3, #4]
 8004ffc:	f7fb fa2a 	bl	8000454 <__aeabi_dcmplt>
 8005000:	2800      	cmp	r0, #0
 8005002:	d047      	beq.n	8005094 <_dtoa_r+0x21c>
 8005004:	9b04      	ldr	r3, [sp, #16]
 8005006:	3b01      	subs	r3, #1
 8005008:	9304      	str	r3, [sp, #16]
 800500a:	2300      	movs	r3, #0
 800500c:	9315      	str	r3, [sp, #84]	@ 0x54
 800500e:	2200      	movs	r2, #0
 8005010:	9b1a      	ldr	r3, [sp, #104]	@ 0x68
 8005012:	9206      	str	r2, [sp, #24]
 8005014:	1bdb      	subs	r3, r3, r7
 8005016:	1e5a      	subs	r2, r3, #1
 8005018:	d53e      	bpl.n	8005098 <_dtoa_r+0x220>
 800501a:	2201      	movs	r2, #1
 800501c:	1ad3      	subs	r3, r2, r3
 800501e:	9306      	str	r3, [sp, #24]
 8005020:	2300      	movs	r3, #0
 8005022:	930d      	str	r3, [sp, #52]	@ 0x34
 8005024:	9b04      	ldr	r3, [sp, #16]
 8005026:	2b00      	cmp	r3, #0
 8005028:	db38      	blt.n	800509c <_dtoa_r+0x224>
 800502a:	9a04      	ldr	r2, [sp, #16]
 800502c:	9b0d      	ldr	r3, [sp, #52]	@ 0x34
 800502e:	4694      	mov	ip, r2
 8005030:	4463      	add	r3, ip
 8005032:	930d      	str	r3, [sp, #52]	@ 0x34
 8005034:	2300      	movs	r3, #0
 8005036:	9214      	str	r2, [sp, #80]	@ 0x50
 8005038:	930f      	str	r3, [sp, #60]	@ 0x3c
 800503a:	9b22      	ldr	r3, [sp, #136]	@ 0x88
 800503c:	2401      	movs	r4, #1
 800503e:	2b09      	cmp	r3, #9
 8005040:	d867      	bhi.n	8005112 <_dtoa_r+0x29a>
 8005042:	2b05      	cmp	r3, #5
 8005044:	dd02      	ble.n	800504c <_dtoa_r+0x1d4>
 8005046:	2400      	movs	r4, #0
 8005048:	3b04      	subs	r3, #4
 800504a:	9322      	str	r3, [sp, #136]	@ 0x88
 800504c:	9b22      	ldr	r3, [sp, #136]	@ 0x88
 800504e:	1e98      	subs	r0, r3, #2
 8005050:	2803      	cmp	r0, #3
 8005052:	d867      	bhi.n	8005124 <_dtoa_r+0x2ac>
 8005054:	f7fb f85e 	bl	8000114 <__gnu_thumb1_case_uqi>
 8005058:	5b383a2b 	.word	0x5b383a2b
 800505c:	9b1b      	ldr	r3, [sp, #108]	@ 0x6c
 800505e:	9e1a      	ldr	r6, [sp, #104]	@ 0x68
 8005060:	18f6      	adds	r6, r6, r3
 8005062:	4b68      	ldr	r3, [pc, #416]	@ (8005204 <_dtoa_r+0x38c>)
 8005064:	18f2      	adds	r2, r6, r3
 8005066:	2a20      	cmp	r2, #32
 8005068:	dd0f      	ble.n	800508a <_dtoa_r+0x212>
 800506a:	2340      	movs	r3, #64	@ 0x40
 800506c:	1a9b      	subs	r3, r3, r2
 800506e:	409f      	lsls	r7, r3
 8005070:	4b65      	ldr	r3, [pc, #404]	@ (8005208 <_dtoa_r+0x390>)
 8005072:	0038      	movs	r0, r7
 8005074:	18f3      	adds	r3, r6, r3
 8005076:	40dc      	lsrs	r4, r3
 8005078:	4320      	orrs	r0, r4
 800507a:	f7fd fc37 	bl	80028ec <__aeabi_ui2d>
 800507e:	2201      	movs	r2, #1
 8005080:	4b62      	ldr	r3, [pc, #392]	@ (800520c <_dtoa_r+0x394>)
 8005082:	1e77      	subs	r7, r6, #1
 8005084:	18cb      	adds	r3, r1, r3
 8005086:	9218      	str	r2, [sp, #96]	@ 0x60
 8005088:	e776      	b.n	8004f78 <_dtoa_r+0x100>
 800508a:	2320      	movs	r3, #32
 800508c:	0020      	movs	r0, r4
 800508e:	1a9b      	subs	r3, r3, r2
 8005090:	4098      	lsls	r0, r3
 8005092:	e7f2      	b.n	800507a <_dtoa_r+0x202>
 8005094:	9015      	str	r0, [sp, #84]	@ 0x54
 8005096:	e7ba      	b.n	800500e <_dtoa_r+0x196>
 8005098:	920d      	str	r2, [sp, #52]	@ 0x34
 800509a:	e7c3      	b.n	8005024 <_dtoa_r+0x1ac>
 800509c:	9b06      	ldr	r3, [sp, #24]
 800509e:	9a04      	ldr	r2, [sp, #16]
 80050a0:	1a9b      	subs	r3, r3, r2
 80050a2:	9306      	str	r3, [sp, #24]
 80050a4:	4253      	negs	r3, r2
 80050a6:	930f      	str	r3, [sp, #60]	@ 0x3c
 80050a8:	2300      	movs	r3, #0
 80050aa:	9314      	str	r3, [sp, #80]	@ 0x50
 80050ac:	e7c5      	b.n	800503a <_dtoa_r+0x1c2>
 80050ae:	2300      	movs	r3, #0
 80050b0:	9310      	str	r3, [sp, #64]	@ 0x40
 80050b2:	9b23      	ldr	r3, [sp, #140]	@ 0x8c
 80050b4:	930e      	str	r3, [sp, #56]	@ 0x38
 80050b6:	9309      	str	r3, [sp, #36]	@ 0x24
 80050b8:	2b00      	cmp	r3, #0
 80050ba:	dc13      	bgt.n	80050e4 <_dtoa_r+0x26c>
 80050bc:	2301      	movs	r3, #1
 80050be:	001a      	movs	r2, r3
 80050c0:	930e      	str	r3, [sp, #56]	@ 0x38
 80050c2:	9309      	str	r3, [sp, #36]	@ 0x24
 80050c4:	9223      	str	r2, [sp, #140]	@ 0x8c
 80050c6:	e00d      	b.n	80050e4 <_dtoa_r+0x26c>
 80050c8:	2301      	movs	r3, #1
 80050ca:	e7f1      	b.n	80050b0 <_dtoa_r+0x238>
 80050cc:	2300      	movs	r3, #0
 80050ce:	9a23      	ldr	r2, [sp, #140]	@ 0x8c
 80050d0:	9310      	str	r3, [sp, #64]	@ 0x40
 80050d2:	4694      	mov	ip, r2
 80050d4:	9b04      	ldr	r3, [sp, #16]
 80050d6:	4463      	add	r3, ip
 80050d8:	930e      	str	r3, [sp, #56]	@ 0x38
 80050da:	3301      	adds	r3, #1
 80050dc:	9309      	str	r3, [sp, #36]	@ 0x24
 80050de:	2b00      	cmp	r3, #0
 80050e0:	dc00      	bgt.n	80050e4 <_dtoa_r+0x26c>
 80050e2:	2301      	movs	r3, #1
 80050e4:	9a03      	ldr	r2, [sp, #12]
 80050e6:	2100      	movs	r1, #0
 80050e8:	69d0      	ldr	r0, [r2, #28]
 80050ea:	2204      	movs	r2, #4
 80050ec:	0015      	movs	r5, r2
 80050ee:	3514      	adds	r5, #20
 80050f0:	429d      	cmp	r5, r3
 80050f2:	d91b      	bls.n	800512c <_dtoa_r+0x2b4>
 80050f4:	6041      	str	r1, [r0, #4]
 80050f6:	9803      	ldr	r0, [sp, #12]
 80050f8:	f000 fdb8 	bl	8005c6c <_Balloc>
 80050fc:	9008      	str	r0, [sp, #32]
 80050fe:	2800      	cmp	r0, #0
 8005100:	d117      	bne.n	8005132 <_dtoa_r+0x2ba>
 8005102:	21b0      	movs	r1, #176	@ 0xb0
 8005104:	4b42      	ldr	r3, [pc, #264]	@ (8005210 <_dtoa_r+0x398>)
 8005106:	482e      	ldr	r0, [pc, #184]	@ (80051c0 <_dtoa_r+0x348>)
 8005108:	9a08      	ldr	r2, [sp, #32]
 800510a:	31ff      	adds	r1, #255	@ 0xff
 800510c:	e6c9      	b.n	8004ea2 <_dtoa_r+0x2a>
 800510e:	2301      	movs	r3, #1
 8005110:	e7dd      	b.n	80050ce <_dtoa_r+0x256>
 8005112:	2300      	movs	r3, #0
 8005114:	9410      	str	r4, [sp, #64]	@ 0x40
 8005116:	9322      	str	r3, [sp, #136]	@ 0x88
 8005118:	3b01      	subs	r3, #1
 800511a:	930e      	str	r3, [sp, #56]	@ 0x38
 800511c:	9309      	str	r3, [sp, #36]	@ 0x24
 800511e:	2200      	movs	r2, #0
 8005120:	3313      	adds	r3, #19
 8005122:	e7cf      	b.n	80050c4 <_dtoa_r+0x24c>
 8005124:	2301      	movs	r3, #1
 8005126:	9310      	str	r3, [sp, #64]	@ 0x40
 8005128:	3b02      	subs	r3, #2
 800512a:	e7f6      	b.n	800511a <_dtoa_r+0x2a2>
 800512c:	3101      	adds	r1, #1
 800512e:	0052      	lsls	r2, r2, #1
 8005130:	e7dc      	b.n	80050ec <_dtoa_r+0x274>
 8005132:	9b03      	ldr	r3, [sp, #12]
 8005134:	9a08      	ldr	r2, [sp, #32]
 8005136:	69db      	ldr	r3, [r3, #28]
 8005138:	601a      	str	r2, [r3, #0]
 800513a:	9b09      	ldr	r3, [sp, #36]	@ 0x24
 800513c:	2b0e      	cmp	r3, #14
 800513e:	d900      	bls.n	8005142 <_dtoa_r+0x2ca>
 8005140:	e0d9      	b.n	80052f6 <_dtoa_r+0x47e>
 8005142:	2c00      	cmp	r4, #0
 8005144:	d100      	bne.n	8005148 <_dtoa_r+0x2d0>
 8005146:	e0d6      	b.n	80052f6 <_dtoa_r+0x47e>
 8005148:	9b04      	ldr	r3, [sp, #16]
 800514a:	2b00      	cmp	r3, #0
 800514c:	dd64      	ble.n	8005218 <_dtoa_r+0x3a0>
 800514e:	210f      	movs	r1, #15
 8005150:	9a04      	ldr	r2, [sp, #16]
 8005152:	4b2b      	ldr	r3, [pc, #172]	@ (8005200 <_dtoa_r+0x388>)
 8005154:	400a      	ands	r2, r1
 8005156:	00d2      	lsls	r2, r2, #3
 8005158:	189b      	adds	r3, r3, r2
 800515a:	681e      	ldr	r6, [r3, #0]
 800515c:	685f      	ldr	r7, [r3, #4]
 800515e:	9b04      	ldr	r3, [sp, #16]
 8005160:	2402      	movs	r4, #2
 8005162:	111d      	asrs	r5, r3, #4
 8005164:	05db      	lsls	r3, r3, #23
 8005166:	d50a      	bpl.n	800517e <_dtoa_r+0x306>
 8005168:	4b2a      	ldr	r3, [pc, #168]	@ (8005214 <_dtoa_r+0x39c>)
 800516a:	400d      	ands	r5, r1
 800516c:	6a1a      	ldr	r2, [r3, #32]
 800516e:	6a5b      	ldr	r3, [r3, #36]	@ 0x24
 8005170:	9812      	ldr	r0, [sp, #72]	@ 0x48
 8005172:	9913      	ldr	r1, [sp, #76]	@ 0x4c
 8005174:	f7fc f886 	bl	8001284 <__aeabi_ddiv>
 8005178:	900a      	str	r0, [sp, #40]	@ 0x28
 800517a:	910b      	str	r1, [sp, #44]	@ 0x2c
 800517c:	3401      	adds	r4, #1
 800517e:	4b25      	ldr	r3, [pc, #148]	@ (8005214 <_dtoa_r+0x39c>)
 8005180:	930c      	str	r3, [sp, #48]	@ 0x30
 8005182:	2d00      	cmp	r5, #0
 8005184:	d108      	bne.n	8005198 <_dtoa_r+0x320>
 8005186:	980a      	ldr	r0, [sp, #40]	@ 0x28
 8005188:	990b      	ldr	r1, [sp, #44]	@ 0x2c
 800518a:	0032      	movs	r2, r6
 800518c:	003b      	movs	r3, r7
 800518e:	f7fc f879 	bl	8001284 <__aeabi_ddiv>
 8005192:	900a      	str	r0, [sp, #40]	@ 0x28
 8005194:	910b      	str	r1, [sp, #44]	@ 0x2c
 8005196:	e05a      	b.n	800524e <_dtoa_r+0x3d6>
 8005198:	2301      	movs	r3, #1
 800519a:	421d      	tst	r5, r3
 800519c:	d009      	beq.n	80051b2 <_dtoa_r+0x33a>
 800519e:	18e4      	adds	r4, r4, r3
 80051a0:	9b0c      	ldr	r3, [sp, #48]	@ 0x30
 80051a2:	0030      	movs	r0, r6
 80051a4:	681a      	ldr	r2, [r3, #0]
 80051a6:	685b      	ldr	r3, [r3, #4]
 80051a8:	0039      	movs	r1, r7
 80051aa:	f7fc fcaf 	bl	8001b0c <__aeabi_dmul>
 80051ae:	0006      	movs	r6, r0
 80051b0:	000f      	movs	r7, r1
 80051b2:	9b0c      	ldr	r3, [sp, #48]	@ 0x30
 80051b4:	106d      	asrs	r5, r5, #1
 80051b6:	3308      	adds	r3, #8
 80051b8:	e7e2      	b.n	8005180 <_dtoa_r+0x308>
 80051ba:	46c0      	nop			@ (mov r8, r8)
 80051bc:	0800865a 	.word	0x0800865a
 80051c0:	08008671 	.word	0x08008671
 80051c4:	7ff00000 	.word	0x7ff00000
 80051c8:	0000270f 	.word	0x0000270f
 80051cc:	08008656 	.word	0x08008656
 80051d0:	08008659 	.word	0x08008659
 80051d4:	08008625 	.word	0x08008625
 80051d8:	08008624 	.word	0x08008624
 80051dc:	3ff00000 	.word	0x3ff00000
 80051e0:	fffffc01 	.word	0xfffffc01
 80051e4:	3ff80000 	.word	0x3ff80000
 80051e8:	636f4361 	.word	0x636f4361
 80051ec:	3fd287a7 	.word	0x3fd287a7
 80051f0:	8b60c8b3 	.word	0x8b60c8b3
 80051f4:	3fc68a28 	.word	0x3fc68a28
 80051f8:	509f79fb 	.word	0x509f79fb
 80051fc:	3fd34413 	.word	0x3fd34413
 8005200:	08008768 	.word	0x08008768
 8005204:	00000432 	.word	0x00000432
 8005208:	00000412 	.word	0x00000412
 800520c:	fe100000 	.word	0xfe100000
 8005210:	080086c9 	.word	0x080086c9
 8005214:	08008740 	.word	0x08008740
 8005218:	9b04      	ldr	r3, [sp, #16]
 800521a:	2402      	movs	r4, #2
 800521c:	2b00      	cmp	r3, #0
 800521e:	d016      	beq.n	800524e <_dtoa_r+0x3d6>
 8005220:	9812      	ldr	r0, [sp, #72]	@ 0x48
 8005222:	9913      	ldr	r1, [sp, #76]	@ 0x4c
 8005224:	220f      	movs	r2, #15
 8005226:	425d      	negs	r5, r3
 8005228:	402a      	ands	r2, r5
 800522a:	4bd7      	ldr	r3, [pc, #860]	@ (8005588 <_dtoa_r+0x710>)
 800522c:	00d2      	lsls	r2, r2, #3
 800522e:	189b      	adds	r3, r3, r2
 8005230:	681a      	ldr	r2, [r3, #0]
 8005232:	685b      	ldr	r3, [r3, #4]
 8005234:	f7fc fc6a 	bl	8001b0c <__aeabi_dmul>
 8005238:	2701      	movs	r7, #1
 800523a:	2300      	movs	r3, #0
 800523c:	900a      	str	r0, [sp, #40]	@ 0x28
 800523e:	910b      	str	r1, [sp, #44]	@ 0x2c
 8005240:	4ed2      	ldr	r6, [pc, #840]	@ (800558c <_dtoa_r+0x714>)
 8005242:	112d      	asrs	r5, r5, #4
 8005244:	2d00      	cmp	r5, #0
 8005246:	d000      	beq.n	800524a <_dtoa_r+0x3d2>
 8005248:	e0ba      	b.n	80053c0 <_dtoa_r+0x548>
 800524a:	2b00      	cmp	r3, #0
 800524c:	d1a1      	bne.n	8005192 <_dtoa_r+0x31a>
 800524e:	9e0a      	ldr	r6, [sp, #40]	@ 0x28
 8005250:	9f0b      	ldr	r7, [sp, #44]	@ 0x2c
 8005252:	9b15      	ldr	r3, [sp, #84]	@ 0x54
 8005254:	2b00      	cmp	r3, #0
 8005256:	d100      	bne.n	800525a <_dtoa_r+0x3e2>
 8005258:	e0bd      	b.n	80053d6 <_dtoa_r+0x55e>
 800525a:	2200      	movs	r2, #0
 800525c:	0030      	movs	r0, r6
 800525e:	0039      	movs	r1, r7
 8005260:	4bcb      	ldr	r3, [pc, #812]	@ (8005590 <_dtoa_r+0x718>)
 8005262:	f7fb f8f7 	bl	8000454 <__aeabi_dcmplt>
 8005266:	2800      	cmp	r0, #0
 8005268:	d100      	bne.n	800526c <_dtoa_r+0x3f4>
 800526a:	e0b4      	b.n	80053d6 <_dtoa_r+0x55e>
 800526c:	9b09      	ldr	r3, [sp, #36]	@ 0x24
 800526e:	2b00      	cmp	r3, #0
 8005270:	d100      	bne.n	8005274 <_dtoa_r+0x3fc>
 8005272:	e0b0      	b.n	80053d6 <_dtoa_r+0x55e>
 8005274:	9b0e      	ldr	r3, [sp, #56]	@ 0x38
 8005276:	2b00      	cmp	r3, #0
 8005278:	dd39      	ble.n	80052ee <_dtoa_r+0x476>
 800527a:	9b04      	ldr	r3, [sp, #16]
 800527c:	2200      	movs	r2, #0
 800527e:	3b01      	subs	r3, #1
 8005280:	930c      	str	r3, [sp, #48]	@ 0x30
 8005282:	0030      	movs	r0, r6
 8005284:	4bc3      	ldr	r3, [pc, #780]	@ (8005594 <_dtoa_r+0x71c>)
 8005286:	0039      	movs	r1, r7
 8005288:	f7fc fc40 	bl	8001b0c <__aeabi_dmul>
 800528c:	900a      	str	r0, [sp, #40]	@ 0x28
 800528e:	910b      	str	r1, [sp, #44]	@ 0x2c
 8005290:	9b0e      	ldr	r3, [sp, #56]	@ 0x38
 8005292:	3401      	adds	r4, #1
 8005294:	0020      	movs	r0, r4
 8005296:	9311      	str	r3, [sp, #68]	@ 0x44
 8005298:	f7fd fafa 	bl	8002890 <__aeabi_i2d>
 800529c:	9a0a      	ldr	r2, [sp, #40]	@ 0x28
 800529e:	9b0b      	ldr	r3, [sp, #44]	@ 0x2c
 80052a0:	f7fc fc34 	bl	8001b0c <__aeabi_dmul>
 80052a4:	4bbc      	ldr	r3, [pc, #752]	@ (8005598 <_dtoa_r+0x720>)
 80052a6:	2200      	movs	r2, #0
 80052a8:	f7fb fc88 	bl	8000bbc <__aeabi_dadd>
 80052ac:	4bbb      	ldr	r3, [pc, #748]	@ (800559c <_dtoa_r+0x724>)
 80052ae:	0006      	movs	r6, r0
 80052b0:	18cf      	adds	r7, r1, r3
 80052b2:	9b11      	ldr	r3, [sp, #68]	@ 0x44
 80052b4:	2b00      	cmp	r3, #0
 80052b6:	d000      	beq.n	80052ba <_dtoa_r+0x442>
 80052b8:	e091      	b.n	80053de <_dtoa_r+0x566>
 80052ba:	980a      	ldr	r0, [sp, #40]	@ 0x28
 80052bc:	990b      	ldr	r1, [sp, #44]	@ 0x2c
 80052be:	2200      	movs	r2, #0
 80052c0:	4bb7      	ldr	r3, [pc, #732]	@ (80055a0 <_dtoa_r+0x728>)
 80052c2:	f7fc feeb 	bl	800209c <__aeabi_dsub>
 80052c6:	0032      	movs	r2, r6
 80052c8:	003b      	movs	r3, r7
 80052ca:	0004      	movs	r4, r0
 80052cc:	000d      	movs	r5, r1
 80052ce:	f7fb f8d5 	bl	800047c <__aeabi_dcmpgt>
 80052d2:	2800      	cmp	r0, #0
 80052d4:	d000      	beq.n	80052d8 <_dtoa_r+0x460>
 80052d6:	e29d      	b.n	8005814 <_dtoa_r+0x99c>
 80052d8:	2180      	movs	r1, #128	@ 0x80
 80052da:	0609      	lsls	r1, r1, #24
 80052dc:	187b      	adds	r3, r7, r1
 80052de:	0032      	movs	r2, r6
 80052e0:	0020      	movs	r0, r4
 80052e2:	0029      	movs	r1, r5
 80052e4:	f7fb f8b6 	bl	8000454 <__aeabi_dcmplt>
 80052e8:	2800      	cmp	r0, #0
 80052ea:	d000      	beq.n	80052ee <_dtoa_r+0x476>
 80052ec:	e130      	b.n	8005550 <_dtoa_r+0x6d8>
 80052ee:	9b12      	ldr	r3, [sp, #72]	@ 0x48
 80052f0:	9c13      	ldr	r4, [sp, #76]	@ 0x4c
 80052f2:	930a      	str	r3, [sp, #40]	@ 0x28
 80052f4:	940b      	str	r4, [sp, #44]	@ 0x2c
 80052f6:	9b1b      	ldr	r3, [sp, #108]	@ 0x6c
 80052f8:	2b00      	cmp	r3, #0
 80052fa:	da00      	bge.n	80052fe <_dtoa_r+0x486>
 80052fc:	e177      	b.n	80055ee <_dtoa_r+0x776>
 80052fe:	9a04      	ldr	r2, [sp, #16]
 8005300:	2a0e      	cmp	r2, #14
 8005302:	dd00      	ble.n	8005306 <_dtoa_r+0x48e>
 8005304:	e173      	b.n	80055ee <_dtoa_r+0x776>
 8005306:	4ba0      	ldr	r3, [pc, #640]	@ (8005588 <_dtoa_r+0x710>)
 8005308:	00d2      	lsls	r2, r2, #3
 800530a:	189b      	adds	r3, r3, r2
 800530c:	685c      	ldr	r4, [r3, #4]
 800530e:	681b      	ldr	r3, [r3, #0]
 8005310:	9306      	str	r3, [sp, #24]
 8005312:	9407      	str	r4, [sp, #28]
 8005314:	9b23      	ldr	r3, [sp, #140]	@ 0x8c
 8005316:	2b00      	cmp	r3, #0
 8005318:	da03      	bge.n	8005322 <_dtoa_r+0x4aa>
 800531a:	9b09      	ldr	r3, [sp, #36]	@ 0x24
 800531c:	2b00      	cmp	r3, #0
 800531e:	dc00      	bgt.n	8005322 <_dtoa_r+0x4aa>
 8005320:	e106      	b.n	8005530 <_dtoa_r+0x6b8>
 8005322:	9e0a      	ldr	r6, [sp, #40]	@ 0x28
 8005324:	9f0b      	ldr	r7, [sp, #44]	@ 0x2c
 8005326:	9b09      	ldr	r3, [sp, #36]	@ 0x24
 8005328:	9d08      	ldr	r5, [sp, #32]
 800532a:	3b01      	subs	r3, #1
 800532c:	195b      	adds	r3, r3, r5
 800532e:	930a      	str	r3, [sp, #40]	@ 0x28
 8005330:	9a06      	ldr	r2, [sp, #24]
 8005332:	9b07      	ldr	r3, [sp, #28]
 8005334:	0030      	movs	r0, r6
 8005336:	0039      	movs	r1, r7
 8005338:	f7fb ffa4 	bl	8001284 <__aeabi_ddiv>
 800533c:	f7fd fa6c 	bl	8002818 <__aeabi_d2iz>
 8005340:	9009      	str	r0, [sp, #36]	@ 0x24
 8005342:	f7fd faa5 	bl	8002890 <__aeabi_i2d>
 8005346:	9a06      	ldr	r2, [sp, #24]
 8005348:	9b07      	ldr	r3, [sp, #28]
 800534a:	f7fc fbdf 	bl	8001b0c <__aeabi_dmul>
 800534e:	0002      	movs	r2, r0
 8005350:	000b      	movs	r3, r1
 8005352:	0030      	movs	r0, r6
 8005354:	0039      	movs	r1, r7
 8005356:	f7fc fea1 	bl	800209c <__aeabi_dsub>
 800535a:	002b      	movs	r3, r5
 800535c:	9a09      	ldr	r2, [sp, #36]	@ 0x24
 800535e:	3501      	adds	r5, #1
 8005360:	3230      	adds	r2, #48	@ 0x30
 8005362:	701a      	strb	r2, [r3, #0]
 8005364:	9a0a      	ldr	r2, [sp, #40]	@ 0x28
 8005366:	002c      	movs	r4, r5
 8005368:	429a      	cmp	r2, r3
 800536a:	d000      	beq.n	800536e <_dtoa_r+0x4f6>
 800536c:	e131      	b.n	80055d2 <_dtoa_r+0x75a>
 800536e:	0002      	movs	r2, r0
 8005370:	000b      	movs	r3, r1
 8005372:	f7fb fc23 	bl	8000bbc <__aeabi_dadd>
 8005376:	9a06      	ldr	r2, [sp, #24]
 8005378:	9b07      	ldr	r3, [sp, #28]
 800537a:	0006      	movs	r6, r0
 800537c:	000f      	movs	r7, r1
 800537e:	f7fb f87d 	bl	800047c <__aeabi_dcmpgt>
 8005382:	2800      	cmp	r0, #0
 8005384:	d000      	beq.n	8005388 <_dtoa_r+0x510>
 8005386:	e10f      	b.n	80055a8 <_dtoa_r+0x730>
 8005388:	9a06      	ldr	r2, [sp, #24]
 800538a:	9b07      	ldr	r3, [sp, #28]
 800538c:	0030      	movs	r0, r6
 800538e:	0039      	movs	r1, r7
 8005390:	f7fb f85a 	bl	8000448 <__aeabi_dcmpeq>
 8005394:	2800      	cmp	r0, #0
 8005396:	d003      	beq.n	80053a0 <_dtoa_r+0x528>
 8005398:	9b09      	ldr	r3, [sp, #36]	@ 0x24
 800539a:	07dd      	lsls	r5, r3, #31
 800539c:	d500      	bpl.n	80053a0 <_dtoa_r+0x528>
 800539e:	e103      	b.n	80055a8 <_dtoa_r+0x730>
 80053a0:	9905      	ldr	r1, [sp, #20]
 80053a2:	9803      	ldr	r0, [sp, #12]
 80053a4:	f000 fca6 	bl	8005cf4 <_Bfree>
 80053a8:	2300      	movs	r3, #0
 80053aa:	7023      	strb	r3, [r4, #0]
 80053ac:	9b04      	ldr	r3, [sp, #16]
 80053ae:	9a24      	ldr	r2, [sp, #144]	@ 0x90
 80053b0:	3301      	adds	r3, #1
 80053b2:	6013      	str	r3, [r2, #0]
 80053b4:	9b26      	ldr	r3, [sp, #152]	@ 0x98
 80053b6:	2b00      	cmp	r3, #0
 80053b8:	d100      	bne.n	80053bc <_dtoa_r+0x544>
 80053ba:	e5a7      	b.n	8004f0c <_dtoa_r+0x94>
 80053bc:	601c      	str	r4, [r3, #0]
 80053be:	e5a5      	b.n	8004f0c <_dtoa_r+0x94>
 80053c0:	423d      	tst	r5, r7
 80053c2:	d005      	beq.n	80053d0 <_dtoa_r+0x558>
 80053c4:	6832      	ldr	r2, [r6, #0]
 80053c6:	6873      	ldr	r3, [r6, #4]
 80053c8:	f7fc fba0 	bl	8001b0c <__aeabi_dmul>
 80053cc:	003b      	movs	r3, r7
 80053ce:	3401      	adds	r4, #1
 80053d0:	106d      	asrs	r5, r5, #1
 80053d2:	3608      	adds	r6, #8
 80053d4:	e736      	b.n	8005244 <_dtoa_r+0x3cc>
 80053d6:	9b04      	ldr	r3, [sp, #16]
 80053d8:	930c      	str	r3, [sp, #48]	@ 0x30
 80053da:	9b09      	ldr	r3, [sp, #36]	@ 0x24
 80053dc:	e75a      	b.n	8005294 <_dtoa_r+0x41c>
 80053de:	9a11      	ldr	r2, [sp, #68]	@ 0x44
 80053e0:	4b69      	ldr	r3, [pc, #420]	@ (8005588 <_dtoa_r+0x710>)
 80053e2:	3a01      	subs	r2, #1
 80053e4:	00d2      	lsls	r2, r2, #3
 80053e6:	9910      	ldr	r1, [sp, #64]	@ 0x40
 80053e8:	189b      	adds	r3, r3, r2
 80053ea:	681a      	ldr	r2, [r3, #0]
 80053ec:	685b      	ldr	r3, [r3, #4]
 80053ee:	2900      	cmp	r1, #0
 80053f0:	d04c      	beq.n	800548c <_dtoa_r+0x614>
 80053f2:	2000      	movs	r0, #0
 80053f4:	496b      	ldr	r1, [pc, #428]	@ (80055a4 <_dtoa_r+0x72c>)
 80053f6:	f7fb ff45 	bl	8001284 <__aeabi_ddiv>
 80053fa:	0032      	movs	r2, r6
 80053fc:	003b      	movs	r3, r7
 80053fe:	f7fc fe4d 	bl	800209c <__aeabi_dsub>
 8005402:	9a08      	ldr	r2, [sp, #32]
 8005404:	0006      	movs	r6, r0
 8005406:	4694      	mov	ip, r2
 8005408:	000f      	movs	r7, r1
 800540a:	9b08      	ldr	r3, [sp, #32]
 800540c:	9316      	str	r3, [sp, #88]	@ 0x58
 800540e:	9b11      	ldr	r3, [sp, #68]	@ 0x44
 8005410:	4463      	add	r3, ip
 8005412:	9311      	str	r3, [sp, #68]	@ 0x44
 8005414:	980a      	ldr	r0, [sp, #40]	@ 0x28
 8005416:	990b      	ldr	r1, [sp, #44]	@ 0x2c
 8005418:	f7fd f9fe 	bl	8002818 <__aeabi_d2iz>
 800541c:	0005      	movs	r5, r0
 800541e:	f7fd fa37 	bl	8002890 <__aeabi_i2d>
 8005422:	0002      	movs	r2, r0
 8005424:	000b      	movs	r3, r1
 8005426:	980a      	ldr	r0, [sp, #40]	@ 0x28
 8005428:	990b      	ldr	r1, [sp, #44]	@ 0x2c
 800542a:	f7fc fe37 	bl	800209c <__aeabi_dsub>
 800542e:	9b16      	ldr	r3, [sp, #88]	@ 0x58
 8005430:	3530      	adds	r5, #48	@ 0x30
 8005432:	1c5c      	adds	r4, r3, #1
 8005434:	701d      	strb	r5, [r3, #0]
 8005436:	0032      	movs	r2, r6
 8005438:	003b      	movs	r3, r7
 800543a:	900a      	str	r0, [sp, #40]	@ 0x28
 800543c:	910b      	str	r1, [sp, #44]	@ 0x2c
 800543e:	f7fb f809 	bl	8000454 <__aeabi_dcmplt>
 8005442:	2800      	cmp	r0, #0
 8005444:	d16a      	bne.n	800551c <_dtoa_r+0x6a4>
 8005446:	9a0a      	ldr	r2, [sp, #40]	@ 0x28
 8005448:	9b0b      	ldr	r3, [sp, #44]	@ 0x2c
 800544a:	2000      	movs	r0, #0
 800544c:	4950      	ldr	r1, [pc, #320]	@ (8005590 <_dtoa_r+0x718>)
 800544e:	f7fc fe25 	bl	800209c <__aeabi_dsub>
 8005452:	0032      	movs	r2, r6
 8005454:	003b      	movs	r3, r7
 8005456:	f7fa fffd 	bl	8000454 <__aeabi_dcmplt>
 800545a:	2800      	cmp	r0, #0
 800545c:	d000      	beq.n	8005460 <_dtoa_r+0x5e8>
 800545e:	e0a5      	b.n	80055ac <_dtoa_r+0x734>
 8005460:	9b11      	ldr	r3, [sp, #68]	@ 0x44
 8005462:	42a3      	cmp	r3, r4
 8005464:	d100      	bne.n	8005468 <_dtoa_r+0x5f0>
 8005466:	e742      	b.n	80052ee <_dtoa_r+0x476>
 8005468:	2200      	movs	r2, #0
 800546a:	0030      	movs	r0, r6
 800546c:	0039      	movs	r1, r7
 800546e:	4b49      	ldr	r3, [pc, #292]	@ (8005594 <_dtoa_r+0x71c>)
 8005470:	f7fc fb4c 	bl	8001b0c <__aeabi_dmul>
 8005474:	2200      	movs	r2, #0
 8005476:	0006      	movs	r6, r0
 8005478:	000f      	movs	r7, r1
 800547a:	980a      	ldr	r0, [sp, #40]	@ 0x28
 800547c:	990b      	ldr	r1, [sp, #44]	@ 0x2c
 800547e:	4b45      	ldr	r3, [pc, #276]	@ (8005594 <_dtoa_r+0x71c>)
 8005480:	f7fc fb44 	bl	8001b0c <__aeabi_dmul>
 8005484:	9416      	str	r4, [sp, #88]	@ 0x58
 8005486:	900a      	str	r0, [sp, #40]	@ 0x28
 8005488:	910b      	str	r1, [sp, #44]	@ 0x2c
 800548a:	e7c3      	b.n	8005414 <_dtoa_r+0x59c>
 800548c:	0030      	movs	r0, r6
 800548e:	0039      	movs	r1, r7
 8005490:	f7fc fb3c 	bl	8001b0c <__aeabi_dmul>
 8005494:	9d08      	ldr	r5, [sp, #32]
 8005496:	9a11      	ldr	r2, [sp, #68]	@ 0x44
 8005498:	002b      	movs	r3, r5
 800549a:	4694      	mov	ip, r2
 800549c:	9016      	str	r0, [sp, #88]	@ 0x58
 800549e:	9117      	str	r1, [sp, #92]	@ 0x5c
 80054a0:	4463      	add	r3, ip
 80054a2:	9319      	str	r3, [sp, #100]	@ 0x64
 80054a4:	980a      	ldr	r0, [sp, #40]	@ 0x28
 80054a6:	990b      	ldr	r1, [sp, #44]	@ 0x2c
 80054a8:	f7fd f9b6 	bl	8002818 <__aeabi_d2iz>
 80054ac:	0004      	movs	r4, r0
 80054ae:	f7fd f9ef 	bl	8002890 <__aeabi_i2d>
 80054b2:	000b      	movs	r3, r1
 80054b4:	0002      	movs	r2, r0
 80054b6:	980a      	ldr	r0, [sp, #40]	@ 0x28
 80054b8:	990b      	ldr	r1, [sp, #44]	@ 0x2c
 80054ba:	f7fc fdef 	bl	800209c <__aeabi_dsub>
 80054be:	3430      	adds	r4, #48	@ 0x30
 80054c0:	9b19      	ldr	r3, [sp, #100]	@ 0x64
 80054c2:	702c      	strb	r4, [r5, #0]
 80054c4:	3501      	adds	r5, #1
 80054c6:	0006      	movs	r6, r0
 80054c8:	000f      	movs	r7, r1
 80054ca:	42ab      	cmp	r3, r5
 80054cc:	d129      	bne.n	8005522 <_dtoa_r+0x6aa>
 80054ce:	9816      	ldr	r0, [sp, #88]	@ 0x58
 80054d0:	9917      	ldr	r1, [sp, #92]	@ 0x5c
 80054d2:	9b08      	ldr	r3, [sp, #32]
 80054d4:	9c11      	ldr	r4, [sp, #68]	@ 0x44
 80054d6:	469c      	mov	ip, r3
 80054d8:	2200      	movs	r2, #0
 80054da:	4b32      	ldr	r3, [pc, #200]	@ (80055a4 <_dtoa_r+0x72c>)
 80054dc:	4464      	add	r4, ip
 80054de:	f7fb fb6d 	bl	8000bbc <__aeabi_dadd>
 80054e2:	0002      	movs	r2, r0
 80054e4:	000b      	movs	r3, r1
 80054e6:	0030      	movs	r0, r6
 80054e8:	0039      	movs	r1, r7
 80054ea:	f7fa ffc7 	bl	800047c <__aeabi_dcmpgt>
 80054ee:	2800      	cmp	r0, #0
 80054f0:	d15c      	bne.n	80055ac <_dtoa_r+0x734>
 80054f2:	9a16      	ldr	r2, [sp, #88]	@ 0x58
 80054f4:	9b17      	ldr	r3, [sp, #92]	@ 0x5c
 80054f6:	2000      	movs	r0, #0
 80054f8:	492a      	ldr	r1, [pc, #168]	@ (80055a4 <_dtoa_r+0x72c>)
 80054fa:	f7fc fdcf 	bl	800209c <__aeabi_dsub>
 80054fe:	0002      	movs	r2, r0
 8005500:	000b      	movs	r3, r1
 8005502:	0030      	movs	r0, r6
 8005504:	0039      	movs	r1, r7
 8005506:	f7fa ffa5 	bl	8000454 <__aeabi_dcmplt>
 800550a:	2800      	cmp	r0, #0
 800550c:	d100      	bne.n	8005510 <_dtoa_r+0x698>
 800550e:	e6ee      	b.n	80052ee <_dtoa_r+0x476>
 8005510:	0023      	movs	r3, r4
 8005512:	3c01      	subs	r4, #1
 8005514:	7822      	ldrb	r2, [r4, #0]
 8005516:	2a30      	cmp	r2, #48	@ 0x30
 8005518:	d0fa      	beq.n	8005510 <_dtoa_r+0x698>
 800551a:	001c      	movs	r4, r3
 800551c:	9b0c      	ldr	r3, [sp, #48]	@ 0x30
 800551e:	9304      	str	r3, [sp, #16]
 8005520:	e73e      	b.n	80053a0 <_dtoa_r+0x528>
 8005522:	2200      	movs	r2, #0
 8005524:	4b1b      	ldr	r3, [pc, #108]	@ (8005594 <_dtoa_r+0x71c>)
 8005526:	f7fc faf1 	bl	8001b0c <__aeabi_dmul>
 800552a:	900a      	str	r0, [sp, #40]	@ 0x28
 800552c:	910b      	str	r1, [sp, #44]	@ 0x2c
 800552e:	e7b9      	b.n	80054a4 <_dtoa_r+0x62c>
 8005530:	9b09      	ldr	r3, [sp, #36]	@ 0x24
 8005532:	2b00      	cmp	r3, #0
 8005534:	d10c      	bne.n	8005550 <_dtoa_r+0x6d8>
 8005536:	9806      	ldr	r0, [sp, #24]
 8005538:	9907      	ldr	r1, [sp, #28]
 800553a:	2200      	movs	r2, #0
 800553c:	4b18      	ldr	r3, [pc, #96]	@ (80055a0 <_dtoa_r+0x728>)
 800553e:	f7fc fae5 	bl	8001b0c <__aeabi_dmul>
 8005542:	9a0a      	ldr	r2, [sp, #40]	@ 0x28
 8005544:	9b0b      	ldr	r3, [sp, #44]	@ 0x2c
 8005546:	f7fa ffa3 	bl	8000490 <__aeabi_dcmpge>
 800554a:	2800      	cmp	r0, #0
 800554c:	d100      	bne.n	8005550 <_dtoa_r+0x6d8>
 800554e:	e164      	b.n	800581a <_dtoa_r+0x9a2>
 8005550:	2600      	movs	r6, #0
 8005552:	0037      	movs	r7, r6
 8005554:	9b23      	ldr	r3, [sp, #140]	@ 0x8c
 8005556:	9c08      	ldr	r4, [sp, #32]
 8005558:	43db      	mvns	r3, r3
 800555a:	930c      	str	r3, [sp, #48]	@ 0x30
 800555c:	2300      	movs	r3, #0
 800555e:	9304      	str	r3, [sp, #16]
 8005560:	0031      	movs	r1, r6
 8005562:	9803      	ldr	r0, [sp, #12]
 8005564:	f000 fbc6 	bl	8005cf4 <_Bfree>
 8005568:	2f00      	cmp	r7, #0
 800556a:	d0d7      	beq.n	800551c <_dtoa_r+0x6a4>
 800556c:	9b04      	ldr	r3, [sp, #16]
 800556e:	2b00      	cmp	r3, #0
 8005570:	d005      	beq.n	800557e <_dtoa_r+0x706>
 8005572:	42bb      	cmp	r3, r7
 8005574:	d003      	beq.n	800557e <_dtoa_r+0x706>
 8005576:	0019      	movs	r1, r3
 8005578:	9803      	ldr	r0, [sp, #12]
 800557a:	f000 fbbb 	bl	8005cf4 <_Bfree>
 800557e:	0039      	movs	r1, r7
 8005580:	9803      	ldr	r0, [sp, #12]
 8005582:	f000 fbb7 	bl	8005cf4 <_Bfree>
 8005586:	e7c9      	b.n	800551c <_dtoa_r+0x6a4>
 8005588:	08008768 	.word	0x08008768
 800558c:	08008740 	.word	0x08008740
 8005590:	3ff00000 	.word	0x3ff00000
 8005594:	40240000 	.word	0x40240000
 8005598:	401c0000 	.word	0x401c0000
 800559c:	fcc00000 	.word	0xfcc00000
 80055a0:	40140000 	.word	0x40140000
 80055a4:	3fe00000 	.word	0x3fe00000
 80055a8:	9b04      	ldr	r3, [sp, #16]
 80055aa:	930c      	str	r3, [sp, #48]	@ 0x30
 80055ac:	0023      	movs	r3, r4
 80055ae:	001c      	movs	r4, r3
 80055b0:	3b01      	subs	r3, #1
 80055b2:	781a      	ldrb	r2, [r3, #0]
 80055b4:	2a39      	cmp	r2, #57	@ 0x39
 80055b6:	d108      	bne.n	80055ca <_dtoa_r+0x752>
 80055b8:	9a08      	ldr	r2, [sp, #32]
 80055ba:	429a      	cmp	r2, r3
 80055bc:	d1f7      	bne.n	80055ae <_dtoa_r+0x736>
 80055be:	9a0c      	ldr	r2, [sp, #48]	@ 0x30
 80055c0:	9908      	ldr	r1, [sp, #32]
 80055c2:	3201      	adds	r2, #1
 80055c4:	920c      	str	r2, [sp, #48]	@ 0x30
 80055c6:	2230      	movs	r2, #48	@ 0x30
 80055c8:	700a      	strb	r2, [r1, #0]
 80055ca:	781a      	ldrb	r2, [r3, #0]
 80055cc:	3201      	adds	r2, #1
 80055ce:	701a      	strb	r2, [r3, #0]
 80055d0:	e7a4      	b.n	800551c <_dtoa_r+0x6a4>
 80055d2:	2200      	movs	r2, #0
 80055d4:	4bc6      	ldr	r3, [pc, #792]	@ (80058f0 <_dtoa_r+0xa78>)
 80055d6:	f7fc fa99 	bl	8001b0c <__aeabi_dmul>
 80055da:	2200      	movs	r2, #0
 80055dc:	2300      	movs	r3, #0
 80055de:	0006      	movs	r6, r0
 80055e0:	000f      	movs	r7, r1
 80055e2:	f7fa ff31 	bl	8000448 <__aeabi_dcmpeq>
 80055e6:	2800      	cmp	r0, #0
 80055e8:	d100      	bne.n	80055ec <_dtoa_r+0x774>
 80055ea:	e6a1      	b.n	8005330 <_dtoa_r+0x4b8>
 80055ec:	e6d8      	b.n	80053a0 <_dtoa_r+0x528>
 80055ee:	9f10      	ldr	r7, [sp, #64]	@ 0x40
 80055f0:	9d0f      	ldr	r5, [sp, #60]	@ 0x3c
 80055f2:	9c06      	ldr	r4, [sp, #24]
 80055f4:	2f00      	cmp	r7, #0
 80055f6:	d014      	beq.n	8005622 <_dtoa_r+0x7aa>
 80055f8:	9a22      	ldr	r2, [sp, #136]	@ 0x88
 80055fa:	2a01      	cmp	r2, #1
 80055fc:	dd00      	ble.n	8005600 <_dtoa_r+0x788>
 80055fe:	e0c8      	b.n	8005792 <_dtoa_r+0x91a>
 8005600:	9a18      	ldr	r2, [sp, #96]	@ 0x60
 8005602:	2a00      	cmp	r2, #0
 8005604:	d100      	bne.n	8005608 <_dtoa_r+0x790>
 8005606:	e0be      	b.n	8005786 <_dtoa_r+0x90e>
 8005608:	4aba      	ldr	r2, [pc, #744]	@ (80058f4 <_dtoa_r+0xa7c>)
 800560a:	189b      	adds	r3, r3, r2
 800560c:	9a06      	ldr	r2, [sp, #24]
 800560e:	2101      	movs	r1, #1
 8005610:	18d2      	adds	r2, r2, r3
 8005612:	9206      	str	r2, [sp, #24]
 8005614:	9a0d      	ldr	r2, [sp, #52]	@ 0x34
 8005616:	9803      	ldr	r0, [sp, #12]
 8005618:	18d3      	adds	r3, r2, r3
 800561a:	930d      	str	r3, [sp, #52]	@ 0x34
 800561c:	f000 fc6e 	bl	8005efc <__i2b>
 8005620:	0007      	movs	r7, r0
 8005622:	2c00      	cmp	r4, #0
 8005624:	d00e      	beq.n	8005644 <_dtoa_r+0x7cc>
 8005626:	9b0d      	ldr	r3, [sp, #52]	@ 0x34
 8005628:	2b00      	cmp	r3, #0
 800562a:	dd0b      	ble.n	8005644 <_dtoa_r+0x7cc>
 800562c:	9a0d      	ldr	r2, [sp, #52]	@ 0x34
 800562e:	0023      	movs	r3, r4
 8005630:	4294      	cmp	r4, r2
 8005632:	dd00      	ble.n	8005636 <_dtoa_r+0x7be>
 8005634:	0013      	movs	r3, r2
 8005636:	9a06      	ldr	r2, [sp, #24]
 8005638:	1ae4      	subs	r4, r4, r3
 800563a:	1ad2      	subs	r2, r2, r3
 800563c:	9206      	str	r2, [sp, #24]
 800563e:	9a0d      	ldr	r2, [sp, #52]	@ 0x34
 8005640:	1ad3      	subs	r3, r2, r3
 8005642:	930d      	str	r3, [sp, #52]	@ 0x34
 8005644:	9b0f      	ldr	r3, [sp, #60]	@ 0x3c
 8005646:	2b00      	cmp	r3, #0
 8005648:	d01f      	beq.n	800568a <_dtoa_r+0x812>
 800564a:	9b10      	ldr	r3, [sp, #64]	@ 0x40
 800564c:	2b00      	cmp	r3, #0
 800564e:	d100      	bne.n	8005652 <_dtoa_r+0x7da>
 8005650:	e0b5      	b.n	80057be <_dtoa_r+0x946>
 8005652:	2d00      	cmp	r5, #0
 8005654:	d010      	beq.n	8005678 <_dtoa_r+0x800>
 8005656:	0039      	movs	r1, r7
 8005658:	002a      	movs	r2, r5
 800565a:	9803      	ldr	r0, [sp, #12]
 800565c:	f000 fd18 	bl	8006090 <__pow5mult>
 8005660:	9a05      	ldr	r2, [sp, #20]
 8005662:	0001      	movs	r1, r0
 8005664:	0007      	movs	r7, r0
 8005666:	9803      	ldr	r0, [sp, #12]
 8005668:	f000 fc60 	bl	8005f2c <__multiply>
 800566c:	0006      	movs	r6, r0
 800566e:	9905      	ldr	r1, [sp, #20]
 8005670:	9803      	ldr	r0, [sp, #12]
 8005672:	f000 fb3f 	bl	8005cf4 <_Bfree>
 8005676:	9605      	str	r6, [sp, #20]
 8005678:	9b0f      	ldr	r3, [sp, #60]	@ 0x3c
 800567a:	1b5a      	subs	r2, r3, r5
 800567c:	42ab      	cmp	r3, r5
 800567e:	d004      	beq.n	800568a <_dtoa_r+0x812>
 8005680:	9905      	ldr	r1, [sp, #20]
 8005682:	9803      	ldr	r0, [sp, #12]
 8005684:	f000 fd04 	bl	8006090 <__pow5mult>
 8005688:	9005      	str	r0, [sp, #20]
 800568a:	2101      	movs	r1, #1
 800568c:	9803      	ldr	r0, [sp, #12]
 800568e:	f000 fc35 	bl	8005efc <__i2b>
 8005692:	9b14      	ldr	r3, [sp, #80]	@ 0x50
 8005694:	0006      	movs	r6, r0
 8005696:	2b00      	cmp	r3, #0
 8005698:	d100      	bne.n	800569c <_dtoa_r+0x824>
 800569a:	e1bc      	b.n	8005a16 <_dtoa_r+0xb9e>
 800569c:	001a      	movs	r2, r3
 800569e:	0001      	movs	r1, r0
 80056a0:	9803      	ldr	r0, [sp, #12]
 80056a2:	f000 fcf5 	bl	8006090 <__pow5mult>
 80056a6:	9b22      	ldr	r3, [sp, #136]	@ 0x88
 80056a8:	0006      	movs	r6, r0
 80056aa:	2500      	movs	r5, #0
 80056ac:	2b01      	cmp	r3, #1
 80056ae:	dc16      	bgt.n	80056de <_dtoa_r+0x866>
 80056b0:	2500      	movs	r5, #0
 80056b2:	9b0a      	ldr	r3, [sp, #40]	@ 0x28
 80056b4:	42ab      	cmp	r3, r5
 80056b6:	d10e      	bne.n	80056d6 <_dtoa_r+0x85e>
 80056b8:	9b0b      	ldr	r3, [sp, #44]	@ 0x2c
 80056ba:	031b      	lsls	r3, r3, #12
 80056bc:	42ab      	cmp	r3, r5
 80056be:	d10a      	bne.n	80056d6 <_dtoa_r+0x85e>
 80056c0:	4b8d      	ldr	r3, [pc, #564]	@ (80058f8 <_dtoa_r+0xa80>)
 80056c2:	9a0b      	ldr	r2, [sp, #44]	@ 0x2c
 80056c4:	4213      	tst	r3, r2
 80056c6:	d006      	beq.n	80056d6 <_dtoa_r+0x85e>
 80056c8:	9b06      	ldr	r3, [sp, #24]
 80056ca:	3501      	adds	r5, #1
 80056cc:	3301      	adds	r3, #1
 80056ce:	9306      	str	r3, [sp, #24]
 80056d0:	9b0d      	ldr	r3, [sp, #52]	@ 0x34
 80056d2:	3301      	adds	r3, #1
 80056d4:	930d      	str	r3, [sp, #52]	@ 0x34
 80056d6:	9b14      	ldr	r3, [sp, #80]	@ 0x50
 80056d8:	2001      	movs	r0, #1
 80056da:	2b00      	cmp	r3, #0
 80056dc:	d008      	beq.n	80056f0 <_dtoa_r+0x878>
 80056de:	6933      	ldr	r3, [r6, #16]
 80056e0:	3303      	adds	r3, #3
 80056e2:	009b      	lsls	r3, r3, #2
 80056e4:	18f3      	adds	r3, r6, r3
 80056e6:	6858      	ldr	r0, [r3, #4]
 80056e8:	f000 fbb8 	bl	8005e5c <__hi0bits>
 80056ec:	2320      	movs	r3, #32
 80056ee:	1a18      	subs	r0, r3, r0
 80056f0:	9b0d      	ldr	r3, [sp, #52]	@ 0x34
 80056f2:	1818      	adds	r0, r3, r0
 80056f4:	0002      	movs	r2, r0
 80056f6:	231f      	movs	r3, #31
 80056f8:	401a      	ands	r2, r3
 80056fa:	4218      	tst	r0, r3
 80056fc:	d065      	beq.n	80057ca <_dtoa_r+0x952>
 80056fe:	3301      	adds	r3, #1
 8005700:	1a9b      	subs	r3, r3, r2
 8005702:	2b04      	cmp	r3, #4
 8005704:	dd5d      	ble.n	80057c2 <_dtoa_r+0x94a>
 8005706:	231c      	movs	r3, #28
 8005708:	1a9b      	subs	r3, r3, r2
 800570a:	9a06      	ldr	r2, [sp, #24]
 800570c:	18e4      	adds	r4, r4, r3
 800570e:	18d2      	adds	r2, r2, r3
 8005710:	9206      	str	r2, [sp, #24]
 8005712:	9a0d      	ldr	r2, [sp, #52]	@ 0x34
 8005714:	18d3      	adds	r3, r2, r3
 8005716:	930d      	str	r3, [sp, #52]	@ 0x34
 8005718:	9b06      	ldr	r3, [sp, #24]
 800571a:	2b00      	cmp	r3, #0
 800571c:	dd05      	ble.n	800572a <_dtoa_r+0x8b2>
 800571e:	001a      	movs	r2, r3
 8005720:	9905      	ldr	r1, [sp, #20]
 8005722:	9803      	ldr	r0, [sp, #12]
 8005724:	f000 fd10 	bl	8006148 <__lshift>
 8005728:	9005      	str	r0, [sp, #20]
 800572a:	9b0d      	ldr	r3, [sp, #52]	@ 0x34
 800572c:	2b00      	cmp	r3, #0
 800572e:	dd05      	ble.n	800573c <_dtoa_r+0x8c4>
 8005730:	0031      	movs	r1, r6
 8005732:	001a      	movs	r2, r3
 8005734:	9803      	ldr	r0, [sp, #12]
 8005736:	f000 fd07 	bl	8006148 <__lshift>
 800573a:	0006      	movs	r6, r0
 800573c:	9b15      	ldr	r3, [sp, #84]	@ 0x54
 800573e:	2b00      	cmp	r3, #0
 8005740:	d045      	beq.n	80057ce <_dtoa_r+0x956>
 8005742:	0031      	movs	r1, r6
 8005744:	9805      	ldr	r0, [sp, #20]
 8005746:	f000 fd6b 	bl	8006220 <__mcmp>
 800574a:	2800      	cmp	r0, #0
 800574c:	da3f      	bge.n	80057ce <_dtoa_r+0x956>
 800574e:	9b04      	ldr	r3, [sp, #16]
 8005750:	220a      	movs	r2, #10
 8005752:	3b01      	subs	r3, #1
 8005754:	930c      	str	r3, [sp, #48]	@ 0x30
 8005756:	9905      	ldr	r1, [sp, #20]
 8005758:	2300      	movs	r3, #0
 800575a:	9803      	ldr	r0, [sp, #12]
 800575c:	f000 faee 	bl	8005d3c <__multadd>
 8005760:	9b10      	ldr	r3, [sp, #64]	@ 0x40
 8005762:	9005      	str	r0, [sp, #20]
 8005764:	2b00      	cmp	r3, #0
 8005766:	d100      	bne.n	800576a <_dtoa_r+0x8f2>
 8005768:	e15c      	b.n	8005a24 <_dtoa_r+0xbac>
 800576a:	2300      	movs	r3, #0
 800576c:	0039      	movs	r1, r7
 800576e:	220a      	movs	r2, #10
 8005770:	9803      	ldr	r0, [sp, #12]
 8005772:	f000 fae3 	bl	8005d3c <__multadd>
 8005776:	9b0e      	ldr	r3, [sp, #56]	@ 0x38
 8005778:	0007      	movs	r7, r0
 800577a:	2b00      	cmp	r3, #0
 800577c:	dc55      	bgt.n	800582a <_dtoa_r+0x9b2>
 800577e:	9b22      	ldr	r3, [sp, #136]	@ 0x88
 8005780:	2b02      	cmp	r3, #2
 8005782:	dc2d      	bgt.n	80057e0 <_dtoa_r+0x968>
 8005784:	e051      	b.n	800582a <_dtoa_r+0x9b2>
 8005786:	2336      	movs	r3, #54	@ 0x36
 8005788:	9a1a      	ldr	r2, [sp, #104]	@ 0x68
 800578a:	9d0f      	ldr	r5, [sp, #60]	@ 0x3c
 800578c:	9c06      	ldr	r4, [sp, #24]
 800578e:	1a9b      	subs	r3, r3, r2
 8005790:	e73c      	b.n	800560c <_dtoa_r+0x794>
 8005792:	9b09      	ldr	r3, [sp, #36]	@ 0x24
 8005794:	1e5d      	subs	r5, r3, #1
 8005796:	9b0f      	ldr	r3, [sp, #60]	@ 0x3c
 8005798:	42ab      	cmp	r3, r5
 800579a:	db08      	blt.n	80057ae <_dtoa_r+0x936>
 800579c:	1b5d      	subs	r5, r3, r5
 800579e:	9b09      	ldr	r3, [sp, #36]	@ 0x24
 80057a0:	9c06      	ldr	r4, [sp, #24]
 80057a2:	2b00      	cmp	r3, #0
 80057a4:	db00      	blt.n	80057a8 <_dtoa_r+0x930>
 80057a6:	e731      	b.n	800560c <_dtoa_r+0x794>
 80057a8:	1ae4      	subs	r4, r4, r3
 80057aa:	2300      	movs	r3, #0
 80057ac:	e72e      	b.n	800560c <_dtoa_r+0x794>
 80057ae:	9b0f      	ldr	r3, [sp, #60]	@ 0x3c
 80057b0:	9a14      	ldr	r2, [sp, #80]	@ 0x50
 80057b2:	1aeb      	subs	r3, r5, r3
 80057b4:	18d3      	adds	r3, r2, r3
 80057b6:	950f      	str	r5, [sp, #60]	@ 0x3c
 80057b8:	9314      	str	r3, [sp, #80]	@ 0x50
 80057ba:	2500      	movs	r5, #0
 80057bc:	e7ef      	b.n	800579e <_dtoa_r+0x926>
 80057be:	9a0f      	ldr	r2, [sp, #60]	@ 0x3c
 80057c0:	e75e      	b.n	8005680 <_dtoa_r+0x808>
 80057c2:	2b04      	cmp	r3, #4
 80057c4:	d0a8      	beq.n	8005718 <_dtoa_r+0x8a0>
 80057c6:	331c      	adds	r3, #28
 80057c8:	e79f      	b.n	800570a <_dtoa_r+0x892>
 80057ca:	0013      	movs	r3, r2
 80057cc:	e7fb      	b.n	80057c6 <_dtoa_r+0x94e>
 80057ce:	9b04      	ldr	r3, [sp, #16]
 80057d0:	930c      	str	r3, [sp, #48]	@ 0x30
 80057d2:	9b09      	ldr	r3, [sp, #36]	@ 0x24
 80057d4:	930e      	str	r3, [sp, #56]	@ 0x38
 80057d6:	2b00      	cmp	r3, #0
 80057d8:	dc23      	bgt.n	8005822 <_dtoa_r+0x9aa>
 80057da:	9b22      	ldr	r3, [sp, #136]	@ 0x88
 80057dc:	2b02      	cmp	r3, #2
 80057de:	dd20      	ble.n	8005822 <_dtoa_r+0x9aa>
 80057e0:	9b0e      	ldr	r3, [sp, #56]	@ 0x38
 80057e2:	2b00      	cmp	r3, #0
 80057e4:	d000      	beq.n	80057e8 <_dtoa_r+0x970>
 80057e6:	e6b5      	b.n	8005554 <_dtoa_r+0x6dc>
 80057e8:	0031      	movs	r1, r6
 80057ea:	2205      	movs	r2, #5
 80057ec:	9803      	ldr	r0, [sp, #12]
 80057ee:	f000 faa5 	bl	8005d3c <__multadd>
 80057f2:	0006      	movs	r6, r0
 80057f4:	0001      	movs	r1, r0
 80057f6:	9805      	ldr	r0, [sp, #20]
 80057f8:	f000 fd12 	bl	8006220 <__mcmp>
 80057fc:	2800      	cmp	r0, #0
 80057fe:	dc00      	bgt.n	8005802 <_dtoa_r+0x98a>
 8005800:	e6a8      	b.n	8005554 <_dtoa_r+0x6dc>
 8005802:	9b08      	ldr	r3, [sp, #32]
 8005804:	9a08      	ldr	r2, [sp, #32]
 8005806:	1c5c      	adds	r4, r3, #1
 8005808:	2331      	movs	r3, #49	@ 0x31
 800580a:	7013      	strb	r3, [r2, #0]
 800580c:	9b0c      	ldr	r3, [sp, #48]	@ 0x30
 800580e:	3301      	adds	r3, #1
 8005810:	930c      	str	r3, [sp, #48]	@ 0x30
 8005812:	e6a3      	b.n	800555c <_dtoa_r+0x6e4>
 8005814:	9e11      	ldr	r6, [sp, #68]	@ 0x44
 8005816:	0037      	movs	r7, r6
 8005818:	e7f3      	b.n	8005802 <_dtoa_r+0x98a>
 800581a:	9b04      	ldr	r3, [sp, #16]
 800581c:	9e09      	ldr	r6, [sp, #36]	@ 0x24
 800581e:	930c      	str	r3, [sp, #48]	@ 0x30
 8005820:	e7f9      	b.n	8005816 <_dtoa_r+0x99e>
 8005822:	9b10      	ldr	r3, [sp, #64]	@ 0x40
 8005824:	2b00      	cmp	r3, #0
 8005826:	d100      	bne.n	800582a <_dtoa_r+0x9b2>
 8005828:	e100      	b.n	8005a2c <_dtoa_r+0xbb4>
 800582a:	2c00      	cmp	r4, #0
 800582c:	dd05      	ble.n	800583a <_dtoa_r+0x9c2>
 800582e:	0039      	movs	r1, r7
 8005830:	0022      	movs	r2, r4
 8005832:	9803      	ldr	r0, [sp, #12]
 8005834:	f000 fc88 	bl	8006148 <__lshift>
 8005838:	0007      	movs	r7, r0
 800583a:	0038      	movs	r0, r7
 800583c:	2d00      	cmp	r5, #0
 800583e:	d018      	beq.n	8005872 <_dtoa_r+0x9fa>
 8005840:	6879      	ldr	r1, [r7, #4]
 8005842:	9803      	ldr	r0, [sp, #12]
 8005844:	f000 fa12 	bl	8005c6c <_Balloc>
 8005848:	1e04      	subs	r4, r0, #0
 800584a:	d105      	bne.n	8005858 <_dtoa_r+0x9e0>
 800584c:	0022      	movs	r2, r4
 800584e:	4b2b      	ldr	r3, [pc, #172]	@ (80058fc <_dtoa_r+0xa84>)
 8005850:	482b      	ldr	r0, [pc, #172]	@ (8005900 <_dtoa_r+0xa88>)
 8005852:	492c      	ldr	r1, [pc, #176]	@ (8005904 <_dtoa_r+0xa8c>)
 8005854:	f7ff fb25 	bl	8004ea2 <_dtoa_r+0x2a>
 8005858:	0039      	movs	r1, r7
 800585a:	693a      	ldr	r2, [r7, #16]
 800585c:	310c      	adds	r1, #12
 800585e:	3202      	adds	r2, #2
 8005860:	0092      	lsls	r2, r2, #2
 8005862:	300c      	adds	r0, #12
 8005864:	f7ff fa6c 	bl	8004d40 <memcpy>
 8005868:	2201      	movs	r2, #1
 800586a:	0021      	movs	r1, r4
 800586c:	9803      	ldr	r0, [sp, #12]
 800586e:	f000 fc6b 	bl	8006148 <__lshift>
 8005872:	9b08      	ldr	r3, [sp, #32]
 8005874:	9a0e      	ldr	r2, [sp, #56]	@ 0x38
 8005876:	9306      	str	r3, [sp, #24]
 8005878:	3b01      	subs	r3, #1
 800587a:	189b      	adds	r3, r3, r2
 800587c:	2201      	movs	r2, #1
 800587e:	9704      	str	r7, [sp, #16]
 8005880:	0007      	movs	r7, r0
 8005882:	930f      	str	r3, [sp, #60]	@ 0x3c
 8005884:	9b0a      	ldr	r3, [sp, #40]	@ 0x28
 8005886:	4013      	ands	r3, r2
 8005888:	930e      	str	r3, [sp, #56]	@ 0x38
 800588a:	0031      	movs	r1, r6
 800588c:	9805      	ldr	r0, [sp, #20]
 800588e:	f7ff fa65 	bl	8004d5c <quorem>
 8005892:	9904      	ldr	r1, [sp, #16]
 8005894:	0005      	movs	r5, r0
 8005896:	900a      	str	r0, [sp, #40]	@ 0x28
 8005898:	9805      	ldr	r0, [sp, #20]
 800589a:	f000 fcc1 	bl	8006220 <__mcmp>
 800589e:	003a      	movs	r2, r7
 80058a0:	900d      	str	r0, [sp, #52]	@ 0x34
 80058a2:	0031      	movs	r1, r6
 80058a4:	9803      	ldr	r0, [sp, #12]
 80058a6:	f000 fcd7 	bl	8006258 <__mdiff>
 80058aa:	2201      	movs	r2, #1
 80058ac:	68c3      	ldr	r3, [r0, #12]
 80058ae:	0004      	movs	r4, r0
 80058b0:	3530      	adds	r5, #48	@ 0x30
 80058b2:	9209      	str	r2, [sp, #36]	@ 0x24
 80058b4:	2b00      	cmp	r3, #0
 80058b6:	d104      	bne.n	80058c2 <_dtoa_r+0xa4a>
 80058b8:	0001      	movs	r1, r0
 80058ba:	9805      	ldr	r0, [sp, #20]
 80058bc:	f000 fcb0 	bl	8006220 <__mcmp>
 80058c0:	9009      	str	r0, [sp, #36]	@ 0x24
 80058c2:	0021      	movs	r1, r4
 80058c4:	9803      	ldr	r0, [sp, #12]
 80058c6:	f000 fa15 	bl	8005cf4 <_Bfree>
 80058ca:	9b06      	ldr	r3, [sp, #24]
 80058cc:	9a09      	ldr	r2, [sp, #36]	@ 0x24
 80058ce:	1c5c      	adds	r4, r3, #1
 80058d0:	9b22      	ldr	r3, [sp, #136]	@ 0x88
 80058d2:	4313      	orrs	r3, r2
 80058d4:	9a0e      	ldr	r2, [sp, #56]	@ 0x38
 80058d6:	4313      	orrs	r3, r2
 80058d8:	d116      	bne.n	8005908 <_dtoa_r+0xa90>
 80058da:	2d39      	cmp	r5, #57	@ 0x39
 80058dc:	d02f      	beq.n	800593e <_dtoa_r+0xac6>
 80058de:	9b0d      	ldr	r3, [sp, #52]	@ 0x34
 80058e0:	2b00      	cmp	r3, #0
 80058e2:	dd01      	ble.n	80058e8 <_dtoa_r+0xa70>
 80058e4:	9d0a      	ldr	r5, [sp, #40]	@ 0x28
 80058e6:	3531      	adds	r5, #49	@ 0x31
 80058e8:	9b06      	ldr	r3, [sp, #24]
 80058ea:	701d      	strb	r5, [r3, #0]
 80058ec:	e638      	b.n	8005560 <_dtoa_r+0x6e8>
 80058ee:	46c0      	nop			@ (mov r8, r8)
 80058f0:	40240000 	.word	0x40240000
 80058f4:	00000433 	.word	0x00000433
 80058f8:	7ff00000 	.word	0x7ff00000
 80058fc:	080086c9 	.word	0x080086c9
 8005900:	08008671 	.word	0x08008671
 8005904:	000002ef 	.word	0x000002ef
 8005908:	9b0d      	ldr	r3, [sp, #52]	@ 0x34
 800590a:	2b00      	cmp	r3, #0
 800590c:	db04      	blt.n	8005918 <_dtoa_r+0xaa0>
 800590e:	9a22      	ldr	r2, [sp, #136]	@ 0x88
 8005910:	4313      	orrs	r3, r2
 8005912:	9a0e      	ldr	r2, [sp, #56]	@ 0x38
 8005914:	4313      	orrs	r3, r2
 8005916:	d11e      	bne.n	8005956 <_dtoa_r+0xade>
 8005918:	9b09      	ldr	r3, [sp, #36]	@ 0x24
 800591a:	2b00      	cmp	r3, #0
 800591c:	dde4      	ble.n	80058e8 <_dtoa_r+0xa70>
 800591e:	9905      	ldr	r1, [sp, #20]
 8005920:	2201      	movs	r2, #1
 8005922:	9803      	ldr	r0, [sp, #12]
 8005924:	f000 fc10 	bl	8006148 <__lshift>
 8005928:	0031      	movs	r1, r6
 800592a:	9005      	str	r0, [sp, #20]
 800592c:	f000 fc78 	bl	8006220 <__mcmp>
 8005930:	2800      	cmp	r0, #0
 8005932:	dc02      	bgt.n	800593a <_dtoa_r+0xac2>
 8005934:	d1d8      	bne.n	80058e8 <_dtoa_r+0xa70>
 8005936:	07eb      	lsls	r3, r5, #31
 8005938:	d5d6      	bpl.n	80058e8 <_dtoa_r+0xa70>
 800593a:	2d39      	cmp	r5, #57	@ 0x39
 800593c:	d1d2      	bne.n	80058e4 <_dtoa_r+0xa6c>
 800593e:	2339      	movs	r3, #57	@ 0x39
 8005940:	9a06      	ldr	r2, [sp, #24]
 8005942:	7013      	strb	r3, [r2, #0]
 8005944:	0023      	movs	r3, r4
 8005946:	001c      	movs	r4, r3
 8005948:	3b01      	subs	r3, #1
 800594a:	781a      	ldrb	r2, [r3, #0]
 800594c:	2a39      	cmp	r2, #57	@ 0x39
 800594e:	d04f      	beq.n	80059f0 <_dtoa_r+0xb78>
 8005950:	3201      	adds	r2, #1
 8005952:	701a      	strb	r2, [r3, #0]
 8005954:	e604      	b.n	8005560 <_dtoa_r+0x6e8>
 8005956:	9b09      	ldr	r3, [sp, #36]	@ 0x24
 8005958:	2b00      	cmp	r3, #0
 800595a:	dd03      	ble.n	8005964 <_dtoa_r+0xaec>
 800595c:	2d39      	cmp	r5, #57	@ 0x39
 800595e:	d0ee      	beq.n	800593e <_dtoa_r+0xac6>
 8005960:	3501      	adds	r5, #1
 8005962:	e7c1      	b.n	80058e8 <_dtoa_r+0xa70>
 8005964:	9b06      	ldr	r3, [sp, #24]
 8005966:	9a06      	ldr	r2, [sp, #24]
 8005968:	701d      	strb	r5, [r3, #0]
 800596a:	9b0f      	ldr	r3, [sp, #60]	@ 0x3c
 800596c:	4293      	cmp	r3, r2
 800596e:	d02a      	beq.n	80059c6 <_dtoa_r+0xb4e>
 8005970:	2300      	movs	r3, #0
 8005972:	220a      	movs	r2, #10
 8005974:	9905      	ldr	r1, [sp, #20]
 8005976:	9803      	ldr	r0, [sp, #12]
 8005978:	f000 f9e0 	bl	8005d3c <__multadd>
 800597c:	9b04      	ldr	r3, [sp, #16]
 800597e:	9005      	str	r0, [sp, #20]
 8005980:	42bb      	cmp	r3, r7
 8005982:	d109      	bne.n	8005998 <_dtoa_r+0xb20>
 8005984:	2300      	movs	r3, #0
 8005986:	220a      	movs	r2, #10
 8005988:	9904      	ldr	r1, [sp, #16]
 800598a:	9803      	ldr	r0, [sp, #12]
 800598c:	f000 f9d6 	bl	8005d3c <__multadd>
 8005990:	9004      	str	r0, [sp, #16]
 8005992:	0007      	movs	r7, r0
 8005994:	9406      	str	r4, [sp, #24]
 8005996:	e778      	b.n	800588a <_dtoa_r+0xa12>
 8005998:	9904      	ldr	r1, [sp, #16]
 800599a:	2300      	movs	r3, #0
 800599c:	220a      	movs	r2, #10
 800599e:	9803      	ldr	r0, [sp, #12]
 80059a0:	f000 f9cc 	bl	8005d3c <__multadd>
 80059a4:	2300      	movs	r3, #0
 80059a6:	9004      	str	r0, [sp, #16]
 80059a8:	220a      	movs	r2, #10
 80059aa:	0039      	movs	r1, r7
 80059ac:	9803      	ldr	r0, [sp, #12]
 80059ae:	f000 f9c5 	bl	8005d3c <__multadd>
 80059b2:	e7ee      	b.n	8005992 <_dtoa_r+0xb1a>
 80059b4:	9b0e      	ldr	r3, [sp, #56]	@ 0x38
 80059b6:	2401      	movs	r4, #1
 80059b8:	2b00      	cmp	r3, #0
 80059ba:	dd00      	ble.n	80059be <_dtoa_r+0xb46>
 80059bc:	001c      	movs	r4, r3
 80059be:	9b08      	ldr	r3, [sp, #32]
 80059c0:	191c      	adds	r4, r3, r4
 80059c2:	2300      	movs	r3, #0
 80059c4:	9304      	str	r3, [sp, #16]
 80059c6:	9905      	ldr	r1, [sp, #20]
 80059c8:	2201      	movs	r2, #1
 80059ca:	9803      	ldr	r0, [sp, #12]
 80059cc:	f000 fbbc 	bl	8006148 <__lshift>
 80059d0:	0031      	movs	r1, r6
 80059d2:	9005      	str	r0, [sp, #20]
 80059d4:	f000 fc24 	bl	8006220 <__mcmp>
 80059d8:	2800      	cmp	r0, #0
 80059da:	dcb3      	bgt.n	8005944 <_dtoa_r+0xacc>
 80059dc:	d101      	bne.n	80059e2 <_dtoa_r+0xb6a>
 80059de:	07ed      	lsls	r5, r5, #31
 80059e0:	d4b0      	bmi.n	8005944 <_dtoa_r+0xacc>
 80059e2:	0023      	movs	r3, r4
 80059e4:	001c      	movs	r4, r3
 80059e6:	3b01      	subs	r3, #1
 80059e8:	781a      	ldrb	r2, [r3, #0]
 80059ea:	2a30      	cmp	r2, #48	@ 0x30
 80059ec:	d0fa      	beq.n	80059e4 <_dtoa_r+0xb6c>
 80059ee:	e5b7      	b.n	8005560 <_dtoa_r+0x6e8>
 80059f0:	9a08      	ldr	r2, [sp, #32]
 80059f2:	429a      	cmp	r2, r3
 80059f4:	d1a7      	bne.n	8005946 <_dtoa_r+0xace>
 80059f6:	9b0c      	ldr	r3, [sp, #48]	@ 0x30
 80059f8:	3301      	adds	r3, #1
 80059fa:	930c      	str	r3, [sp, #48]	@ 0x30
 80059fc:	2331      	movs	r3, #49	@ 0x31
 80059fe:	7013      	strb	r3, [r2, #0]
 8005a00:	e5ae      	b.n	8005560 <_dtoa_r+0x6e8>
 8005a02:	4b15      	ldr	r3, [pc, #84]	@ (8005a58 <_dtoa_r+0xbe0>)
 8005a04:	9a26      	ldr	r2, [sp, #152]	@ 0x98
 8005a06:	9308      	str	r3, [sp, #32]
 8005a08:	4b14      	ldr	r3, [pc, #80]	@ (8005a5c <_dtoa_r+0xbe4>)
 8005a0a:	2a00      	cmp	r2, #0
 8005a0c:	d001      	beq.n	8005a12 <_dtoa_r+0xb9a>
 8005a0e:	f7ff fa7b 	bl	8004f08 <_dtoa_r+0x90>
 8005a12:	f7ff fa7b 	bl	8004f0c <_dtoa_r+0x94>
 8005a16:	9b22      	ldr	r3, [sp, #136]	@ 0x88
 8005a18:	2b01      	cmp	r3, #1
 8005a1a:	dc00      	bgt.n	8005a1e <_dtoa_r+0xba6>
 8005a1c:	e648      	b.n	80056b0 <_dtoa_r+0x838>
 8005a1e:	2001      	movs	r0, #1
 8005a20:	9d14      	ldr	r5, [sp, #80]	@ 0x50
 8005a22:	e665      	b.n	80056f0 <_dtoa_r+0x878>
 8005a24:	9b0e      	ldr	r3, [sp, #56]	@ 0x38
 8005a26:	2b00      	cmp	r3, #0
 8005a28:	dc00      	bgt.n	8005a2c <_dtoa_r+0xbb4>
 8005a2a:	e6d6      	b.n	80057da <_dtoa_r+0x962>
 8005a2c:	2400      	movs	r4, #0
 8005a2e:	0031      	movs	r1, r6
 8005a30:	9805      	ldr	r0, [sp, #20]
 8005a32:	f7ff f993 	bl	8004d5c <quorem>
 8005a36:	9b08      	ldr	r3, [sp, #32]
 8005a38:	3030      	adds	r0, #48	@ 0x30
 8005a3a:	5518      	strb	r0, [r3, r4]
 8005a3c:	9b0e      	ldr	r3, [sp, #56]	@ 0x38
 8005a3e:	3401      	adds	r4, #1
 8005a40:	0005      	movs	r5, r0
 8005a42:	429c      	cmp	r4, r3
 8005a44:	dab6      	bge.n	80059b4 <_dtoa_r+0xb3c>
 8005a46:	2300      	movs	r3, #0
 8005a48:	220a      	movs	r2, #10
 8005a4a:	9905      	ldr	r1, [sp, #20]
 8005a4c:	9803      	ldr	r0, [sp, #12]
 8005a4e:	f000 f975 	bl	8005d3c <__multadd>
 8005a52:	9005      	str	r0, [sp, #20]
 8005a54:	e7eb      	b.n	8005a2e <_dtoa_r+0xbb6>
 8005a56:	46c0      	nop			@ (mov r8, r8)
 8005a58:	0800864d 	.word	0x0800864d
 8005a5c:	08008655 	.word	0x08008655

08005a60 <_free_r>:
 8005a60:	b570      	push	{r4, r5, r6, lr}
 8005a62:	0005      	movs	r5, r0
 8005a64:	1e0c      	subs	r4, r1, #0
 8005a66:	d010      	beq.n	8005a8a <_free_r+0x2a>
 8005a68:	3c04      	subs	r4, #4
 8005a6a:	6823      	ldr	r3, [r4, #0]
 8005a6c:	2b00      	cmp	r3, #0
 8005a6e:	da00      	bge.n	8005a72 <_free_r+0x12>
 8005a70:	18e4      	adds	r4, r4, r3
 8005a72:	0028      	movs	r0, r5
 8005a74:	f000 f8ea 	bl	8005c4c <__malloc_lock>
 8005a78:	4a1d      	ldr	r2, [pc, #116]	@ (8005af0 <_free_r+0x90>)
 8005a7a:	6813      	ldr	r3, [r2, #0]
 8005a7c:	2b00      	cmp	r3, #0
 8005a7e:	d105      	bne.n	8005a8c <_free_r+0x2c>
 8005a80:	6063      	str	r3, [r4, #4]
 8005a82:	6014      	str	r4, [r2, #0]
 8005a84:	0028      	movs	r0, r5
 8005a86:	f000 f8e9 	bl	8005c5c <__malloc_unlock>
 8005a8a:	bd70      	pop	{r4, r5, r6, pc}
 8005a8c:	42a3      	cmp	r3, r4
 8005a8e:	d908      	bls.n	8005aa2 <_free_r+0x42>
 8005a90:	6820      	ldr	r0, [r4, #0]
 8005a92:	1821      	adds	r1, r4, r0
 8005a94:	428b      	cmp	r3, r1
 8005a96:	d1f3      	bne.n	8005a80 <_free_r+0x20>
 8005a98:	6819      	ldr	r1, [r3, #0]
 8005a9a:	685b      	ldr	r3, [r3, #4]
 8005a9c:	1809      	adds	r1, r1, r0
 8005a9e:	6021      	str	r1, [r4, #0]
 8005aa0:	e7ee      	b.n	8005a80 <_free_r+0x20>
 8005aa2:	001a      	movs	r2, r3
 8005aa4:	685b      	ldr	r3, [r3, #4]
 8005aa6:	2b00      	cmp	r3, #0
 8005aa8:	d001      	beq.n	8005aae <_free_r+0x4e>
 8005aaa:	42a3      	cmp	r3, r4
 8005aac:	d9f9      	bls.n	8005aa2 <_free_r+0x42>
 8005aae:	6811      	ldr	r1, [r2, #0]
 8005ab0:	1850      	adds	r0, r2, r1
 8005ab2:	42a0      	cmp	r0, r4
 8005ab4:	d10b      	bne.n	8005ace <_free_r+0x6e>
 8005ab6:	6820      	ldr	r0, [r4, #0]
 8005ab8:	1809      	adds	r1, r1, r0
 8005aba:	1850      	adds	r0, r2, r1
 8005abc:	6011      	str	r1, [r2, #0]
 8005abe:	4283      	cmp	r3, r0
 8005ac0:	d1e0      	bne.n	8005a84 <_free_r+0x24>
 8005ac2:	6818      	ldr	r0, [r3, #0]
 8005ac4:	685b      	ldr	r3, [r3, #4]
 8005ac6:	1841      	adds	r1, r0, r1
 8005ac8:	6011      	str	r1, [r2, #0]
 8005aca:	6053      	str	r3, [r2, #4]
 8005acc:	e7da      	b.n	8005a84 <_free_r+0x24>
 8005ace:	42a0      	cmp	r0, r4
 8005ad0:	d902      	bls.n	8005ad8 <_free_r+0x78>
 8005ad2:	230c      	movs	r3, #12
 8005ad4:	602b      	str	r3, [r5, #0]
 8005ad6:	e7d5      	b.n	8005a84 <_free_r+0x24>
 8005ad8:	6820      	ldr	r0, [r4, #0]
 8005ada:	1821      	adds	r1, r4, r0
 8005adc:	428b      	cmp	r3, r1
 8005ade:	d103      	bne.n	8005ae8 <_free_r+0x88>
 8005ae0:	6819      	ldr	r1, [r3, #0]
 8005ae2:	685b      	ldr	r3, [r3, #4]
 8005ae4:	1809      	adds	r1, r1, r0
 8005ae6:	6021      	str	r1, [r4, #0]
 8005ae8:	6063      	str	r3, [r4, #4]
 8005aea:	6054      	str	r4, [r2, #4]
 8005aec:	e7ca      	b.n	8005a84 <_free_r+0x24>
 8005aee:	46c0      	nop			@ (mov r8, r8)
 8005af0:	20000350 	.word	0x20000350

08005af4 <malloc>:
 8005af4:	b510      	push	{r4, lr}
 8005af6:	4b03      	ldr	r3, [pc, #12]	@ (8005b04 <malloc+0x10>)
 8005af8:	0001      	movs	r1, r0
 8005afa:	6818      	ldr	r0, [r3, #0]
 8005afc:	f000 f826 	bl	8005b4c <_malloc_r>
 8005b00:	bd10      	pop	{r4, pc}
 8005b02:	46c0      	nop			@ (mov r8, r8)
 8005b04:	20000010 	.word	0x20000010

08005b08 <sbrk_aligned>:
 8005b08:	b570      	push	{r4, r5, r6, lr}
 8005b0a:	4e0f      	ldr	r6, [pc, #60]	@ (8005b48 <sbrk_aligned+0x40>)
 8005b0c:	000d      	movs	r5, r1
 8005b0e:	6831      	ldr	r1, [r6, #0]
 8005b10:	0004      	movs	r4, r0
 8005b12:	2900      	cmp	r1, #0
 8005b14:	d102      	bne.n	8005b1c <sbrk_aligned+0x14>
 8005b16:	f001 fe47 	bl	80077a8 <_sbrk_r>
 8005b1a:	6030      	str	r0, [r6, #0]
 8005b1c:	0029      	movs	r1, r5
 8005b1e:	0020      	movs	r0, r4
 8005b20:	f001 fe42 	bl	80077a8 <_sbrk_r>
 8005b24:	1c43      	adds	r3, r0, #1
 8005b26:	d103      	bne.n	8005b30 <sbrk_aligned+0x28>
 8005b28:	2501      	movs	r5, #1
 8005b2a:	426d      	negs	r5, r5
 8005b2c:	0028      	movs	r0, r5
 8005b2e:	bd70      	pop	{r4, r5, r6, pc}
 8005b30:	2303      	movs	r3, #3
 8005b32:	1cc5      	adds	r5, r0, #3
 8005b34:	439d      	bics	r5, r3
 8005b36:	42a8      	cmp	r0, r5
 8005b38:	d0f8      	beq.n	8005b2c <sbrk_aligned+0x24>
 8005b3a:	1a29      	subs	r1, r5, r0
 8005b3c:	0020      	movs	r0, r4
 8005b3e:	f001 fe33 	bl	80077a8 <_sbrk_r>
 8005b42:	3001      	adds	r0, #1
 8005b44:	d1f2      	bne.n	8005b2c <sbrk_aligned+0x24>
 8005b46:	e7ef      	b.n	8005b28 <sbrk_aligned+0x20>
 8005b48:	2000034c 	.word	0x2000034c

08005b4c <_malloc_r>:
 8005b4c:	b5f7      	push	{r0, r1, r2, r4, r5, r6, r7, lr}
 8005b4e:	2203      	movs	r2, #3
 8005b50:	1ccb      	adds	r3, r1, #3
 8005b52:	4393      	bics	r3, r2
 8005b54:	3308      	adds	r3, #8
 8005b56:	0005      	movs	r5, r0
 8005b58:	001f      	movs	r7, r3
 8005b5a:	2b0c      	cmp	r3, #12
 8005b5c:	d234      	bcs.n	8005bc8 <_malloc_r+0x7c>
 8005b5e:	270c      	movs	r7, #12
 8005b60:	42b9      	cmp	r1, r7
 8005b62:	d833      	bhi.n	8005bcc <_malloc_r+0x80>
 8005b64:	0028      	movs	r0, r5
 8005b66:	f000 f871 	bl	8005c4c <__malloc_lock>
 8005b6a:	4e37      	ldr	r6, [pc, #220]	@ (8005c48 <_malloc_r+0xfc>)
 8005b6c:	6833      	ldr	r3, [r6, #0]
 8005b6e:	001c      	movs	r4, r3
 8005b70:	2c00      	cmp	r4, #0
 8005b72:	d12f      	bne.n	8005bd4 <_malloc_r+0x88>
 8005b74:	0039      	movs	r1, r7
 8005b76:	0028      	movs	r0, r5
 8005b78:	f7ff ffc6 	bl	8005b08 <sbrk_aligned>
 8005b7c:	0004      	movs	r4, r0
 8005b7e:	1c43      	adds	r3, r0, #1
 8005b80:	d15f      	bne.n	8005c42 <_malloc_r+0xf6>
 8005b82:	6834      	ldr	r4, [r6, #0]
 8005b84:	9400      	str	r4, [sp, #0]
 8005b86:	9b00      	ldr	r3, [sp, #0]
 8005b88:	2b00      	cmp	r3, #0
 8005b8a:	d14a      	bne.n	8005c22 <_malloc_r+0xd6>
 8005b8c:	2c00      	cmp	r4, #0
 8005b8e:	d052      	beq.n	8005c36 <_malloc_r+0xea>
 8005b90:	6823      	ldr	r3, [r4, #0]
 8005b92:	0028      	movs	r0, r5
 8005b94:	18e3      	adds	r3, r4, r3
 8005b96:	9900      	ldr	r1, [sp, #0]
 8005b98:	9301      	str	r3, [sp, #4]
 8005b9a:	f001 fe05 	bl	80077a8 <_sbrk_r>
 8005b9e:	9b01      	ldr	r3, [sp, #4]
 8005ba0:	4283      	cmp	r3, r0
 8005ba2:	d148      	bne.n	8005c36 <_malloc_r+0xea>
 8005ba4:	6823      	ldr	r3, [r4, #0]
 8005ba6:	0028      	movs	r0, r5
 8005ba8:	1aff      	subs	r7, r7, r3
 8005baa:	0039      	movs	r1, r7
 8005bac:	f7ff ffac 	bl	8005b08 <sbrk_aligned>
 8005bb0:	3001      	adds	r0, #1
 8005bb2:	d040      	beq.n	8005c36 <_malloc_r+0xea>
 8005bb4:	6823      	ldr	r3, [r4, #0]
 8005bb6:	19db      	adds	r3, r3, r7
 8005bb8:	6023      	str	r3, [r4, #0]
 8005bba:	6833      	ldr	r3, [r6, #0]
 8005bbc:	685a      	ldr	r2, [r3, #4]
 8005bbe:	2a00      	cmp	r2, #0
 8005bc0:	d133      	bne.n	8005c2a <_malloc_r+0xde>
 8005bc2:	9b00      	ldr	r3, [sp, #0]
 8005bc4:	6033      	str	r3, [r6, #0]
 8005bc6:	e019      	b.n	8005bfc <_malloc_r+0xb0>
 8005bc8:	2b00      	cmp	r3, #0
 8005bca:	dac9      	bge.n	8005b60 <_malloc_r+0x14>
 8005bcc:	230c      	movs	r3, #12
 8005bce:	602b      	str	r3, [r5, #0]
 8005bd0:	2000      	movs	r0, #0
 8005bd2:	bdfe      	pop	{r1, r2, r3, r4, r5, r6, r7, pc}
 8005bd4:	6821      	ldr	r1, [r4, #0]
 8005bd6:	1bc9      	subs	r1, r1, r7
 8005bd8:	d420      	bmi.n	8005c1c <_malloc_r+0xd0>
 8005bda:	290b      	cmp	r1, #11
 8005bdc:	d90a      	bls.n	8005bf4 <_malloc_r+0xa8>
 8005bde:	19e2      	adds	r2, r4, r7
 8005be0:	6027      	str	r7, [r4, #0]
 8005be2:	42a3      	cmp	r3, r4
 8005be4:	d104      	bne.n	8005bf0 <_malloc_r+0xa4>
 8005be6:	6032      	str	r2, [r6, #0]
 8005be8:	6863      	ldr	r3, [r4, #4]
 8005bea:	6011      	str	r1, [r2, #0]
 8005bec:	6053      	str	r3, [r2, #4]
 8005bee:	e005      	b.n	8005bfc <_malloc_r+0xb0>
 8005bf0:	605a      	str	r2, [r3, #4]
 8005bf2:	e7f9      	b.n	8005be8 <_malloc_r+0x9c>
 8005bf4:	6862      	ldr	r2, [r4, #4]
 8005bf6:	42a3      	cmp	r3, r4
 8005bf8:	d10e      	bne.n	8005c18 <_malloc_r+0xcc>
 8005bfa:	6032      	str	r2, [r6, #0]
 8005bfc:	0028      	movs	r0, r5
 8005bfe:	f000 f82d 	bl	8005c5c <__malloc_unlock>
 8005c02:	0020      	movs	r0, r4
 8005c04:	2207      	movs	r2, #7
 8005c06:	300b      	adds	r0, #11
 8005c08:	1d23      	adds	r3, r4, #4
 8005c0a:	4390      	bics	r0, r2
 8005c0c:	1ac2      	subs	r2, r0, r3
 8005c0e:	4298      	cmp	r0, r3
 8005c10:	d0df      	beq.n	8005bd2 <_malloc_r+0x86>
 8005c12:	1a1b      	subs	r3, r3, r0
 8005c14:	50a3      	str	r3, [r4, r2]
 8005c16:	e7dc      	b.n	8005bd2 <_malloc_r+0x86>
 8005c18:	605a      	str	r2, [r3, #4]
 8005c1a:	e7ef      	b.n	8005bfc <_malloc_r+0xb0>
 8005c1c:	0023      	movs	r3, r4
 8005c1e:	6864      	ldr	r4, [r4, #4]
 8005c20:	e7a6      	b.n	8005b70 <_malloc_r+0x24>
 8005c22:	9c00      	ldr	r4, [sp, #0]
 8005c24:	6863      	ldr	r3, [r4, #4]
 8005c26:	9300      	str	r3, [sp, #0]
 8005c28:	e7ad      	b.n	8005b86 <_malloc_r+0x3a>
 8005c2a:	001a      	movs	r2, r3
 8005c2c:	685b      	ldr	r3, [r3, #4]
 8005c2e:	42a3      	cmp	r3, r4
 8005c30:	d1fb      	bne.n	8005c2a <_malloc_r+0xde>
 8005c32:	2300      	movs	r3, #0
 8005c34:	e7da      	b.n	8005bec <_malloc_r+0xa0>
 8005c36:	230c      	movs	r3, #12
 8005c38:	0028      	movs	r0, r5
 8005c3a:	602b      	str	r3, [r5, #0]
 8005c3c:	f000 f80e 	bl	8005c5c <__malloc_unlock>
 8005c40:	e7c6      	b.n	8005bd0 <_malloc_r+0x84>
 8005c42:	6007      	str	r7, [r0, #0]
 8005c44:	e7da      	b.n	8005bfc <_malloc_r+0xb0>
 8005c46:	46c0      	nop			@ (mov r8, r8)
 8005c48:	20000350 	.word	0x20000350

08005c4c <__malloc_lock>:
 8005c4c:	b510      	push	{r4, lr}
 8005c4e:	4802      	ldr	r0, [pc, #8]	@ (8005c58 <__malloc_lock+0xc>)
 8005c50:	f7ff f869 	bl	8004d26 <__retarget_lock_acquire_recursive>
 8005c54:	bd10      	pop	{r4, pc}
 8005c56:	46c0      	nop			@ (mov r8, r8)
 8005c58:	20000348 	.word	0x20000348

08005c5c <__malloc_unlock>:
 8005c5c:	b510      	push	{r4, lr}
 8005c5e:	4802      	ldr	r0, [pc, #8]	@ (8005c68 <__malloc_unlock+0xc>)
 8005c60:	f7ff f862 	bl	8004d28 <__retarget_lock_release_recursive>
 8005c64:	bd10      	pop	{r4, pc}
 8005c66:	46c0      	nop			@ (mov r8, r8)
 8005c68:	20000348 	.word	0x20000348

08005c6c <_Balloc>:
 8005c6c:	b570      	push	{r4, r5, r6, lr}
 8005c6e:	69c5      	ldr	r5, [r0, #28]
 8005c70:	0006      	movs	r6, r0
 8005c72:	000c      	movs	r4, r1
 8005c74:	2d00      	cmp	r5, #0
 8005c76:	d10e      	bne.n	8005c96 <_Balloc+0x2a>
 8005c78:	2010      	movs	r0, #16
 8005c7a:	f7ff ff3b 	bl	8005af4 <malloc>
 8005c7e:	1e02      	subs	r2, r0, #0
 8005c80:	61f0      	str	r0, [r6, #28]
 8005c82:	d104      	bne.n	8005c8e <_Balloc+0x22>
 8005c84:	216b      	movs	r1, #107	@ 0x6b
 8005c86:	4b19      	ldr	r3, [pc, #100]	@ (8005cec <_Balloc+0x80>)
 8005c88:	4819      	ldr	r0, [pc, #100]	@ (8005cf0 <_Balloc+0x84>)
 8005c8a:	f001 fda5 	bl	80077d8 <__assert_func>
 8005c8e:	6045      	str	r5, [r0, #4]
 8005c90:	6085      	str	r5, [r0, #8]
 8005c92:	6005      	str	r5, [r0, #0]
 8005c94:	60c5      	str	r5, [r0, #12]
 8005c96:	69f5      	ldr	r5, [r6, #28]
 8005c98:	68eb      	ldr	r3, [r5, #12]
 8005c9a:	2b00      	cmp	r3, #0
 8005c9c:	d013      	beq.n	8005cc6 <_Balloc+0x5a>
 8005c9e:	69f3      	ldr	r3, [r6, #28]
 8005ca0:	00a2      	lsls	r2, r4, #2
 8005ca2:	68db      	ldr	r3, [r3, #12]
 8005ca4:	189b      	adds	r3, r3, r2
 8005ca6:	6818      	ldr	r0, [r3, #0]
 8005ca8:	2800      	cmp	r0, #0
 8005caa:	d118      	bne.n	8005cde <_Balloc+0x72>
 8005cac:	2101      	movs	r1, #1
 8005cae:	000d      	movs	r5, r1
 8005cb0:	40a5      	lsls	r5, r4
 8005cb2:	1d6a      	adds	r2, r5, #5
 8005cb4:	0030      	movs	r0, r6
 8005cb6:	0092      	lsls	r2, r2, #2
 8005cb8:	f001 fdac 	bl	8007814 <_calloc_r>
 8005cbc:	2800      	cmp	r0, #0
 8005cbe:	d00c      	beq.n	8005cda <_Balloc+0x6e>
 8005cc0:	6044      	str	r4, [r0, #4]
 8005cc2:	6085      	str	r5, [r0, #8]
 8005cc4:	e00d      	b.n	8005ce2 <_Balloc+0x76>
 8005cc6:	2221      	movs	r2, #33	@ 0x21
 8005cc8:	2104      	movs	r1, #4
 8005cca:	0030      	movs	r0, r6
 8005ccc:	f001 fda2 	bl	8007814 <_calloc_r>
 8005cd0:	69f3      	ldr	r3, [r6, #28]
 8005cd2:	60e8      	str	r0, [r5, #12]
 8005cd4:	68db      	ldr	r3, [r3, #12]
 8005cd6:	2b00      	cmp	r3, #0
 8005cd8:	d1e1      	bne.n	8005c9e <_Balloc+0x32>
 8005cda:	2000      	movs	r0, #0
 8005cdc:	bd70      	pop	{r4, r5, r6, pc}
 8005cde:	6802      	ldr	r2, [r0, #0]
 8005ce0:	601a      	str	r2, [r3, #0]
 8005ce2:	2300      	movs	r3, #0
 8005ce4:	6103      	str	r3, [r0, #16]
 8005ce6:	60c3      	str	r3, [r0, #12]
 8005ce8:	e7f8      	b.n	8005cdc <_Balloc+0x70>
 8005cea:	46c0      	nop			@ (mov r8, r8)
 8005cec:	0800865a 	.word	0x0800865a
 8005cf0:	080086da 	.word	0x080086da

08005cf4 <_Bfree>:
 8005cf4:	b570      	push	{r4, r5, r6, lr}
 8005cf6:	69c6      	ldr	r6, [r0, #28]
 8005cf8:	0005      	movs	r5, r0
 8005cfa:	000c      	movs	r4, r1
 8005cfc:	2e00      	cmp	r6, #0
 8005cfe:	d10e      	bne.n	8005d1e <_Bfree+0x2a>
 8005d00:	2010      	movs	r0, #16
 8005d02:	f7ff fef7 	bl	8005af4 <malloc>
 8005d06:	1e02      	subs	r2, r0, #0
 8005d08:	61e8      	str	r0, [r5, #28]
 8005d0a:	d104      	bne.n	8005d16 <_Bfree+0x22>
 8005d0c:	218f      	movs	r1, #143	@ 0x8f
 8005d0e:	4b09      	ldr	r3, [pc, #36]	@ (8005d34 <_Bfree+0x40>)
 8005d10:	4809      	ldr	r0, [pc, #36]	@ (8005d38 <_Bfree+0x44>)
 8005d12:	f001 fd61 	bl	80077d8 <__assert_func>
 8005d16:	6046      	str	r6, [r0, #4]
 8005d18:	6086      	str	r6, [r0, #8]
 8005d1a:	6006      	str	r6, [r0, #0]
 8005d1c:	60c6      	str	r6, [r0, #12]
 8005d1e:	2c00      	cmp	r4, #0
 8005d20:	d007      	beq.n	8005d32 <_Bfree+0x3e>
 8005d22:	69eb      	ldr	r3, [r5, #28]
 8005d24:	6862      	ldr	r2, [r4, #4]
 8005d26:	68db      	ldr	r3, [r3, #12]
 8005d28:	0092      	lsls	r2, r2, #2
 8005d2a:	189b      	adds	r3, r3, r2
 8005d2c:	681a      	ldr	r2, [r3, #0]
 8005d2e:	6022      	str	r2, [r4, #0]
 8005d30:	601c      	str	r4, [r3, #0]
 8005d32:	bd70      	pop	{r4, r5, r6, pc}
 8005d34:	0800865a 	.word	0x0800865a
 8005d38:	080086da 	.word	0x080086da

08005d3c <__multadd>:
 8005d3c:	b5f7      	push	{r0, r1, r2, r4, r5, r6, r7, lr}
 8005d3e:	000f      	movs	r7, r1
 8005d40:	9001      	str	r0, [sp, #4]
 8005d42:	000c      	movs	r4, r1
 8005d44:	001e      	movs	r6, r3
 8005d46:	2000      	movs	r0, #0
 8005d48:	690d      	ldr	r5, [r1, #16]
 8005d4a:	3714      	adds	r7, #20
 8005d4c:	683b      	ldr	r3, [r7, #0]
 8005d4e:	3001      	adds	r0, #1
 8005d50:	b299      	uxth	r1, r3
 8005d52:	4351      	muls	r1, r2
 8005d54:	0c1b      	lsrs	r3, r3, #16
 8005d56:	4353      	muls	r3, r2
 8005d58:	1989      	adds	r1, r1, r6
 8005d5a:	0c0e      	lsrs	r6, r1, #16
 8005d5c:	199b      	adds	r3, r3, r6
 8005d5e:	0c1e      	lsrs	r6, r3, #16
 8005d60:	b289      	uxth	r1, r1
 8005d62:	041b      	lsls	r3, r3, #16
 8005d64:	185b      	adds	r3, r3, r1
 8005d66:	c708      	stmia	r7!, {r3}
 8005d68:	4285      	cmp	r5, r0
 8005d6a:	dcef      	bgt.n	8005d4c <__multadd+0x10>
 8005d6c:	2e00      	cmp	r6, #0
 8005d6e:	d022      	beq.n	8005db6 <__multadd+0x7a>
 8005d70:	68a3      	ldr	r3, [r4, #8]
 8005d72:	42ab      	cmp	r3, r5
 8005d74:	dc19      	bgt.n	8005daa <__multadd+0x6e>
 8005d76:	6861      	ldr	r1, [r4, #4]
 8005d78:	9801      	ldr	r0, [sp, #4]
 8005d7a:	3101      	adds	r1, #1
 8005d7c:	f7ff ff76 	bl	8005c6c <_Balloc>
 8005d80:	1e07      	subs	r7, r0, #0
 8005d82:	d105      	bne.n	8005d90 <__multadd+0x54>
 8005d84:	003a      	movs	r2, r7
 8005d86:	21ba      	movs	r1, #186	@ 0xba
 8005d88:	4b0c      	ldr	r3, [pc, #48]	@ (8005dbc <__multadd+0x80>)
 8005d8a:	480d      	ldr	r0, [pc, #52]	@ (8005dc0 <__multadd+0x84>)
 8005d8c:	f001 fd24 	bl	80077d8 <__assert_func>
 8005d90:	0021      	movs	r1, r4
 8005d92:	6922      	ldr	r2, [r4, #16]
 8005d94:	310c      	adds	r1, #12
 8005d96:	3202      	adds	r2, #2
 8005d98:	0092      	lsls	r2, r2, #2
 8005d9a:	300c      	adds	r0, #12
 8005d9c:	f7fe ffd0 	bl	8004d40 <memcpy>
 8005da0:	0021      	movs	r1, r4
 8005da2:	9801      	ldr	r0, [sp, #4]
 8005da4:	f7ff ffa6 	bl	8005cf4 <_Bfree>
 8005da8:	003c      	movs	r4, r7
 8005daa:	1d2b      	adds	r3, r5, #4
 8005dac:	009b      	lsls	r3, r3, #2
 8005dae:	18e3      	adds	r3, r4, r3
 8005db0:	3501      	adds	r5, #1
 8005db2:	605e      	str	r6, [r3, #4]
 8005db4:	6125      	str	r5, [r4, #16]
 8005db6:	0020      	movs	r0, r4
 8005db8:	bdfe      	pop	{r1, r2, r3, r4, r5, r6, r7, pc}
 8005dba:	46c0      	nop			@ (mov r8, r8)
 8005dbc:	080086c9 	.word	0x080086c9
 8005dc0:	080086da 	.word	0x080086da

08005dc4 <__s2b>:
 8005dc4:	b5f7      	push	{r0, r1, r2, r4, r5, r6, r7, lr}
 8005dc6:	0007      	movs	r7, r0
 8005dc8:	0018      	movs	r0, r3
 8005dca:	000c      	movs	r4, r1
 8005dcc:	3008      	adds	r0, #8
 8005dce:	2109      	movs	r1, #9
 8005dd0:	9301      	str	r3, [sp, #4]
 8005dd2:	0015      	movs	r5, r2
 8005dd4:	f7fa fa3c 	bl	8000250 <__divsi3>
 8005dd8:	2301      	movs	r3, #1
 8005dda:	2100      	movs	r1, #0
 8005ddc:	4283      	cmp	r3, r0
 8005dde:	db0a      	blt.n	8005df6 <__s2b+0x32>
 8005de0:	0038      	movs	r0, r7
 8005de2:	f7ff ff43 	bl	8005c6c <_Balloc>
 8005de6:	1e01      	subs	r1, r0, #0
 8005de8:	d108      	bne.n	8005dfc <__s2b+0x38>
 8005dea:	000a      	movs	r2, r1
 8005dec:	4b19      	ldr	r3, [pc, #100]	@ (8005e54 <__s2b+0x90>)
 8005dee:	481a      	ldr	r0, [pc, #104]	@ (8005e58 <__s2b+0x94>)
 8005df0:	31d3      	adds	r1, #211	@ 0xd3
 8005df2:	f001 fcf1 	bl	80077d8 <__assert_func>
 8005df6:	005b      	lsls	r3, r3, #1
 8005df8:	3101      	adds	r1, #1
 8005dfa:	e7ef      	b.n	8005ddc <__s2b+0x18>
 8005dfc:	9b08      	ldr	r3, [sp, #32]
 8005dfe:	6143      	str	r3, [r0, #20]
 8005e00:	2301      	movs	r3, #1
 8005e02:	6103      	str	r3, [r0, #16]
 8005e04:	2d09      	cmp	r5, #9
 8005e06:	dd18      	ble.n	8005e3a <__s2b+0x76>
 8005e08:	0023      	movs	r3, r4
 8005e0a:	3309      	adds	r3, #9
 8005e0c:	001e      	movs	r6, r3
 8005e0e:	9300      	str	r3, [sp, #0]
 8005e10:	1964      	adds	r4, r4, r5
 8005e12:	7833      	ldrb	r3, [r6, #0]
 8005e14:	220a      	movs	r2, #10
 8005e16:	0038      	movs	r0, r7
 8005e18:	3b30      	subs	r3, #48	@ 0x30
 8005e1a:	f7ff ff8f 	bl	8005d3c <__multadd>
 8005e1e:	3601      	adds	r6, #1
 8005e20:	0001      	movs	r1, r0
 8005e22:	42a6      	cmp	r6, r4
 8005e24:	d1f5      	bne.n	8005e12 <__s2b+0x4e>
 8005e26:	002c      	movs	r4, r5
 8005e28:	9b00      	ldr	r3, [sp, #0]
 8005e2a:	3c08      	subs	r4, #8
 8005e2c:	191c      	adds	r4, r3, r4
 8005e2e:	002e      	movs	r6, r5
 8005e30:	9b01      	ldr	r3, [sp, #4]
 8005e32:	429e      	cmp	r6, r3
 8005e34:	db04      	blt.n	8005e40 <__s2b+0x7c>
 8005e36:	0008      	movs	r0, r1
 8005e38:	bdfe      	pop	{r1, r2, r3, r4, r5, r6, r7, pc}
 8005e3a:	2509      	movs	r5, #9
 8005e3c:	340a      	adds	r4, #10
 8005e3e:	e7f6      	b.n	8005e2e <__s2b+0x6a>
 8005e40:	1b63      	subs	r3, r4, r5
 8005e42:	5d9b      	ldrb	r3, [r3, r6]
 8005e44:	220a      	movs	r2, #10
 8005e46:	0038      	movs	r0, r7
 8005e48:	3b30      	subs	r3, #48	@ 0x30
 8005e4a:	f7ff ff77 	bl	8005d3c <__multadd>
 8005e4e:	3601      	adds	r6, #1
 8005e50:	0001      	movs	r1, r0
 8005e52:	e7ed      	b.n	8005e30 <__s2b+0x6c>
 8005e54:	080086c9 	.word	0x080086c9
 8005e58:	080086da 	.word	0x080086da

08005e5c <__hi0bits>:
 8005e5c:	2280      	movs	r2, #128	@ 0x80
 8005e5e:	0003      	movs	r3, r0
 8005e60:	0252      	lsls	r2, r2, #9
 8005e62:	2000      	movs	r0, #0
 8005e64:	4293      	cmp	r3, r2
 8005e66:	d201      	bcs.n	8005e6c <__hi0bits+0x10>
 8005e68:	041b      	lsls	r3, r3, #16
 8005e6a:	3010      	adds	r0, #16
 8005e6c:	2280      	movs	r2, #128	@ 0x80
 8005e6e:	0452      	lsls	r2, r2, #17
 8005e70:	4293      	cmp	r3, r2
 8005e72:	d201      	bcs.n	8005e78 <__hi0bits+0x1c>
 8005e74:	3008      	adds	r0, #8
 8005e76:	021b      	lsls	r3, r3, #8
 8005e78:	2280      	movs	r2, #128	@ 0x80
 8005e7a:	0552      	lsls	r2, r2, #21
 8005e7c:	4293      	cmp	r3, r2
 8005e7e:	d201      	bcs.n	8005e84 <__hi0bits+0x28>
 8005e80:	3004      	adds	r0, #4
 8005e82:	011b      	lsls	r3, r3, #4
 8005e84:	2280      	movs	r2, #128	@ 0x80
 8005e86:	05d2      	lsls	r2, r2, #23
 8005e88:	4293      	cmp	r3, r2
 8005e8a:	d201      	bcs.n	8005e90 <__hi0bits+0x34>
 8005e8c:	3002      	adds	r0, #2
 8005e8e:	009b      	lsls	r3, r3, #2
 8005e90:	2b00      	cmp	r3, #0
 8005e92:	db03      	blt.n	8005e9c <__hi0bits+0x40>
 8005e94:	3001      	adds	r0, #1
 8005e96:	4213      	tst	r3, r2
 8005e98:	d100      	bne.n	8005e9c <__hi0bits+0x40>
 8005e9a:	2020      	movs	r0, #32
 8005e9c:	4770      	bx	lr

08005e9e <__lo0bits>:
 8005e9e:	6803      	ldr	r3, [r0, #0]
 8005ea0:	0001      	movs	r1, r0
 8005ea2:	2207      	movs	r2, #7
 8005ea4:	0018      	movs	r0, r3
 8005ea6:	4010      	ands	r0, r2
 8005ea8:	4213      	tst	r3, r2
 8005eaa:	d00d      	beq.n	8005ec8 <__lo0bits+0x2a>
 8005eac:	3a06      	subs	r2, #6
 8005eae:	2000      	movs	r0, #0
 8005eb0:	4213      	tst	r3, r2
 8005eb2:	d105      	bne.n	8005ec0 <__lo0bits+0x22>
 8005eb4:	3002      	adds	r0, #2
 8005eb6:	4203      	tst	r3, r0
 8005eb8:	d003      	beq.n	8005ec2 <__lo0bits+0x24>
 8005eba:	40d3      	lsrs	r3, r2
 8005ebc:	0010      	movs	r0, r2
 8005ebe:	600b      	str	r3, [r1, #0]
 8005ec0:	4770      	bx	lr
 8005ec2:	089b      	lsrs	r3, r3, #2
 8005ec4:	600b      	str	r3, [r1, #0]
 8005ec6:	e7fb      	b.n	8005ec0 <__lo0bits+0x22>
 8005ec8:	b29a      	uxth	r2, r3
 8005eca:	2a00      	cmp	r2, #0
 8005ecc:	d101      	bne.n	8005ed2 <__lo0bits+0x34>
 8005ece:	2010      	movs	r0, #16
 8005ed0:	0c1b      	lsrs	r3, r3, #16
 8005ed2:	b2da      	uxtb	r2, r3
 8005ed4:	2a00      	cmp	r2, #0
 8005ed6:	d101      	bne.n	8005edc <__lo0bits+0x3e>
 8005ed8:	3008      	adds	r0, #8
 8005eda:	0a1b      	lsrs	r3, r3, #8
 8005edc:	071a      	lsls	r2, r3, #28
 8005ede:	d101      	bne.n	8005ee4 <__lo0bits+0x46>
 8005ee0:	3004      	adds	r0, #4
 8005ee2:	091b      	lsrs	r3, r3, #4
 8005ee4:	079a      	lsls	r2, r3, #30
 8005ee6:	d101      	bne.n	8005eec <__lo0bits+0x4e>
 8005ee8:	3002      	adds	r0, #2
 8005eea:	089b      	lsrs	r3, r3, #2
 8005eec:	07da      	lsls	r2, r3, #31
 8005eee:	d4e9      	bmi.n	8005ec4 <__lo0bits+0x26>
 8005ef0:	3001      	adds	r0, #1
 8005ef2:	085b      	lsrs	r3, r3, #1
 8005ef4:	d1e6      	bne.n	8005ec4 <__lo0bits+0x26>
 8005ef6:	2020      	movs	r0, #32
 8005ef8:	e7e2      	b.n	8005ec0 <__lo0bits+0x22>
	...

08005efc <__i2b>:
 8005efc:	b510      	push	{r4, lr}
 8005efe:	000c      	movs	r4, r1
 8005f00:	2101      	movs	r1, #1
 8005f02:	f7ff feb3 	bl	8005c6c <_Balloc>
 8005f06:	2800      	cmp	r0, #0
 8005f08:	d107      	bne.n	8005f1a <__i2b+0x1e>
 8005f0a:	2146      	movs	r1, #70	@ 0x46
 8005f0c:	4c05      	ldr	r4, [pc, #20]	@ (8005f24 <__i2b+0x28>)
 8005f0e:	0002      	movs	r2, r0
 8005f10:	4b05      	ldr	r3, [pc, #20]	@ (8005f28 <__i2b+0x2c>)
 8005f12:	0020      	movs	r0, r4
 8005f14:	31ff      	adds	r1, #255	@ 0xff
 8005f16:	f001 fc5f 	bl	80077d8 <__assert_func>
 8005f1a:	2301      	movs	r3, #1
 8005f1c:	6144      	str	r4, [r0, #20]
 8005f1e:	6103      	str	r3, [r0, #16]
 8005f20:	bd10      	pop	{r4, pc}
 8005f22:	46c0      	nop			@ (mov r8, r8)
 8005f24:	080086da 	.word	0x080086da
 8005f28:	080086c9 	.word	0x080086c9

08005f2c <__multiply>:
 8005f2c:	b5f0      	push	{r4, r5, r6, r7, lr}
 8005f2e:	0014      	movs	r4, r2
 8005f30:	690a      	ldr	r2, [r1, #16]
 8005f32:	6923      	ldr	r3, [r4, #16]
 8005f34:	000d      	movs	r5, r1
 8005f36:	b08b      	sub	sp, #44	@ 0x2c
 8005f38:	429a      	cmp	r2, r3
 8005f3a:	db02      	blt.n	8005f42 <__multiply+0x16>
 8005f3c:	0023      	movs	r3, r4
 8005f3e:	000c      	movs	r4, r1
 8005f40:	001d      	movs	r5, r3
 8005f42:	6927      	ldr	r7, [r4, #16]
 8005f44:	692e      	ldr	r6, [r5, #16]
 8005f46:	6861      	ldr	r1, [r4, #4]
 8005f48:	19bb      	adds	r3, r7, r6
 8005f4a:	9303      	str	r3, [sp, #12]
 8005f4c:	68a3      	ldr	r3, [r4, #8]
 8005f4e:	19ba      	adds	r2, r7, r6
 8005f50:	4293      	cmp	r3, r2
 8005f52:	da00      	bge.n	8005f56 <__multiply+0x2a>
 8005f54:	3101      	adds	r1, #1
 8005f56:	f7ff fe89 	bl	8005c6c <_Balloc>
 8005f5a:	9002      	str	r0, [sp, #8]
 8005f5c:	2800      	cmp	r0, #0
 8005f5e:	d106      	bne.n	8005f6e <__multiply+0x42>
 8005f60:	21b1      	movs	r1, #177	@ 0xb1
 8005f62:	4b49      	ldr	r3, [pc, #292]	@ (8006088 <__multiply+0x15c>)
 8005f64:	4849      	ldr	r0, [pc, #292]	@ (800608c <__multiply+0x160>)
 8005f66:	9a02      	ldr	r2, [sp, #8]
 8005f68:	0049      	lsls	r1, r1, #1
 8005f6a:	f001 fc35 	bl	80077d8 <__assert_func>
 8005f6e:	9b02      	ldr	r3, [sp, #8]
 8005f70:	2200      	movs	r2, #0
 8005f72:	3314      	adds	r3, #20
 8005f74:	469c      	mov	ip, r3
 8005f76:	19bb      	adds	r3, r7, r6
 8005f78:	009b      	lsls	r3, r3, #2
 8005f7a:	4463      	add	r3, ip
 8005f7c:	9304      	str	r3, [sp, #16]
 8005f7e:	4663      	mov	r3, ip
 8005f80:	9904      	ldr	r1, [sp, #16]
 8005f82:	428b      	cmp	r3, r1
 8005f84:	d32a      	bcc.n	8005fdc <__multiply+0xb0>
 8005f86:	0023      	movs	r3, r4
 8005f88:	00bf      	lsls	r7, r7, #2
 8005f8a:	3314      	adds	r3, #20
 8005f8c:	3514      	adds	r5, #20
 8005f8e:	9308      	str	r3, [sp, #32]
 8005f90:	00b6      	lsls	r6, r6, #2
 8005f92:	19db      	adds	r3, r3, r7
 8005f94:	9305      	str	r3, [sp, #20]
 8005f96:	19ab      	adds	r3, r5, r6
 8005f98:	9309      	str	r3, [sp, #36]	@ 0x24
 8005f9a:	2304      	movs	r3, #4
 8005f9c:	9306      	str	r3, [sp, #24]
 8005f9e:	0023      	movs	r3, r4
 8005fa0:	9a05      	ldr	r2, [sp, #20]
 8005fa2:	3315      	adds	r3, #21
 8005fa4:	9501      	str	r5, [sp, #4]
 8005fa6:	429a      	cmp	r2, r3
 8005fa8:	d305      	bcc.n	8005fb6 <__multiply+0x8a>
 8005faa:	1b13      	subs	r3, r2, r4
 8005fac:	3b15      	subs	r3, #21
 8005fae:	089b      	lsrs	r3, r3, #2
 8005fb0:	3301      	adds	r3, #1
 8005fb2:	009b      	lsls	r3, r3, #2
 8005fb4:	9306      	str	r3, [sp, #24]
 8005fb6:	9b01      	ldr	r3, [sp, #4]
 8005fb8:	9a09      	ldr	r2, [sp, #36]	@ 0x24
 8005fba:	4293      	cmp	r3, r2
 8005fbc:	d310      	bcc.n	8005fe0 <__multiply+0xb4>
 8005fbe:	9b03      	ldr	r3, [sp, #12]
 8005fc0:	2b00      	cmp	r3, #0
 8005fc2:	dd05      	ble.n	8005fd0 <__multiply+0xa4>
 8005fc4:	9b04      	ldr	r3, [sp, #16]
 8005fc6:	3b04      	subs	r3, #4
 8005fc8:	9304      	str	r3, [sp, #16]
 8005fca:	681b      	ldr	r3, [r3, #0]
 8005fcc:	2b00      	cmp	r3, #0
 8005fce:	d056      	beq.n	800607e <__multiply+0x152>
 8005fd0:	9b02      	ldr	r3, [sp, #8]
 8005fd2:	9a03      	ldr	r2, [sp, #12]
 8005fd4:	0018      	movs	r0, r3
 8005fd6:	611a      	str	r2, [r3, #16]
 8005fd8:	b00b      	add	sp, #44	@ 0x2c
 8005fda:	bdf0      	pop	{r4, r5, r6, r7, pc}
 8005fdc:	c304      	stmia	r3!, {r2}
 8005fde:	e7cf      	b.n	8005f80 <__multiply+0x54>
 8005fe0:	9b01      	ldr	r3, [sp, #4]
 8005fe2:	6818      	ldr	r0, [r3, #0]
 8005fe4:	b280      	uxth	r0, r0
 8005fe6:	2800      	cmp	r0, #0
 8005fe8:	d01e      	beq.n	8006028 <__multiply+0xfc>
 8005fea:	4667      	mov	r7, ip
 8005fec:	2500      	movs	r5, #0
 8005fee:	9e08      	ldr	r6, [sp, #32]
 8005ff0:	ce02      	ldmia	r6!, {r1}
 8005ff2:	683b      	ldr	r3, [r7, #0]
 8005ff4:	9307      	str	r3, [sp, #28]
 8005ff6:	b28b      	uxth	r3, r1
 8005ff8:	4343      	muls	r3, r0
 8005ffa:	001a      	movs	r2, r3
 8005ffc:	466b      	mov	r3, sp
 8005ffe:	0c09      	lsrs	r1, r1, #16
 8006000:	8b9b      	ldrh	r3, [r3, #28]
 8006002:	4341      	muls	r1, r0
 8006004:	18d3      	adds	r3, r2, r3
 8006006:	9a07      	ldr	r2, [sp, #28]
 8006008:	195b      	adds	r3, r3, r5
 800600a:	0c12      	lsrs	r2, r2, #16
 800600c:	1889      	adds	r1, r1, r2
 800600e:	0c1a      	lsrs	r2, r3, #16
 8006010:	188a      	adds	r2, r1, r2
 8006012:	b29b      	uxth	r3, r3
 8006014:	0c15      	lsrs	r5, r2, #16
 8006016:	0412      	lsls	r2, r2, #16
 8006018:	431a      	orrs	r2, r3
 800601a:	9b05      	ldr	r3, [sp, #20]
 800601c:	c704      	stmia	r7!, {r2}
 800601e:	42b3      	cmp	r3, r6
 8006020:	d8e6      	bhi.n	8005ff0 <__multiply+0xc4>
 8006022:	4663      	mov	r3, ip
 8006024:	9a06      	ldr	r2, [sp, #24]
 8006026:	509d      	str	r5, [r3, r2]
 8006028:	9b01      	ldr	r3, [sp, #4]
 800602a:	6818      	ldr	r0, [r3, #0]
 800602c:	0c00      	lsrs	r0, r0, #16
 800602e:	d020      	beq.n	8006072 <__multiply+0x146>
 8006030:	4663      	mov	r3, ip
 8006032:	0025      	movs	r5, r4
 8006034:	4661      	mov	r1, ip
 8006036:	2700      	movs	r7, #0
 8006038:	681b      	ldr	r3, [r3, #0]
 800603a:	3514      	adds	r5, #20
 800603c:	682a      	ldr	r2, [r5, #0]
 800603e:	680e      	ldr	r6, [r1, #0]
 8006040:	b292      	uxth	r2, r2
 8006042:	4342      	muls	r2, r0
 8006044:	0c36      	lsrs	r6, r6, #16
 8006046:	1992      	adds	r2, r2, r6
 8006048:	19d2      	adds	r2, r2, r7
 800604a:	0416      	lsls	r6, r2, #16
 800604c:	b29b      	uxth	r3, r3
 800604e:	431e      	orrs	r6, r3
 8006050:	600e      	str	r6, [r1, #0]
 8006052:	cd40      	ldmia	r5!, {r6}
 8006054:	684b      	ldr	r3, [r1, #4]
 8006056:	0c36      	lsrs	r6, r6, #16
 8006058:	4346      	muls	r6, r0
 800605a:	b29b      	uxth	r3, r3
 800605c:	0c12      	lsrs	r2, r2, #16
 800605e:	18f3      	adds	r3, r6, r3
 8006060:	189b      	adds	r3, r3, r2
 8006062:	9a05      	ldr	r2, [sp, #20]
 8006064:	0c1f      	lsrs	r7, r3, #16
 8006066:	3104      	adds	r1, #4
 8006068:	42aa      	cmp	r2, r5
 800606a:	d8e7      	bhi.n	800603c <__multiply+0x110>
 800606c:	4662      	mov	r2, ip
 800606e:	9906      	ldr	r1, [sp, #24]
 8006070:	5053      	str	r3, [r2, r1]
 8006072:	9b01      	ldr	r3, [sp, #4]
 8006074:	3304      	adds	r3, #4
 8006076:	9301      	str	r3, [sp, #4]
 8006078:	2304      	movs	r3, #4
 800607a:	449c      	add	ip, r3
 800607c:	e79b      	b.n	8005fb6 <__multiply+0x8a>
 800607e:	9b03      	ldr	r3, [sp, #12]
 8006080:	3b01      	subs	r3, #1
 8006082:	9303      	str	r3, [sp, #12]
 8006084:	e79b      	b.n	8005fbe <__multiply+0x92>
 8006086:	46c0      	nop			@ (mov r8, r8)
 8006088:	080086c9 	.word	0x080086c9
 800608c:	080086da 	.word	0x080086da

08006090 <__pow5mult>:
 8006090:	b5f7      	push	{r0, r1, r2, r4, r5, r6, r7, lr}
 8006092:	2303      	movs	r3, #3
 8006094:	0015      	movs	r5, r2
 8006096:	0007      	movs	r7, r0
 8006098:	000e      	movs	r6, r1
 800609a:	401a      	ands	r2, r3
 800609c:	421d      	tst	r5, r3
 800609e:	d008      	beq.n	80060b2 <__pow5mult+0x22>
 80060a0:	4925      	ldr	r1, [pc, #148]	@ (8006138 <__pow5mult+0xa8>)
 80060a2:	3a01      	subs	r2, #1
 80060a4:	0092      	lsls	r2, r2, #2
 80060a6:	5852      	ldr	r2, [r2, r1]
 80060a8:	2300      	movs	r3, #0
 80060aa:	0031      	movs	r1, r6
 80060ac:	f7ff fe46 	bl	8005d3c <__multadd>
 80060b0:	0006      	movs	r6, r0
 80060b2:	10ad      	asrs	r5, r5, #2
 80060b4:	d03d      	beq.n	8006132 <__pow5mult+0xa2>
 80060b6:	69fc      	ldr	r4, [r7, #28]
 80060b8:	2c00      	cmp	r4, #0
 80060ba:	d10f      	bne.n	80060dc <__pow5mult+0x4c>
 80060bc:	2010      	movs	r0, #16
 80060be:	f7ff fd19 	bl	8005af4 <malloc>
 80060c2:	1e02      	subs	r2, r0, #0
 80060c4:	61f8      	str	r0, [r7, #28]
 80060c6:	d105      	bne.n	80060d4 <__pow5mult+0x44>
 80060c8:	21b4      	movs	r1, #180	@ 0xb4
 80060ca:	4b1c      	ldr	r3, [pc, #112]	@ (800613c <__pow5mult+0xac>)
 80060cc:	481c      	ldr	r0, [pc, #112]	@ (8006140 <__pow5mult+0xb0>)
 80060ce:	31ff      	adds	r1, #255	@ 0xff
 80060d0:	f001 fb82 	bl	80077d8 <__assert_func>
 80060d4:	6044      	str	r4, [r0, #4]
 80060d6:	6084      	str	r4, [r0, #8]
 80060d8:	6004      	str	r4, [r0, #0]
 80060da:	60c4      	str	r4, [r0, #12]
 80060dc:	69fb      	ldr	r3, [r7, #28]
 80060de:	689c      	ldr	r4, [r3, #8]
 80060e0:	9301      	str	r3, [sp, #4]
 80060e2:	2c00      	cmp	r4, #0
 80060e4:	d108      	bne.n	80060f8 <__pow5mult+0x68>
 80060e6:	0038      	movs	r0, r7
 80060e8:	4916      	ldr	r1, [pc, #88]	@ (8006144 <__pow5mult+0xb4>)
 80060ea:	f7ff ff07 	bl	8005efc <__i2b>
 80060ee:	9b01      	ldr	r3, [sp, #4]
 80060f0:	0004      	movs	r4, r0
 80060f2:	6098      	str	r0, [r3, #8]
 80060f4:	2300      	movs	r3, #0
 80060f6:	6003      	str	r3, [r0, #0]
 80060f8:	2301      	movs	r3, #1
 80060fa:	421d      	tst	r5, r3
 80060fc:	d00a      	beq.n	8006114 <__pow5mult+0x84>
 80060fe:	0031      	movs	r1, r6
 8006100:	0022      	movs	r2, r4
 8006102:	0038      	movs	r0, r7
 8006104:	f7ff ff12 	bl	8005f2c <__multiply>
 8006108:	0031      	movs	r1, r6
 800610a:	9001      	str	r0, [sp, #4]
 800610c:	0038      	movs	r0, r7
 800610e:	f7ff fdf1 	bl	8005cf4 <_Bfree>
 8006112:	9e01      	ldr	r6, [sp, #4]
 8006114:	106d      	asrs	r5, r5, #1
 8006116:	d00c      	beq.n	8006132 <__pow5mult+0xa2>
 8006118:	6820      	ldr	r0, [r4, #0]
 800611a:	2800      	cmp	r0, #0
 800611c:	d107      	bne.n	800612e <__pow5mult+0x9e>
 800611e:	0022      	movs	r2, r4
 8006120:	0021      	movs	r1, r4
 8006122:	0038      	movs	r0, r7
 8006124:	f7ff ff02 	bl	8005f2c <__multiply>
 8006128:	2300      	movs	r3, #0
 800612a:	6020      	str	r0, [r4, #0]
 800612c:	6003      	str	r3, [r0, #0]
 800612e:	0004      	movs	r4, r0
 8006130:	e7e2      	b.n	80060f8 <__pow5mult+0x68>
 8006132:	0030      	movs	r0, r6
 8006134:	bdfe      	pop	{r1, r2, r3, r4, r5, r6, r7, pc}
 8006136:	46c0      	nop			@ (mov r8, r8)
 8006138:	08008734 	.word	0x08008734
 800613c:	0800865a 	.word	0x0800865a
 8006140:	080086da 	.word	0x080086da
 8006144:	00000271 	.word	0x00000271

08006148 <__lshift>:
 8006148:	b5f0      	push	{r4, r5, r6, r7, lr}
 800614a:	000c      	movs	r4, r1
 800614c:	0016      	movs	r6, r2
 800614e:	6923      	ldr	r3, [r4, #16]
 8006150:	1157      	asrs	r7, r2, #5
 8006152:	b085      	sub	sp, #20
 8006154:	18fb      	adds	r3, r7, r3
 8006156:	9301      	str	r3, [sp, #4]
 8006158:	3301      	adds	r3, #1
 800615a:	9300      	str	r3, [sp, #0]
 800615c:	6849      	ldr	r1, [r1, #4]
 800615e:	68a3      	ldr	r3, [r4, #8]
 8006160:	9002      	str	r0, [sp, #8]
 8006162:	9a00      	ldr	r2, [sp, #0]
 8006164:	4293      	cmp	r3, r2
 8006166:	db10      	blt.n	800618a <__lshift+0x42>
 8006168:	9802      	ldr	r0, [sp, #8]
 800616a:	f7ff fd7f 	bl	8005c6c <_Balloc>
 800616e:	2300      	movs	r3, #0
 8006170:	0001      	movs	r1, r0
 8006172:	0005      	movs	r5, r0
 8006174:	001a      	movs	r2, r3
 8006176:	3114      	adds	r1, #20
 8006178:	4298      	cmp	r0, r3
 800617a:	d10c      	bne.n	8006196 <__lshift+0x4e>
 800617c:	21ef      	movs	r1, #239	@ 0xef
 800617e:	002a      	movs	r2, r5
 8006180:	4b25      	ldr	r3, [pc, #148]	@ (8006218 <__lshift+0xd0>)
 8006182:	4826      	ldr	r0, [pc, #152]	@ (800621c <__lshift+0xd4>)
 8006184:	0049      	lsls	r1, r1, #1
 8006186:	f001 fb27 	bl	80077d8 <__assert_func>
 800618a:	3101      	adds	r1, #1
 800618c:	005b      	lsls	r3, r3, #1
 800618e:	e7e8      	b.n	8006162 <__lshift+0x1a>
 8006190:	0098      	lsls	r0, r3, #2
 8006192:	500a      	str	r2, [r1, r0]
 8006194:	3301      	adds	r3, #1
 8006196:	42bb      	cmp	r3, r7
 8006198:	dbfa      	blt.n	8006190 <__lshift+0x48>
 800619a:	43fb      	mvns	r3, r7
 800619c:	17db      	asrs	r3, r3, #31
 800619e:	401f      	ands	r7, r3
 80061a0:	00bf      	lsls	r7, r7, #2
 80061a2:	0023      	movs	r3, r4
 80061a4:	201f      	movs	r0, #31
 80061a6:	19c9      	adds	r1, r1, r7
 80061a8:	0037      	movs	r7, r6
 80061aa:	6922      	ldr	r2, [r4, #16]
 80061ac:	3314      	adds	r3, #20
 80061ae:	0092      	lsls	r2, r2, #2
 80061b0:	189a      	adds	r2, r3, r2
 80061b2:	4007      	ands	r7, r0
 80061b4:	4206      	tst	r6, r0
 80061b6:	d029      	beq.n	800620c <__lshift+0xc4>
 80061b8:	3001      	adds	r0, #1
 80061ba:	1bc0      	subs	r0, r0, r7
 80061bc:	9003      	str	r0, [sp, #12]
 80061be:	468c      	mov	ip, r1
 80061c0:	2000      	movs	r0, #0
 80061c2:	681e      	ldr	r6, [r3, #0]
 80061c4:	40be      	lsls	r6, r7
 80061c6:	4306      	orrs	r6, r0
 80061c8:	4660      	mov	r0, ip
 80061ca:	c040      	stmia	r0!, {r6}
 80061cc:	4684      	mov	ip, r0
 80061ce:	9e03      	ldr	r6, [sp, #12]
 80061d0:	cb01      	ldmia	r3!, {r0}
 80061d2:	40f0      	lsrs	r0, r6
 80061d4:	429a      	cmp	r2, r3
 80061d6:	d8f4      	bhi.n	80061c2 <__lshift+0x7a>
 80061d8:	0026      	movs	r6, r4
 80061da:	3615      	adds	r6, #21
 80061dc:	2304      	movs	r3, #4
 80061de:	42b2      	cmp	r2, r6
 80061e0:	d304      	bcc.n	80061ec <__lshift+0xa4>
 80061e2:	1b13      	subs	r3, r2, r4
 80061e4:	3b15      	subs	r3, #21
 80061e6:	089b      	lsrs	r3, r3, #2
 80061e8:	3301      	adds	r3, #1
 80061ea:	009b      	lsls	r3, r3, #2
 80061ec:	50c8      	str	r0, [r1, r3]
 80061ee:	2800      	cmp	r0, #0
 80061f0:	d002      	beq.n	80061f8 <__lshift+0xb0>
 80061f2:	9b01      	ldr	r3, [sp, #4]
 80061f4:	3302      	adds	r3, #2
 80061f6:	9300      	str	r3, [sp, #0]
 80061f8:	9b00      	ldr	r3, [sp, #0]
 80061fa:	9802      	ldr	r0, [sp, #8]
 80061fc:	3b01      	subs	r3, #1
 80061fe:	0021      	movs	r1, r4
 8006200:	612b      	str	r3, [r5, #16]
 8006202:	f7ff fd77 	bl	8005cf4 <_Bfree>
 8006206:	0028      	movs	r0, r5
 8006208:	b005      	add	sp, #20
 800620a:	bdf0      	pop	{r4, r5, r6, r7, pc}
 800620c:	cb01      	ldmia	r3!, {r0}
 800620e:	c101      	stmia	r1!, {r0}
 8006210:	429a      	cmp	r2, r3
 8006212:	d8fb      	bhi.n	800620c <__lshift+0xc4>
 8006214:	e7f0      	b.n	80061f8 <__lshift+0xb0>
 8006216:	46c0      	nop			@ (mov r8, r8)
 8006218:	080086c9 	.word	0x080086c9
 800621c:	080086da 	.word	0x080086da

08006220 <__mcmp>:
 8006220:	b530      	push	{r4, r5, lr}
 8006222:	690b      	ldr	r3, [r1, #16]
 8006224:	6904      	ldr	r4, [r0, #16]
 8006226:	0002      	movs	r2, r0
 8006228:	1ae0      	subs	r0, r4, r3
 800622a:	429c      	cmp	r4, r3
 800622c:	d10f      	bne.n	800624e <__mcmp+0x2e>
 800622e:	3214      	adds	r2, #20
 8006230:	009b      	lsls	r3, r3, #2
 8006232:	3114      	adds	r1, #20
 8006234:	0014      	movs	r4, r2
 8006236:	18c9      	adds	r1, r1, r3
 8006238:	18d2      	adds	r2, r2, r3
 800623a:	3a04      	subs	r2, #4
 800623c:	3904      	subs	r1, #4
 800623e:	6815      	ldr	r5, [r2, #0]
 8006240:	680b      	ldr	r3, [r1, #0]
 8006242:	429d      	cmp	r5, r3
 8006244:	d004      	beq.n	8006250 <__mcmp+0x30>
 8006246:	2001      	movs	r0, #1
 8006248:	429d      	cmp	r5, r3
 800624a:	d200      	bcs.n	800624e <__mcmp+0x2e>
 800624c:	3802      	subs	r0, #2
 800624e:	bd30      	pop	{r4, r5, pc}
 8006250:	4294      	cmp	r4, r2
 8006252:	d3f2      	bcc.n	800623a <__mcmp+0x1a>
 8006254:	e7fb      	b.n	800624e <__mcmp+0x2e>
	...

08006258 <__mdiff>:
 8006258:	b5f0      	push	{r4, r5, r6, r7, lr}
 800625a:	000c      	movs	r4, r1
 800625c:	b087      	sub	sp, #28
 800625e:	9000      	str	r0, [sp, #0]
 8006260:	0011      	movs	r1, r2
 8006262:	0020      	movs	r0, r4
 8006264:	0017      	movs	r7, r2
 8006266:	f7ff ffdb 	bl	8006220 <__mcmp>
 800626a:	1e05      	subs	r5, r0, #0
 800626c:	d110      	bne.n	8006290 <__mdiff+0x38>
 800626e:	0001      	movs	r1, r0
 8006270:	9800      	ldr	r0, [sp, #0]
 8006272:	f7ff fcfb 	bl	8005c6c <_Balloc>
 8006276:	1e02      	subs	r2, r0, #0
 8006278:	d104      	bne.n	8006284 <__mdiff+0x2c>
 800627a:	4b40      	ldr	r3, [pc, #256]	@ (800637c <__mdiff+0x124>)
 800627c:	4840      	ldr	r0, [pc, #256]	@ (8006380 <__mdiff+0x128>)
 800627e:	4941      	ldr	r1, [pc, #260]	@ (8006384 <__mdiff+0x12c>)
 8006280:	f001 faaa 	bl	80077d8 <__assert_func>
 8006284:	2301      	movs	r3, #1
 8006286:	6145      	str	r5, [r0, #20]
 8006288:	6103      	str	r3, [r0, #16]
 800628a:	0010      	movs	r0, r2
 800628c:	b007      	add	sp, #28
 800628e:	bdf0      	pop	{r4, r5, r6, r7, pc}
 8006290:	2600      	movs	r6, #0
 8006292:	42b0      	cmp	r0, r6
 8006294:	da03      	bge.n	800629e <__mdiff+0x46>
 8006296:	0023      	movs	r3, r4
 8006298:	003c      	movs	r4, r7
 800629a:	001f      	movs	r7, r3
 800629c:	3601      	adds	r6, #1
 800629e:	6861      	ldr	r1, [r4, #4]
 80062a0:	9800      	ldr	r0, [sp, #0]
 80062a2:	f7ff fce3 	bl	8005c6c <_Balloc>
 80062a6:	1e02      	subs	r2, r0, #0
 80062a8:	d103      	bne.n	80062b2 <__mdiff+0x5a>
 80062aa:	4b34      	ldr	r3, [pc, #208]	@ (800637c <__mdiff+0x124>)
 80062ac:	4834      	ldr	r0, [pc, #208]	@ (8006380 <__mdiff+0x128>)
 80062ae:	4936      	ldr	r1, [pc, #216]	@ (8006388 <__mdiff+0x130>)
 80062b0:	e7e6      	b.n	8006280 <__mdiff+0x28>
 80062b2:	6923      	ldr	r3, [r4, #16]
 80062b4:	3414      	adds	r4, #20
 80062b6:	9300      	str	r3, [sp, #0]
 80062b8:	009b      	lsls	r3, r3, #2
 80062ba:	18e3      	adds	r3, r4, r3
 80062bc:	0021      	movs	r1, r4
 80062be:	9401      	str	r4, [sp, #4]
 80062c0:	003c      	movs	r4, r7
 80062c2:	9302      	str	r3, [sp, #8]
 80062c4:	693b      	ldr	r3, [r7, #16]
 80062c6:	3414      	adds	r4, #20
 80062c8:	009b      	lsls	r3, r3, #2
 80062ca:	18e3      	adds	r3, r4, r3
 80062cc:	9303      	str	r3, [sp, #12]
 80062ce:	0003      	movs	r3, r0
 80062d0:	60c6      	str	r6, [r0, #12]
 80062d2:	468c      	mov	ip, r1
 80062d4:	2000      	movs	r0, #0
 80062d6:	3314      	adds	r3, #20
 80062d8:	9304      	str	r3, [sp, #16]
 80062da:	9305      	str	r3, [sp, #20]
 80062dc:	4663      	mov	r3, ip
 80062de:	cb20      	ldmia	r3!, {r5}
 80062e0:	b2a9      	uxth	r1, r5
 80062e2:	000e      	movs	r6, r1
 80062e4:	469c      	mov	ip, r3
 80062e6:	cc08      	ldmia	r4!, {r3}
 80062e8:	0c2d      	lsrs	r5, r5, #16
 80062ea:	b299      	uxth	r1, r3
 80062ec:	1a71      	subs	r1, r6, r1
 80062ee:	1809      	adds	r1, r1, r0
 80062f0:	0c1b      	lsrs	r3, r3, #16
 80062f2:	1408      	asrs	r0, r1, #16
 80062f4:	1aeb      	subs	r3, r5, r3
 80062f6:	181b      	adds	r3, r3, r0
 80062f8:	1418      	asrs	r0, r3, #16
 80062fa:	b289      	uxth	r1, r1
 80062fc:	041b      	lsls	r3, r3, #16
 80062fe:	4319      	orrs	r1, r3
 8006300:	9b05      	ldr	r3, [sp, #20]
 8006302:	c302      	stmia	r3!, {r1}
 8006304:	9305      	str	r3, [sp, #20]
 8006306:	9b03      	ldr	r3, [sp, #12]
 8006308:	42a3      	cmp	r3, r4
 800630a:	d8e7      	bhi.n	80062dc <__mdiff+0x84>
 800630c:	0039      	movs	r1, r7
 800630e:	9c03      	ldr	r4, [sp, #12]
 8006310:	3115      	adds	r1, #21
 8006312:	2304      	movs	r3, #4
 8006314:	428c      	cmp	r4, r1
 8006316:	d304      	bcc.n	8006322 <__mdiff+0xca>
 8006318:	1be3      	subs	r3, r4, r7
 800631a:	3b15      	subs	r3, #21
 800631c:	089b      	lsrs	r3, r3, #2
 800631e:	3301      	adds	r3, #1
 8006320:	009b      	lsls	r3, r3, #2
 8006322:	9901      	ldr	r1, [sp, #4]
 8006324:	18cd      	adds	r5, r1, r3
 8006326:	9904      	ldr	r1, [sp, #16]
 8006328:	002e      	movs	r6, r5
 800632a:	18cb      	adds	r3, r1, r3
 800632c:	001f      	movs	r7, r3
 800632e:	9902      	ldr	r1, [sp, #8]
 8006330:	428e      	cmp	r6, r1
 8006332:	d311      	bcc.n	8006358 <__mdiff+0x100>
 8006334:	9c02      	ldr	r4, [sp, #8]
 8006336:	1ee9      	subs	r1, r5, #3
 8006338:	2000      	movs	r0, #0
 800633a:	428c      	cmp	r4, r1
 800633c:	d304      	bcc.n	8006348 <__mdiff+0xf0>
 800633e:	0021      	movs	r1, r4
 8006340:	3103      	adds	r1, #3
 8006342:	1b49      	subs	r1, r1, r5
 8006344:	0889      	lsrs	r1, r1, #2
 8006346:	0088      	lsls	r0, r1, #2
 8006348:	181b      	adds	r3, r3, r0
 800634a:	3b04      	subs	r3, #4
 800634c:	6819      	ldr	r1, [r3, #0]
 800634e:	2900      	cmp	r1, #0
 8006350:	d010      	beq.n	8006374 <__mdiff+0x11c>
 8006352:	9b00      	ldr	r3, [sp, #0]
 8006354:	6113      	str	r3, [r2, #16]
 8006356:	e798      	b.n	800628a <__mdiff+0x32>
 8006358:	4684      	mov	ip, r0
 800635a:	ce02      	ldmia	r6!, {r1}
 800635c:	b288      	uxth	r0, r1
 800635e:	4460      	add	r0, ip
 8006360:	1400      	asrs	r0, r0, #16
 8006362:	0c0c      	lsrs	r4, r1, #16
 8006364:	1904      	adds	r4, r0, r4
 8006366:	4461      	add	r1, ip
 8006368:	1420      	asrs	r0, r4, #16
 800636a:	b289      	uxth	r1, r1
 800636c:	0424      	lsls	r4, r4, #16
 800636e:	4321      	orrs	r1, r4
 8006370:	c702      	stmia	r7!, {r1}
 8006372:	e7dc      	b.n	800632e <__mdiff+0xd6>
 8006374:	9900      	ldr	r1, [sp, #0]
 8006376:	3901      	subs	r1, #1
 8006378:	9100      	str	r1, [sp, #0]
 800637a:	e7e6      	b.n	800634a <__mdiff+0xf2>
 800637c:	080086c9 	.word	0x080086c9
 8006380:	080086da 	.word	0x080086da
 8006384:	00000237 	.word	0x00000237
 8006388:	00000245 	.word	0x00000245

0800638c <__ulp>:
 800638c:	b510      	push	{r4, lr}
 800638e:	2400      	movs	r4, #0
 8006390:	4b0c      	ldr	r3, [pc, #48]	@ (80063c4 <__ulp+0x38>)
 8006392:	4a0d      	ldr	r2, [pc, #52]	@ (80063c8 <__ulp+0x3c>)
 8006394:	400b      	ands	r3, r1
 8006396:	189b      	adds	r3, r3, r2
 8006398:	42a3      	cmp	r3, r4
 800639a:	dc06      	bgt.n	80063aa <__ulp+0x1e>
 800639c:	425b      	negs	r3, r3
 800639e:	151a      	asrs	r2, r3, #20
 80063a0:	2a13      	cmp	r2, #19
 80063a2:	dc05      	bgt.n	80063b0 <__ulp+0x24>
 80063a4:	2380      	movs	r3, #128	@ 0x80
 80063a6:	031b      	lsls	r3, r3, #12
 80063a8:	4113      	asrs	r3, r2
 80063aa:	0019      	movs	r1, r3
 80063ac:	0020      	movs	r0, r4
 80063ae:	bd10      	pop	{r4, pc}
 80063b0:	3a14      	subs	r2, #20
 80063b2:	2401      	movs	r4, #1
 80063b4:	2a1e      	cmp	r2, #30
 80063b6:	dc02      	bgt.n	80063be <__ulp+0x32>
 80063b8:	2480      	movs	r4, #128	@ 0x80
 80063ba:	0624      	lsls	r4, r4, #24
 80063bc:	40d4      	lsrs	r4, r2
 80063be:	2300      	movs	r3, #0
 80063c0:	e7f3      	b.n	80063aa <__ulp+0x1e>
 80063c2:	46c0      	nop			@ (mov r8, r8)
 80063c4:	7ff00000 	.word	0x7ff00000
 80063c8:	fcc00000 	.word	0xfcc00000

080063cc <__b2d>:
 80063cc:	b5f7      	push	{r0, r1, r2, r4, r5, r6, r7, lr}
 80063ce:	0006      	movs	r6, r0
 80063d0:	6903      	ldr	r3, [r0, #16]
 80063d2:	3614      	adds	r6, #20
 80063d4:	009b      	lsls	r3, r3, #2
 80063d6:	18f3      	adds	r3, r6, r3
 80063d8:	1f1d      	subs	r5, r3, #4
 80063da:	682c      	ldr	r4, [r5, #0]
 80063dc:	000f      	movs	r7, r1
 80063de:	0020      	movs	r0, r4
 80063e0:	9301      	str	r3, [sp, #4]
 80063e2:	f7ff fd3b 	bl	8005e5c <__hi0bits>
 80063e6:	2220      	movs	r2, #32
 80063e8:	1a12      	subs	r2, r2, r0
 80063ea:	603a      	str	r2, [r7, #0]
 80063ec:	0003      	movs	r3, r0
 80063ee:	4a1c      	ldr	r2, [pc, #112]	@ (8006460 <__b2d+0x94>)
 80063f0:	280a      	cmp	r0, #10
 80063f2:	dc15      	bgt.n	8006420 <__b2d+0x54>
 80063f4:	210b      	movs	r1, #11
 80063f6:	0027      	movs	r7, r4
 80063f8:	1a09      	subs	r1, r1, r0
 80063fa:	40cf      	lsrs	r7, r1
 80063fc:	433a      	orrs	r2, r7
 80063fe:	468c      	mov	ip, r1
 8006400:	0011      	movs	r1, r2
 8006402:	2200      	movs	r2, #0
 8006404:	42ae      	cmp	r6, r5
 8006406:	d202      	bcs.n	800640e <__b2d+0x42>
 8006408:	9a01      	ldr	r2, [sp, #4]
 800640a:	3a08      	subs	r2, #8
 800640c:	6812      	ldr	r2, [r2, #0]
 800640e:	3315      	adds	r3, #21
 8006410:	409c      	lsls	r4, r3
 8006412:	4663      	mov	r3, ip
 8006414:	0027      	movs	r7, r4
 8006416:	40da      	lsrs	r2, r3
 8006418:	4317      	orrs	r7, r2
 800641a:	0038      	movs	r0, r7
 800641c:	b003      	add	sp, #12
 800641e:	bdf0      	pop	{r4, r5, r6, r7, pc}
 8006420:	2700      	movs	r7, #0
 8006422:	42ae      	cmp	r6, r5
 8006424:	d202      	bcs.n	800642c <__b2d+0x60>
 8006426:	9d01      	ldr	r5, [sp, #4]
 8006428:	3d08      	subs	r5, #8
 800642a:	682f      	ldr	r7, [r5, #0]
 800642c:	210b      	movs	r1, #11
 800642e:	4249      	negs	r1, r1
 8006430:	468c      	mov	ip, r1
 8006432:	449c      	add	ip, r3
 8006434:	2b0b      	cmp	r3, #11
 8006436:	d010      	beq.n	800645a <__b2d+0x8e>
 8006438:	4661      	mov	r1, ip
 800643a:	2320      	movs	r3, #32
 800643c:	408c      	lsls	r4, r1
 800643e:	1a5b      	subs	r3, r3, r1
 8006440:	0039      	movs	r1, r7
 8006442:	40d9      	lsrs	r1, r3
 8006444:	430c      	orrs	r4, r1
 8006446:	4322      	orrs	r2, r4
 8006448:	0011      	movs	r1, r2
 800644a:	2200      	movs	r2, #0
 800644c:	42b5      	cmp	r5, r6
 800644e:	d901      	bls.n	8006454 <__b2d+0x88>
 8006450:	3d04      	subs	r5, #4
 8006452:	682a      	ldr	r2, [r5, #0]
 8006454:	4664      	mov	r4, ip
 8006456:	40a7      	lsls	r7, r4
 8006458:	e7dd      	b.n	8006416 <__b2d+0x4a>
 800645a:	4322      	orrs	r2, r4
 800645c:	0011      	movs	r1, r2
 800645e:	e7dc      	b.n	800641a <__b2d+0x4e>
 8006460:	3ff00000 	.word	0x3ff00000

08006464 <__d2b>:
 8006464:	b5f7      	push	{r0, r1, r2, r4, r5, r6, r7, lr}
 8006466:	2101      	movs	r1, #1
 8006468:	0016      	movs	r6, r2
 800646a:	001f      	movs	r7, r3
 800646c:	f7ff fbfe 	bl	8005c6c <_Balloc>
 8006470:	1e04      	subs	r4, r0, #0
 8006472:	d105      	bne.n	8006480 <__d2b+0x1c>
 8006474:	0022      	movs	r2, r4
 8006476:	4b25      	ldr	r3, [pc, #148]	@ (800650c <__d2b+0xa8>)
 8006478:	4825      	ldr	r0, [pc, #148]	@ (8006510 <__d2b+0xac>)
 800647a:	4926      	ldr	r1, [pc, #152]	@ (8006514 <__d2b+0xb0>)
 800647c:	f001 f9ac 	bl	80077d8 <__assert_func>
 8006480:	033b      	lsls	r3, r7, #12
 8006482:	007d      	lsls	r5, r7, #1
 8006484:	0b1b      	lsrs	r3, r3, #12
 8006486:	0d6d      	lsrs	r5, r5, #21
 8006488:	d002      	beq.n	8006490 <__d2b+0x2c>
 800648a:	2280      	movs	r2, #128	@ 0x80
 800648c:	0352      	lsls	r2, r2, #13
 800648e:	4313      	orrs	r3, r2
 8006490:	9301      	str	r3, [sp, #4]
 8006492:	2e00      	cmp	r6, #0
 8006494:	d025      	beq.n	80064e2 <__d2b+0x7e>
 8006496:	4668      	mov	r0, sp
 8006498:	9600      	str	r6, [sp, #0]
 800649a:	f7ff fd00 	bl	8005e9e <__lo0bits>
 800649e:	9b01      	ldr	r3, [sp, #4]
 80064a0:	9900      	ldr	r1, [sp, #0]
 80064a2:	2800      	cmp	r0, #0
 80064a4:	d01b      	beq.n	80064de <__d2b+0x7a>
 80064a6:	2220      	movs	r2, #32
 80064a8:	001e      	movs	r6, r3
 80064aa:	1a12      	subs	r2, r2, r0
 80064ac:	4096      	lsls	r6, r2
 80064ae:	0032      	movs	r2, r6
 80064b0:	40c3      	lsrs	r3, r0
 80064b2:	430a      	orrs	r2, r1
 80064b4:	6162      	str	r2, [r4, #20]
 80064b6:	9301      	str	r3, [sp, #4]
 80064b8:	9e01      	ldr	r6, [sp, #4]
 80064ba:	61a6      	str	r6, [r4, #24]
 80064bc:	1e73      	subs	r3, r6, #1
 80064be:	419e      	sbcs	r6, r3
 80064c0:	3601      	adds	r6, #1
 80064c2:	6126      	str	r6, [r4, #16]
 80064c4:	2d00      	cmp	r5, #0
 80064c6:	d014      	beq.n	80064f2 <__d2b+0x8e>
 80064c8:	2635      	movs	r6, #53	@ 0x35
 80064ca:	4b13      	ldr	r3, [pc, #76]	@ (8006518 <__d2b+0xb4>)
 80064cc:	18ed      	adds	r5, r5, r3
 80064ce:	9b08      	ldr	r3, [sp, #32]
 80064d0:	182d      	adds	r5, r5, r0
 80064d2:	601d      	str	r5, [r3, #0]
 80064d4:	9b09      	ldr	r3, [sp, #36]	@ 0x24
 80064d6:	1a36      	subs	r6, r6, r0
 80064d8:	601e      	str	r6, [r3, #0]
 80064da:	0020      	movs	r0, r4
 80064dc:	bdfe      	pop	{r1, r2, r3, r4, r5, r6, r7, pc}
 80064de:	6161      	str	r1, [r4, #20]
 80064e0:	e7ea      	b.n	80064b8 <__d2b+0x54>
 80064e2:	a801      	add	r0, sp, #4
 80064e4:	f7ff fcdb 	bl	8005e9e <__lo0bits>
 80064e8:	9b01      	ldr	r3, [sp, #4]
 80064ea:	2601      	movs	r6, #1
 80064ec:	6163      	str	r3, [r4, #20]
 80064ee:	3020      	adds	r0, #32
 80064f0:	e7e7      	b.n	80064c2 <__d2b+0x5e>
 80064f2:	4b0a      	ldr	r3, [pc, #40]	@ (800651c <__d2b+0xb8>)
 80064f4:	18c0      	adds	r0, r0, r3
 80064f6:	9b08      	ldr	r3, [sp, #32]
 80064f8:	6018      	str	r0, [r3, #0]
 80064fa:	4b09      	ldr	r3, [pc, #36]	@ (8006520 <__d2b+0xbc>)
 80064fc:	18f3      	adds	r3, r6, r3
 80064fe:	009b      	lsls	r3, r3, #2
 8006500:	18e3      	adds	r3, r4, r3
 8006502:	6958      	ldr	r0, [r3, #20]
 8006504:	f7ff fcaa 	bl	8005e5c <__hi0bits>
 8006508:	0176      	lsls	r6, r6, #5
 800650a:	e7e3      	b.n	80064d4 <__d2b+0x70>
 800650c:	080086c9 	.word	0x080086c9
 8006510:	080086da 	.word	0x080086da
 8006514:	0000030f 	.word	0x0000030f
 8006518:	fffffbcd 	.word	0xfffffbcd
 800651c:	fffffbce 	.word	0xfffffbce
 8006520:	3fffffff 	.word	0x3fffffff

08006524 <__ratio>:
 8006524:	b5f0      	push	{r4, r5, r6, r7, lr}
 8006526:	b087      	sub	sp, #28
 8006528:	000f      	movs	r7, r1
 800652a:	a904      	add	r1, sp, #16
 800652c:	0006      	movs	r6, r0
 800652e:	f7ff ff4d 	bl	80063cc <__b2d>
 8006532:	9000      	str	r0, [sp, #0]
 8006534:	9101      	str	r1, [sp, #4]
 8006536:	9b00      	ldr	r3, [sp, #0]
 8006538:	9c01      	ldr	r4, [sp, #4]
 800653a:	0038      	movs	r0, r7
 800653c:	a905      	add	r1, sp, #20
 800653e:	9302      	str	r3, [sp, #8]
 8006540:	9403      	str	r4, [sp, #12]
 8006542:	f7ff ff43 	bl	80063cc <__b2d>
 8006546:	000d      	movs	r5, r1
 8006548:	0002      	movs	r2, r0
 800654a:	000b      	movs	r3, r1
 800654c:	6930      	ldr	r0, [r6, #16]
 800654e:	6939      	ldr	r1, [r7, #16]
 8006550:	9e04      	ldr	r6, [sp, #16]
 8006552:	1a40      	subs	r0, r0, r1
 8006554:	9905      	ldr	r1, [sp, #20]
 8006556:	0140      	lsls	r0, r0, #5
 8006558:	1a71      	subs	r1, r6, r1
 800655a:	1841      	adds	r1, r0, r1
 800655c:	0508      	lsls	r0, r1, #20
 800655e:	2900      	cmp	r1, #0
 8006560:	dd08      	ble.n	8006574 <__ratio+0x50>
 8006562:	9901      	ldr	r1, [sp, #4]
 8006564:	1841      	adds	r1, r0, r1
 8006566:	9103      	str	r1, [sp, #12]
 8006568:	9802      	ldr	r0, [sp, #8]
 800656a:	9903      	ldr	r1, [sp, #12]
 800656c:	f7fa fe8a 	bl	8001284 <__aeabi_ddiv>
 8006570:	b007      	add	sp, #28
 8006572:	bdf0      	pop	{r4, r5, r6, r7, pc}
 8006574:	1a2b      	subs	r3, r5, r0
 8006576:	e7f7      	b.n	8006568 <__ratio+0x44>

08006578 <__copybits>:
 8006578:	b570      	push	{r4, r5, r6, lr}
 800657a:	0014      	movs	r4, r2
 800657c:	0005      	movs	r5, r0
 800657e:	3901      	subs	r1, #1
 8006580:	6913      	ldr	r3, [r2, #16]
 8006582:	1149      	asrs	r1, r1, #5
 8006584:	3101      	adds	r1, #1
 8006586:	0089      	lsls	r1, r1, #2
 8006588:	3414      	adds	r4, #20
 800658a:	009b      	lsls	r3, r3, #2
 800658c:	1841      	adds	r1, r0, r1
 800658e:	18e3      	adds	r3, r4, r3
 8006590:	42a3      	cmp	r3, r4
 8006592:	d80d      	bhi.n	80065b0 <__copybits+0x38>
 8006594:	0014      	movs	r4, r2
 8006596:	3411      	adds	r4, #17
 8006598:	2500      	movs	r5, #0
 800659a:	429c      	cmp	r4, r3
 800659c:	d803      	bhi.n	80065a6 <__copybits+0x2e>
 800659e:	1a9b      	subs	r3, r3, r2
 80065a0:	3b11      	subs	r3, #17
 80065a2:	089b      	lsrs	r3, r3, #2
 80065a4:	009d      	lsls	r5, r3, #2
 80065a6:	2300      	movs	r3, #0
 80065a8:	1940      	adds	r0, r0, r5
 80065aa:	4281      	cmp	r1, r0
 80065ac:	d803      	bhi.n	80065b6 <__copybits+0x3e>
 80065ae:	bd70      	pop	{r4, r5, r6, pc}
 80065b0:	cc40      	ldmia	r4!, {r6}
 80065b2:	c540      	stmia	r5!, {r6}
 80065b4:	e7ec      	b.n	8006590 <__copybits+0x18>
 80065b6:	c008      	stmia	r0!, {r3}
 80065b8:	e7f7      	b.n	80065aa <__copybits+0x32>

080065ba <__any_on>:
 80065ba:	0002      	movs	r2, r0
 80065bc:	6900      	ldr	r0, [r0, #16]
 80065be:	b510      	push	{r4, lr}
 80065c0:	3214      	adds	r2, #20
 80065c2:	114b      	asrs	r3, r1, #5
 80065c4:	4298      	cmp	r0, r3
 80065c6:	db13      	blt.n	80065f0 <__any_on+0x36>
 80065c8:	dd0c      	ble.n	80065e4 <__any_on+0x2a>
 80065ca:	241f      	movs	r4, #31
 80065cc:	0008      	movs	r0, r1
 80065ce:	4020      	ands	r0, r4
 80065d0:	4221      	tst	r1, r4
 80065d2:	d007      	beq.n	80065e4 <__any_on+0x2a>
 80065d4:	0099      	lsls	r1, r3, #2
 80065d6:	588c      	ldr	r4, [r1, r2]
 80065d8:	0021      	movs	r1, r4
 80065da:	40c1      	lsrs	r1, r0
 80065dc:	4081      	lsls	r1, r0
 80065de:	2001      	movs	r0, #1
 80065e0:	428c      	cmp	r4, r1
 80065e2:	d104      	bne.n	80065ee <__any_on+0x34>
 80065e4:	009b      	lsls	r3, r3, #2
 80065e6:	18d3      	adds	r3, r2, r3
 80065e8:	4293      	cmp	r3, r2
 80065ea:	d803      	bhi.n	80065f4 <__any_on+0x3a>
 80065ec:	2000      	movs	r0, #0
 80065ee:	bd10      	pop	{r4, pc}
 80065f0:	0003      	movs	r3, r0
 80065f2:	e7f7      	b.n	80065e4 <__any_on+0x2a>
 80065f4:	3b04      	subs	r3, #4
 80065f6:	6819      	ldr	r1, [r3, #0]
 80065f8:	2900      	cmp	r1, #0
 80065fa:	d0f5      	beq.n	80065e8 <__any_on+0x2e>
 80065fc:	2001      	movs	r0, #1
 80065fe:	e7f6      	b.n	80065ee <__any_on+0x34>

08006600 <sulp>:
 8006600:	b570      	push	{r4, r5, r6, lr}
 8006602:	0016      	movs	r6, r2
 8006604:	000d      	movs	r5, r1
 8006606:	f7ff fec1 	bl	800638c <__ulp>
 800660a:	2e00      	cmp	r6, #0
 800660c:	d00d      	beq.n	800662a <sulp+0x2a>
 800660e:	236b      	movs	r3, #107	@ 0x6b
 8006610:	006a      	lsls	r2, r5, #1
 8006612:	0d52      	lsrs	r2, r2, #21
 8006614:	1a9b      	subs	r3, r3, r2
 8006616:	2b00      	cmp	r3, #0
 8006618:	dd07      	ble.n	800662a <sulp+0x2a>
 800661a:	2400      	movs	r4, #0
 800661c:	4a03      	ldr	r2, [pc, #12]	@ (800662c <sulp+0x2c>)
 800661e:	051b      	lsls	r3, r3, #20
 8006620:	189d      	adds	r5, r3, r2
 8006622:	002b      	movs	r3, r5
 8006624:	0022      	movs	r2, r4
 8006626:	f7fb fa71 	bl	8001b0c <__aeabi_dmul>
 800662a:	bd70      	pop	{r4, r5, r6, pc}
 800662c:	3ff00000 	.word	0x3ff00000

08006630 <_strtod_l>:
 8006630:	b5f0      	push	{r4, r5, r6, r7, lr}
 8006632:	b0a3      	sub	sp, #140	@ 0x8c
 8006634:	921b      	str	r2, [sp, #108]	@ 0x6c
 8006636:	2200      	movs	r2, #0
 8006638:	2600      	movs	r6, #0
 800663a:	2700      	movs	r7, #0
 800663c:	9005      	str	r0, [sp, #20]
 800663e:	9109      	str	r1, [sp, #36]	@ 0x24
 8006640:	921e      	str	r2, [sp, #120]	@ 0x78
 8006642:	911d      	str	r1, [sp, #116]	@ 0x74
 8006644:	780a      	ldrb	r2, [r1, #0]
 8006646:	2a2b      	cmp	r2, #43	@ 0x2b
 8006648:	d053      	beq.n	80066f2 <_strtod_l+0xc2>
 800664a:	d83f      	bhi.n	80066cc <_strtod_l+0x9c>
 800664c:	2a0d      	cmp	r2, #13
 800664e:	d839      	bhi.n	80066c4 <_strtod_l+0x94>
 8006650:	2a08      	cmp	r2, #8
 8006652:	d839      	bhi.n	80066c8 <_strtod_l+0x98>
 8006654:	2a00      	cmp	r2, #0
 8006656:	d042      	beq.n	80066de <_strtod_l+0xae>
 8006658:	2200      	movs	r2, #0
 800665a:	9212      	str	r2, [sp, #72]	@ 0x48
 800665c:	2100      	movs	r1, #0
 800665e:	9d1d      	ldr	r5, [sp, #116]	@ 0x74
 8006660:	910c      	str	r1, [sp, #48]	@ 0x30
 8006662:	782a      	ldrb	r2, [r5, #0]
 8006664:	2a30      	cmp	r2, #48	@ 0x30
 8006666:	d000      	beq.n	800666a <_strtod_l+0x3a>
 8006668:	e083      	b.n	8006772 <_strtod_l+0x142>
 800666a:	786a      	ldrb	r2, [r5, #1]
 800666c:	3120      	adds	r1, #32
 800666e:	438a      	bics	r2, r1
 8006670:	2a58      	cmp	r2, #88	@ 0x58
 8006672:	d000      	beq.n	8006676 <_strtod_l+0x46>
 8006674:	e073      	b.n	800675e <_strtod_l+0x12e>
 8006676:	9302      	str	r3, [sp, #8]
 8006678:	9b12      	ldr	r3, [sp, #72]	@ 0x48
 800667a:	4a95      	ldr	r2, [pc, #596]	@ (80068d0 <_strtod_l+0x2a0>)
 800667c:	9301      	str	r3, [sp, #4]
 800667e:	ab1e      	add	r3, sp, #120	@ 0x78
 8006680:	9300      	str	r3, [sp, #0]
 8006682:	9805      	ldr	r0, [sp, #20]
 8006684:	ab1f      	add	r3, sp, #124	@ 0x7c
 8006686:	a91d      	add	r1, sp, #116	@ 0x74
 8006688:	f001 f95a 	bl	8007940 <__gethex>
 800668c:	230f      	movs	r3, #15
 800668e:	0002      	movs	r2, r0
 8006690:	401a      	ands	r2, r3
 8006692:	0004      	movs	r4, r0
 8006694:	9206      	str	r2, [sp, #24]
 8006696:	4218      	tst	r0, r3
 8006698:	d005      	beq.n	80066a6 <_strtod_l+0x76>
 800669a:	2a06      	cmp	r2, #6
 800669c:	d12b      	bne.n	80066f6 <_strtod_l+0xc6>
 800669e:	2300      	movs	r3, #0
 80066a0:	3501      	adds	r5, #1
 80066a2:	951d      	str	r5, [sp, #116]	@ 0x74
 80066a4:	9312      	str	r3, [sp, #72]	@ 0x48
 80066a6:	9b1b      	ldr	r3, [sp, #108]	@ 0x6c
 80066a8:	2b00      	cmp	r3, #0
 80066aa:	d002      	beq.n	80066b2 <_strtod_l+0x82>
 80066ac:	9b1d      	ldr	r3, [sp, #116]	@ 0x74
 80066ae:	9a1b      	ldr	r2, [sp, #108]	@ 0x6c
 80066b0:	6013      	str	r3, [r2, #0]
 80066b2:	9b12      	ldr	r3, [sp, #72]	@ 0x48
 80066b4:	2b00      	cmp	r3, #0
 80066b6:	d019      	beq.n	80066ec <_strtod_l+0xbc>
 80066b8:	2380      	movs	r3, #128	@ 0x80
 80066ba:	0030      	movs	r0, r6
 80066bc:	061b      	lsls	r3, r3, #24
 80066be:	18f9      	adds	r1, r7, r3
 80066c0:	b023      	add	sp, #140	@ 0x8c
 80066c2:	bdf0      	pop	{r4, r5, r6, r7, pc}
 80066c4:	2a20      	cmp	r2, #32
 80066c6:	d1c7      	bne.n	8006658 <_strtod_l+0x28>
 80066c8:	3101      	adds	r1, #1
 80066ca:	e7ba      	b.n	8006642 <_strtod_l+0x12>
 80066cc:	2a2d      	cmp	r2, #45	@ 0x2d
 80066ce:	d1c3      	bne.n	8006658 <_strtod_l+0x28>
 80066d0:	3a2c      	subs	r2, #44	@ 0x2c
 80066d2:	9212      	str	r2, [sp, #72]	@ 0x48
 80066d4:	1c4a      	adds	r2, r1, #1
 80066d6:	921d      	str	r2, [sp, #116]	@ 0x74
 80066d8:	784a      	ldrb	r2, [r1, #1]
 80066da:	2a00      	cmp	r2, #0
 80066dc:	d1be      	bne.n	800665c <_strtod_l+0x2c>
 80066de:	9b09      	ldr	r3, [sp, #36]	@ 0x24
 80066e0:	931d      	str	r3, [sp, #116]	@ 0x74
 80066e2:	2300      	movs	r3, #0
 80066e4:	9312      	str	r3, [sp, #72]	@ 0x48
 80066e6:	9b1b      	ldr	r3, [sp, #108]	@ 0x6c
 80066e8:	2b00      	cmp	r3, #0
 80066ea:	d1df      	bne.n	80066ac <_strtod_l+0x7c>
 80066ec:	0030      	movs	r0, r6
 80066ee:	0039      	movs	r1, r7
 80066f0:	e7e6      	b.n	80066c0 <_strtod_l+0x90>
 80066f2:	2200      	movs	r2, #0
 80066f4:	e7ed      	b.n	80066d2 <_strtod_l+0xa2>
 80066f6:	9a1e      	ldr	r2, [sp, #120]	@ 0x78
 80066f8:	2a00      	cmp	r2, #0
 80066fa:	d007      	beq.n	800670c <_strtod_l+0xdc>
 80066fc:	2135      	movs	r1, #53	@ 0x35
 80066fe:	a820      	add	r0, sp, #128	@ 0x80
 8006700:	f7ff ff3a 	bl	8006578 <__copybits>
 8006704:	991e      	ldr	r1, [sp, #120]	@ 0x78
 8006706:	9805      	ldr	r0, [sp, #20]
 8006708:	f7ff faf4 	bl	8005cf4 <_Bfree>
 800670c:	9806      	ldr	r0, [sp, #24]
 800670e:	9b1f      	ldr	r3, [sp, #124]	@ 0x7c
 8006710:	3801      	subs	r0, #1
 8006712:	2804      	cmp	r0, #4
 8006714:	d806      	bhi.n	8006724 <_strtod_l+0xf4>
 8006716:	f7f9 fcfd 	bl	8000114 <__gnu_thumb1_case_uqi>
 800671a:	0312      	.short	0x0312
 800671c:	1e1c      	.short	0x1e1c
 800671e:	12          	.byte	0x12
 800671f:	00          	.byte	0x00
 8006720:	9e20      	ldr	r6, [sp, #128]	@ 0x80
 8006722:	9f21      	ldr	r7, [sp, #132]	@ 0x84
 8006724:	05e4      	lsls	r4, r4, #23
 8006726:	d502      	bpl.n	800672e <_strtod_l+0xfe>
 8006728:	2380      	movs	r3, #128	@ 0x80
 800672a:	061b      	lsls	r3, r3, #24
 800672c:	431f      	orrs	r7, r3
 800672e:	4b69      	ldr	r3, [pc, #420]	@ (80068d4 <_strtod_l+0x2a4>)
 8006730:	423b      	tst	r3, r7
 8006732:	d1b8      	bne.n	80066a6 <_strtod_l+0x76>
 8006734:	f7fe facc 	bl	8004cd0 <__errno>
 8006738:	2322      	movs	r3, #34	@ 0x22
 800673a:	6003      	str	r3, [r0, #0]
 800673c:	e7b3      	b.n	80066a6 <_strtod_l+0x76>
 800673e:	4966      	ldr	r1, [pc, #408]	@ (80068d8 <_strtod_l+0x2a8>)
 8006740:	9a21      	ldr	r2, [sp, #132]	@ 0x84
 8006742:	9e20      	ldr	r6, [sp, #128]	@ 0x80
 8006744:	400a      	ands	r2, r1
 8006746:	4965      	ldr	r1, [pc, #404]	@ (80068dc <_strtod_l+0x2ac>)
 8006748:	185b      	adds	r3, r3, r1
 800674a:	051b      	lsls	r3, r3, #20
 800674c:	431a      	orrs	r2, r3
 800674e:	0017      	movs	r7, r2
 8006750:	e7e8      	b.n	8006724 <_strtod_l+0xf4>
 8006752:	4f60      	ldr	r7, [pc, #384]	@ (80068d4 <_strtod_l+0x2a4>)
 8006754:	e7e6      	b.n	8006724 <_strtod_l+0xf4>
 8006756:	2601      	movs	r6, #1
 8006758:	4f61      	ldr	r7, [pc, #388]	@ (80068e0 <_strtod_l+0x2b0>)
 800675a:	4276      	negs	r6, r6
 800675c:	e7e2      	b.n	8006724 <_strtod_l+0xf4>
 800675e:	9b1d      	ldr	r3, [sp, #116]	@ 0x74
 8006760:	1c5a      	adds	r2, r3, #1
 8006762:	921d      	str	r2, [sp, #116]	@ 0x74
 8006764:	785b      	ldrb	r3, [r3, #1]
 8006766:	2b30      	cmp	r3, #48	@ 0x30
 8006768:	d0f9      	beq.n	800675e <_strtod_l+0x12e>
 800676a:	2b00      	cmp	r3, #0
 800676c:	d09b      	beq.n	80066a6 <_strtod_l+0x76>
 800676e:	2301      	movs	r3, #1
 8006770:	930c      	str	r3, [sp, #48]	@ 0x30
 8006772:	2500      	movs	r5, #0
 8006774:	220a      	movs	r2, #10
 8006776:	9b1d      	ldr	r3, [sp, #116]	@ 0x74
 8006778:	950d      	str	r5, [sp, #52]	@ 0x34
 800677a:	9313      	str	r3, [sp, #76]	@ 0x4c
 800677c:	9508      	str	r5, [sp, #32]
 800677e:	981d      	ldr	r0, [sp, #116]	@ 0x74
 8006780:	7804      	ldrb	r4, [r0, #0]
 8006782:	0023      	movs	r3, r4
 8006784:	3b30      	subs	r3, #48	@ 0x30
 8006786:	b2d9      	uxtb	r1, r3
 8006788:	2909      	cmp	r1, #9
 800678a:	d927      	bls.n	80067dc <_strtod_l+0x1ac>
 800678c:	2201      	movs	r2, #1
 800678e:	4955      	ldr	r1, [pc, #340]	@ (80068e4 <_strtod_l+0x2b4>)
 8006790:	f000 fff8 	bl	8007784 <strncmp>
 8006794:	2800      	cmp	r0, #0
 8006796:	d031      	beq.n	80067fc <_strtod_l+0x1cc>
 8006798:	2000      	movs	r0, #0
 800679a:	0023      	movs	r3, r4
 800679c:	4684      	mov	ip, r0
 800679e:	9a08      	ldr	r2, [sp, #32]
 80067a0:	900e      	str	r0, [sp, #56]	@ 0x38
 80067a2:	9206      	str	r2, [sp, #24]
 80067a4:	2220      	movs	r2, #32
 80067a6:	0019      	movs	r1, r3
 80067a8:	4391      	bics	r1, r2
 80067aa:	000a      	movs	r2, r1
 80067ac:	2100      	movs	r1, #0
 80067ae:	9107      	str	r1, [sp, #28]
 80067b0:	2a45      	cmp	r2, #69	@ 0x45
 80067b2:	d000      	beq.n	80067b6 <_strtod_l+0x186>
 80067b4:	e0c0      	b.n	8006938 <_strtod_l+0x308>
 80067b6:	9b06      	ldr	r3, [sp, #24]
 80067b8:	9a0c      	ldr	r2, [sp, #48]	@ 0x30
 80067ba:	4303      	orrs	r3, r0
 80067bc:	4313      	orrs	r3, r2
 80067be:	428b      	cmp	r3, r1
 80067c0:	d08d      	beq.n	80066de <_strtod_l+0xae>
 80067c2:	9b1d      	ldr	r3, [sp, #116]	@ 0x74
 80067c4:	9309      	str	r3, [sp, #36]	@ 0x24
 80067c6:	3301      	adds	r3, #1
 80067c8:	931d      	str	r3, [sp, #116]	@ 0x74
 80067ca:	9b09      	ldr	r3, [sp, #36]	@ 0x24
 80067cc:	785b      	ldrb	r3, [r3, #1]
 80067ce:	2b2b      	cmp	r3, #43	@ 0x2b
 80067d0:	d070      	beq.n	80068b4 <_strtod_l+0x284>
 80067d2:	000c      	movs	r4, r1
 80067d4:	2b2d      	cmp	r3, #45	@ 0x2d
 80067d6:	d173      	bne.n	80068c0 <_strtod_l+0x290>
 80067d8:	2401      	movs	r4, #1
 80067da:	e06c      	b.n	80068b6 <_strtod_l+0x286>
 80067dc:	9908      	ldr	r1, [sp, #32]
 80067de:	2908      	cmp	r1, #8
 80067e0:	dc09      	bgt.n	80067f6 <_strtod_l+0x1c6>
 80067e2:	990d      	ldr	r1, [sp, #52]	@ 0x34
 80067e4:	4351      	muls	r1, r2
 80067e6:	185b      	adds	r3, r3, r1
 80067e8:	930d      	str	r3, [sp, #52]	@ 0x34
 80067ea:	9b08      	ldr	r3, [sp, #32]
 80067ec:	3001      	adds	r0, #1
 80067ee:	3301      	adds	r3, #1
 80067f0:	9308      	str	r3, [sp, #32]
 80067f2:	901d      	str	r0, [sp, #116]	@ 0x74
 80067f4:	e7c3      	b.n	800677e <_strtod_l+0x14e>
 80067f6:	4355      	muls	r5, r2
 80067f8:	195d      	adds	r5, r3, r5
 80067fa:	e7f6      	b.n	80067ea <_strtod_l+0x1ba>
 80067fc:	9b1d      	ldr	r3, [sp, #116]	@ 0x74
 80067fe:	1c5a      	adds	r2, r3, #1
 8006800:	921d      	str	r2, [sp, #116]	@ 0x74
 8006802:	9a08      	ldr	r2, [sp, #32]
 8006804:	785b      	ldrb	r3, [r3, #1]
 8006806:	2a00      	cmp	r2, #0
 8006808:	d03a      	beq.n	8006880 <_strtod_l+0x250>
 800680a:	900e      	str	r0, [sp, #56]	@ 0x38
 800680c:	9206      	str	r2, [sp, #24]
 800680e:	001a      	movs	r2, r3
 8006810:	3a30      	subs	r2, #48	@ 0x30
 8006812:	2a09      	cmp	r2, #9
 8006814:	d912      	bls.n	800683c <_strtod_l+0x20c>
 8006816:	2201      	movs	r2, #1
 8006818:	4694      	mov	ip, r2
 800681a:	e7c3      	b.n	80067a4 <_strtod_l+0x174>
 800681c:	9b1d      	ldr	r3, [sp, #116]	@ 0x74
 800681e:	3001      	adds	r0, #1
 8006820:	1c5a      	adds	r2, r3, #1
 8006822:	921d      	str	r2, [sp, #116]	@ 0x74
 8006824:	785b      	ldrb	r3, [r3, #1]
 8006826:	2b30      	cmp	r3, #48	@ 0x30
 8006828:	d0f8      	beq.n	800681c <_strtod_l+0x1ec>
 800682a:	001a      	movs	r2, r3
 800682c:	3a31      	subs	r2, #49	@ 0x31
 800682e:	2a08      	cmp	r2, #8
 8006830:	d83b      	bhi.n	80068aa <_strtod_l+0x27a>
 8006832:	900e      	str	r0, [sp, #56]	@ 0x38
 8006834:	2000      	movs	r0, #0
 8006836:	9a1d      	ldr	r2, [sp, #116]	@ 0x74
 8006838:	9006      	str	r0, [sp, #24]
 800683a:	9213      	str	r2, [sp, #76]	@ 0x4c
 800683c:	001a      	movs	r2, r3
 800683e:	1c41      	adds	r1, r0, #1
 8006840:	3a30      	subs	r2, #48	@ 0x30
 8006842:	2b30      	cmp	r3, #48	@ 0x30
 8006844:	d016      	beq.n	8006874 <_strtod_l+0x244>
 8006846:	9b0e      	ldr	r3, [sp, #56]	@ 0x38
 8006848:	185b      	adds	r3, r3, r1
 800684a:	930e      	str	r3, [sp, #56]	@ 0x38
 800684c:	9b06      	ldr	r3, [sp, #24]
 800684e:	210a      	movs	r1, #10
 8006850:	469c      	mov	ip, r3
 8006852:	4484      	add	ip, r0
 8006854:	459c      	cmp	ip, r3
 8006856:	d115      	bne.n	8006884 <_strtod_l+0x254>
 8006858:	9906      	ldr	r1, [sp, #24]
 800685a:	9b06      	ldr	r3, [sp, #24]
 800685c:	3101      	adds	r1, #1
 800685e:	1809      	adds	r1, r1, r0
 8006860:	181b      	adds	r3, r3, r0
 8006862:	9106      	str	r1, [sp, #24]
 8006864:	2b08      	cmp	r3, #8
 8006866:	dc19      	bgt.n	800689c <_strtod_l+0x26c>
 8006868:	230a      	movs	r3, #10
 800686a:	990d      	ldr	r1, [sp, #52]	@ 0x34
 800686c:	434b      	muls	r3, r1
 800686e:	2100      	movs	r1, #0
 8006870:	18d3      	adds	r3, r2, r3
 8006872:	930d      	str	r3, [sp, #52]	@ 0x34
 8006874:	9b1d      	ldr	r3, [sp, #116]	@ 0x74
 8006876:	0008      	movs	r0, r1
 8006878:	1c5a      	adds	r2, r3, #1
 800687a:	921d      	str	r2, [sp, #116]	@ 0x74
 800687c:	785b      	ldrb	r3, [r3, #1]
 800687e:	e7c6      	b.n	800680e <_strtod_l+0x1de>
 8006880:	9808      	ldr	r0, [sp, #32]
 8006882:	e7d0      	b.n	8006826 <_strtod_l+0x1f6>
 8006884:	1c5c      	adds	r4, r3, #1
 8006886:	2b08      	cmp	r3, #8
 8006888:	dc04      	bgt.n	8006894 <_strtod_l+0x264>
 800688a:	9b0d      	ldr	r3, [sp, #52]	@ 0x34
 800688c:	434b      	muls	r3, r1
 800688e:	930d      	str	r3, [sp, #52]	@ 0x34
 8006890:	0023      	movs	r3, r4
 8006892:	e7df      	b.n	8006854 <_strtod_l+0x224>
 8006894:	2c10      	cmp	r4, #16
 8006896:	dcfb      	bgt.n	8006890 <_strtod_l+0x260>
 8006898:	434d      	muls	r5, r1
 800689a:	e7f9      	b.n	8006890 <_strtod_l+0x260>
 800689c:	2100      	movs	r1, #0
 800689e:	2b0f      	cmp	r3, #15
 80068a0:	dce8      	bgt.n	8006874 <_strtod_l+0x244>
 80068a2:	230a      	movs	r3, #10
 80068a4:	435d      	muls	r5, r3
 80068a6:	1955      	adds	r5, r2, r5
 80068a8:	e7e4      	b.n	8006874 <_strtod_l+0x244>
 80068aa:	2200      	movs	r2, #0
 80068ac:	920e      	str	r2, [sp, #56]	@ 0x38
 80068ae:	9206      	str	r2, [sp, #24]
 80068b0:	3201      	adds	r2, #1
 80068b2:	e7b1      	b.n	8006818 <_strtod_l+0x1e8>
 80068b4:	2400      	movs	r4, #0
 80068b6:	9b09      	ldr	r3, [sp, #36]	@ 0x24
 80068b8:	3302      	adds	r3, #2
 80068ba:	931d      	str	r3, [sp, #116]	@ 0x74
 80068bc:	9b09      	ldr	r3, [sp, #36]	@ 0x24
 80068be:	789b      	ldrb	r3, [r3, #2]
 80068c0:	001a      	movs	r2, r3
 80068c2:	3a30      	subs	r2, #48	@ 0x30
 80068c4:	2a09      	cmp	r2, #9
 80068c6:	d913      	bls.n	80068f0 <_strtod_l+0x2c0>
 80068c8:	9a09      	ldr	r2, [sp, #36]	@ 0x24
 80068ca:	921d      	str	r2, [sp, #116]	@ 0x74
 80068cc:	2200      	movs	r2, #0
 80068ce:	e032      	b.n	8006936 <_strtod_l+0x306>
 80068d0:	08008848 	.word	0x08008848
 80068d4:	7ff00000 	.word	0x7ff00000
 80068d8:	ffefffff 	.word	0xffefffff
 80068dc:	00000433 	.word	0x00000433
 80068e0:	7fffffff 	.word	0x7fffffff
 80068e4:	08008830 	.word	0x08008830
 80068e8:	9b1d      	ldr	r3, [sp, #116]	@ 0x74
 80068ea:	1c5a      	adds	r2, r3, #1
 80068ec:	921d      	str	r2, [sp, #116]	@ 0x74
 80068ee:	785b      	ldrb	r3, [r3, #1]
 80068f0:	2b30      	cmp	r3, #48	@ 0x30
 80068f2:	d0f9      	beq.n	80068e8 <_strtod_l+0x2b8>
 80068f4:	2200      	movs	r2, #0
 80068f6:	9207      	str	r2, [sp, #28]
 80068f8:	001a      	movs	r2, r3
 80068fa:	3a31      	subs	r2, #49	@ 0x31
 80068fc:	2a08      	cmp	r2, #8
 80068fe:	d81b      	bhi.n	8006938 <_strtod_l+0x308>
 8006900:	3b30      	subs	r3, #48	@ 0x30
 8006902:	9310      	str	r3, [sp, #64]	@ 0x40
 8006904:	9b1d      	ldr	r3, [sp, #116]	@ 0x74
 8006906:	9307      	str	r3, [sp, #28]
 8006908:	9b1d      	ldr	r3, [sp, #116]	@ 0x74
 800690a:	1c59      	adds	r1, r3, #1
 800690c:	911d      	str	r1, [sp, #116]	@ 0x74
 800690e:	785b      	ldrb	r3, [r3, #1]
 8006910:	001a      	movs	r2, r3
 8006912:	3a30      	subs	r2, #48	@ 0x30
 8006914:	2a09      	cmp	r2, #9
 8006916:	d93a      	bls.n	800698e <_strtod_l+0x35e>
 8006918:	9a07      	ldr	r2, [sp, #28]
 800691a:	1a8a      	subs	r2, r1, r2
 800691c:	49b4      	ldr	r1, [pc, #720]	@ (8006bf0 <_strtod_l+0x5c0>)
 800691e:	9107      	str	r1, [sp, #28]
 8006920:	2a08      	cmp	r2, #8
 8006922:	dc04      	bgt.n	800692e <_strtod_l+0x2fe>
 8006924:	9a10      	ldr	r2, [sp, #64]	@ 0x40
 8006926:	9207      	str	r2, [sp, #28]
 8006928:	428a      	cmp	r2, r1
 800692a:	dd00      	ble.n	800692e <_strtod_l+0x2fe>
 800692c:	9107      	str	r1, [sp, #28]
 800692e:	2c00      	cmp	r4, #0
 8006930:	d002      	beq.n	8006938 <_strtod_l+0x308>
 8006932:	9a07      	ldr	r2, [sp, #28]
 8006934:	4252      	negs	r2, r2
 8006936:	9207      	str	r2, [sp, #28]
 8006938:	9a06      	ldr	r2, [sp, #24]
 800693a:	2a00      	cmp	r2, #0
 800693c:	d14d      	bne.n	80069da <_strtod_l+0x3aa>
 800693e:	9a0c      	ldr	r2, [sp, #48]	@ 0x30
 8006940:	4310      	orrs	r0, r2
 8006942:	d000      	beq.n	8006946 <_strtod_l+0x316>
 8006944:	e6af      	b.n	80066a6 <_strtod_l+0x76>
 8006946:	4662      	mov	r2, ip
 8006948:	2a00      	cmp	r2, #0
 800694a:	d000      	beq.n	800694e <_strtod_l+0x31e>
 800694c:	e6c7      	b.n	80066de <_strtod_l+0xae>
 800694e:	2b69      	cmp	r3, #105	@ 0x69
 8006950:	d027      	beq.n	80069a2 <_strtod_l+0x372>
 8006952:	dc23      	bgt.n	800699c <_strtod_l+0x36c>
 8006954:	2b49      	cmp	r3, #73	@ 0x49
 8006956:	d024      	beq.n	80069a2 <_strtod_l+0x372>
 8006958:	2b4e      	cmp	r3, #78	@ 0x4e
 800695a:	d000      	beq.n	800695e <_strtod_l+0x32e>
 800695c:	e6bf      	b.n	80066de <_strtod_l+0xae>
 800695e:	49a5      	ldr	r1, [pc, #660]	@ (8006bf4 <_strtod_l+0x5c4>)
 8006960:	a81d      	add	r0, sp, #116	@ 0x74
 8006962:	f001 fa23 	bl	8007dac <__match>
 8006966:	2800      	cmp	r0, #0
 8006968:	d100      	bne.n	800696c <_strtod_l+0x33c>
 800696a:	e6b8      	b.n	80066de <_strtod_l+0xae>
 800696c:	9b1d      	ldr	r3, [sp, #116]	@ 0x74
 800696e:	781b      	ldrb	r3, [r3, #0]
 8006970:	2b28      	cmp	r3, #40	@ 0x28
 8006972:	d12c      	bne.n	80069ce <_strtod_l+0x39e>
 8006974:	49a0      	ldr	r1, [pc, #640]	@ (8006bf8 <_strtod_l+0x5c8>)
 8006976:	aa20      	add	r2, sp, #128	@ 0x80
 8006978:	a81d      	add	r0, sp, #116	@ 0x74
 800697a:	f001 fa2b 	bl	8007dd4 <__hexnan>
 800697e:	2805      	cmp	r0, #5
 8006980:	d125      	bne.n	80069ce <_strtod_l+0x39e>
 8006982:	9b21      	ldr	r3, [sp, #132]	@ 0x84
 8006984:	4a9d      	ldr	r2, [pc, #628]	@ (8006bfc <_strtod_l+0x5cc>)
 8006986:	9e20      	ldr	r6, [sp, #128]	@ 0x80
 8006988:	431a      	orrs	r2, r3
 800698a:	0017      	movs	r7, r2
 800698c:	e68b      	b.n	80066a6 <_strtod_l+0x76>
 800698e:	220a      	movs	r2, #10
 8006990:	9910      	ldr	r1, [sp, #64]	@ 0x40
 8006992:	434a      	muls	r2, r1
 8006994:	18d2      	adds	r2, r2, r3
 8006996:	3a30      	subs	r2, #48	@ 0x30
 8006998:	9210      	str	r2, [sp, #64]	@ 0x40
 800699a:	e7b5      	b.n	8006908 <_strtod_l+0x2d8>
 800699c:	2b6e      	cmp	r3, #110	@ 0x6e
 800699e:	d0de      	beq.n	800695e <_strtod_l+0x32e>
 80069a0:	e69d      	b.n	80066de <_strtod_l+0xae>
 80069a2:	4997      	ldr	r1, [pc, #604]	@ (8006c00 <_strtod_l+0x5d0>)
 80069a4:	a81d      	add	r0, sp, #116	@ 0x74
 80069a6:	f001 fa01 	bl	8007dac <__match>
 80069aa:	2800      	cmp	r0, #0
 80069ac:	d100      	bne.n	80069b0 <_strtod_l+0x380>
 80069ae:	e696      	b.n	80066de <_strtod_l+0xae>
 80069b0:	9b1d      	ldr	r3, [sp, #116]	@ 0x74
 80069b2:	4994      	ldr	r1, [pc, #592]	@ (8006c04 <_strtod_l+0x5d4>)
 80069b4:	3b01      	subs	r3, #1
 80069b6:	a81d      	add	r0, sp, #116	@ 0x74
 80069b8:	931d      	str	r3, [sp, #116]	@ 0x74
 80069ba:	f001 f9f7 	bl	8007dac <__match>
 80069be:	2800      	cmp	r0, #0
 80069c0:	d102      	bne.n	80069c8 <_strtod_l+0x398>
 80069c2:	9b1d      	ldr	r3, [sp, #116]	@ 0x74
 80069c4:	3301      	adds	r3, #1
 80069c6:	931d      	str	r3, [sp, #116]	@ 0x74
 80069c8:	2600      	movs	r6, #0
 80069ca:	4f8c      	ldr	r7, [pc, #560]	@ (8006bfc <_strtod_l+0x5cc>)
 80069cc:	e66b      	b.n	80066a6 <_strtod_l+0x76>
 80069ce:	488e      	ldr	r0, [pc, #568]	@ (8006c08 <_strtod_l+0x5d8>)
 80069d0:	f000 fefc 	bl	80077cc <nan>
 80069d4:	0006      	movs	r6, r0
 80069d6:	000f      	movs	r7, r1
 80069d8:	e665      	b.n	80066a6 <_strtod_l+0x76>
 80069da:	9b07      	ldr	r3, [sp, #28]
 80069dc:	9a0e      	ldr	r2, [sp, #56]	@ 0x38
 80069de:	1a9b      	subs	r3, r3, r2
 80069e0:	930c      	str	r3, [sp, #48]	@ 0x30
 80069e2:	9b08      	ldr	r3, [sp, #32]
 80069e4:	2b00      	cmp	r3, #0
 80069e6:	d101      	bne.n	80069ec <_strtod_l+0x3bc>
 80069e8:	9b06      	ldr	r3, [sp, #24]
 80069ea:	9308      	str	r3, [sp, #32]
 80069ec:	9c06      	ldr	r4, [sp, #24]
 80069ee:	2c10      	cmp	r4, #16
 80069f0:	dd00      	ble.n	80069f4 <_strtod_l+0x3c4>
 80069f2:	2410      	movs	r4, #16
 80069f4:	980d      	ldr	r0, [sp, #52]	@ 0x34
 80069f6:	f7fb ff79 	bl	80028ec <__aeabi_ui2d>
 80069fa:	9b06      	ldr	r3, [sp, #24]
 80069fc:	0006      	movs	r6, r0
 80069fe:	000f      	movs	r7, r1
 8006a00:	2b09      	cmp	r3, #9
 8006a02:	dc13      	bgt.n	8006a2c <_strtod_l+0x3fc>
 8006a04:	9b0c      	ldr	r3, [sp, #48]	@ 0x30
 8006a06:	2b00      	cmp	r3, #0
 8006a08:	d100      	bne.n	8006a0c <_strtod_l+0x3dc>
 8006a0a:	e64c      	b.n	80066a6 <_strtod_l+0x76>
 8006a0c:	9b0c      	ldr	r3, [sp, #48]	@ 0x30
 8006a0e:	2b00      	cmp	r3, #0
 8006a10:	dc00      	bgt.n	8006a14 <_strtod_l+0x3e4>
 8006a12:	e07e      	b.n	8006b12 <_strtod_l+0x4e2>
 8006a14:	2b16      	cmp	r3, #22
 8006a16:	dc63      	bgt.n	8006ae0 <_strtod_l+0x4b0>
 8006a18:	497c      	ldr	r1, [pc, #496]	@ (8006c0c <_strtod_l+0x5dc>)
 8006a1a:	00db      	lsls	r3, r3, #3
 8006a1c:	18c9      	adds	r1, r1, r3
 8006a1e:	0032      	movs	r2, r6
 8006a20:	6808      	ldr	r0, [r1, #0]
 8006a22:	6849      	ldr	r1, [r1, #4]
 8006a24:	003b      	movs	r3, r7
 8006a26:	f7fb f871 	bl	8001b0c <__aeabi_dmul>
 8006a2a:	e7d3      	b.n	80069d4 <_strtod_l+0x3a4>
 8006a2c:	0022      	movs	r2, r4
 8006a2e:	4b77      	ldr	r3, [pc, #476]	@ (8006c0c <_strtod_l+0x5dc>)
 8006a30:	3a09      	subs	r2, #9
 8006a32:	00d2      	lsls	r2, r2, #3
 8006a34:	189b      	adds	r3, r3, r2
 8006a36:	681a      	ldr	r2, [r3, #0]
 8006a38:	685b      	ldr	r3, [r3, #4]
 8006a3a:	f7fb f867 	bl	8001b0c <__aeabi_dmul>
 8006a3e:	0006      	movs	r6, r0
 8006a40:	0028      	movs	r0, r5
 8006a42:	000f      	movs	r7, r1
 8006a44:	f7fb ff52 	bl	80028ec <__aeabi_ui2d>
 8006a48:	000b      	movs	r3, r1
 8006a4a:	0002      	movs	r2, r0
 8006a4c:	0039      	movs	r1, r7
 8006a4e:	0030      	movs	r0, r6
 8006a50:	f7fa f8b4 	bl	8000bbc <__aeabi_dadd>
 8006a54:	9b06      	ldr	r3, [sp, #24]
 8006a56:	0006      	movs	r6, r0
 8006a58:	000f      	movs	r7, r1
 8006a5a:	2b0f      	cmp	r3, #15
 8006a5c:	ddd2      	ble.n	8006a04 <_strtod_l+0x3d4>
 8006a5e:	9b06      	ldr	r3, [sp, #24]
 8006a60:	1b1c      	subs	r4, r3, r4
 8006a62:	9b0c      	ldr	r3, [sp, #48]	@ 0x30
 8006a64:	18e4      	adds	r4, r4, r3
 8006a66:	2c00      	cmp	r4, #0
 8006a68:	dc00      	bgt.n	8006a6c <_strtod_l+0x43c>
 8006a6a:	e09b      	b.n	8006ba4 <_strtod_l+0x574>
 8006a6c:	220f      	movs	r2, #15
 8006a6e:	0023      	movs	r3, r4
 8006a70:	4013      	ands	r3, r2
 8006a72:	4214      	tst	r4, r2
 8006a74:	d00a      	beq.n	8006a8c <_strtod_l+0x45c>
 8006a76:	4965      	ldr	r1, [pc, #404]	@ (8006c0c <_strtod_l+0x5dc>)
 8006a78:	00db      	lsls	r3, r3, #3
 8006a7a:	18c9      	adds	r1, r1, r3
 8006a7c:	0032      	movs	r2, r6
 8006a7e:	6808      	ldr	r0, [r1, #0]
 8006a80:	6849      	ldr	r1, [r1, #4]
 8006a82:	003b      	movs	r3, r7
 8006a84:	f7fb f842 	bl	8001b0c <__aeabi_dmul>
 8006a88:	0006      	movs	r6, r0
 8006a8a:	000f      	movs	r7, r1
 8006a8c:	230f      	movs	r3, #15
 8006a8e:	439c      	bics	r4, r3
 8006a90:	d073      	beq.n	8006b7a <_strtod_l+0x54a>
 8006a92:	3326      	adds	r3, #38	@ 0x26
 8006a94:	33ff      	adds	r3, #255	@ 0xff
 8006a96:	429c      	cmp	r4, r3
 8006a98:	dd4b      	ble.n	8006b32 <_strtod_l+0x502>
 8006a9a:	2300      	movs	r3, #0
 8006a9c:	9306      	str	r3, [sp, #24]
 8006a9e:	9307      	str	r3, [sp, #28]
 8006aa0:	930d      	str	r3, [sp, #52]	@ 0x34
 8006aa2:	9308      	str	r3, [sp, #32]
 8006aa4:	2322      	movs	r3, #34	@ 0x22
 8006aa6:	2600      	movs	r6, #0
 8006aa8:	9a05      	ldr	r2, [sp, #20]
 8006aaa:	4f54      	ldr	r7, [pc, #336]	@ (8006bfc <_strtod_l+0x5cc>)
 8006aac:	6013      	str	r3, [r2, #0]
 8006aae:	9b0d      	ldr	r3, [sp, #52]	@ 0x34
 8006ab0:	42b3      	cmp	r3, r6
 8006ab2:	d100      	bne.n	8006ab6 <_strtod_l+0x486>
 8006ab4:	e5f7      	b.n	80066a6 <_strtod_l+0x76>
 8006ab6:	991e      	ldr	r1, [sp, #120]	@ 0x78
 8006ab8:	9805      	ldr	r0, [sp, #20]
 8006aba:	f7ff f91b 	bl	8005cf4 <_Bfree>
 8006abe:	9908      	ldr	r1, [sp, #32]
 8006ac0:	9805      	ldr	r0, [sp, #20]
 8006ac2:	f7ff f917 	bl	8005cf4 <_Bfree>
 8006ac6:	9907      	ldr	r1, [sp, #28]
 8006ac8:	9805      	ldr	r0, [sp, #20]
 8006aca:	f7ff f913 	bl	8005cf4 <_Bfree>
 8006ace:	990d      	ldr	r1, [sp, #52]	@ 0x34
 8006ad0:	9805      	ldr	r0, [sp, #20]
 8006ad2:	f7ff f90f 	bl	8005cf4 <_Bfree>
 8006ad6:	9906      	ldr	r1, [sp, #24]
 8006ad8:	9805      	ldr	r0, [sp, #20]
 8006ada:	f7ff f90b 	bl	8005cf4 <_Bfree>
 8006ade:	e5e2      	b.n	80066a6 <_strtod_l+0x76>
 8006ae0:	2325      	movs	r3, #37	@ 0x25
 8006ae2:	9a06      	ldr	r2, [sp, #24]
 8006ae4:	1a9b      	subs	r3, r3, r2
 8006ae6:	9a0c      	ldr	r2, [sp, #48]	@ 0x30
 8006ae8:	4293      	cmp	r3, r2
 8006aea:	dbb8      	blt.n	8006a5e <_strtod_l+0x42e>
 8006aec:	240f      	movs	r4, #15
 8006aee:	9b06      	ldr	r3, [sp, #24]
 8006af0:	4d46      	ldr	r5, [pc, #280]	@ (8006c0c <_strtod_l+0x5dc>)
 8006af2:	1ae4      	subs	r4, r4, r3
 8006af4:	00e1      	lsls	r1, r4, #3
 8006af6:	1869      	adds	r1, r5, r1
 8006af8:	0032      	movs	r2, r6
 8006afa:	6808      	ldr	r0, [r1, #0]
 8006afc:	6849      	ldr	r1, [r1, #4]
 8006afe:	003b      	movs	r3, r7
 8006b00:	f7fb f804 	bl	8001b0c <__aeabi_dmul>
 8006b04:	9b0c      	ldr	r3, [sp, #48]	@ 0x30
 8006b06:	1b1c      	subs	r4, r3, r4
 8006b08:	00e4      	lsls	r4, r4, #3
 8006b0a:	192d      	adds	r5, r5, r4
 8006b0c:	682a      	ldr	r2, [r5, #0]
 8006b0e:	686b      	ldr	r3, [r5, #4]
 8006b10:	e789      	b.n	8006a26 <_strtod_l+0x3f6>
 8006b12:	9b0c      	ldr	r3, [sp, #48]	@ 0x30
 8006b14:	3316      	adds	r3, #22
 8006b16:	dba2      	blt.n	8006a5e <_strtod_l+0x42e>
 8006b18:	9907      	ldr	r1, [sp, #28]
 8006b1a:	9a0e      	ldr	r2, [sp, #56]	@ 0x38
 8006b1c:	4b3b      	ldr	r3, [pc, #236]	@ (8006c0c <_strtod_l+0x5dc>)
 8006b1e:	1a52      	subs	r2, r2, r1
 8006b20:	00d2      	lsls	r2, r2, #3
 8006b22:	189b      	adds	r3, r3, r2
 8006b24:	0030      	movs	r0, r6
 8006b26:	681a      	ldr	r2, [r3, #0]
 8006b28:	685b      	ldr	r3, [r3, #4]
 8006b2a:	0039      	movs	r1, r7
 8006b2c:	f7fa fbaa 	bl	8001284 <__aeabi_ddiv>
 8006b30:	e750      	b.n	80069d4 <_strtod_l+0x3a4>
 8006b32:	2300      	movs	r3, #0
 8006b34:	0030      	movs	r0, r6
 8006b36:	0039      	movs	r1, r7
 8006b38:	4d35      	ldr	r5, [pc, #212]	@ (8006c10 <_strtod_l+0x5e0>)
 8006b3a:	1124      	asrs	r4, r4, #4
 8006b3c:	9309      	str	r3, [sp, #36]	@ 0x24
 8006b3e:	2c01      	cmp	r4, #1
 8006b40:	dc1e      	bgt.n	8006b80 <_strtod_l+0x550>
 8006b42:	2b00      	cmp	r3, #0
 8006b44:	d001      	beq.n	8006b4a <_strtod_l+0x51a>
 8006b46:	0006      	movs	r6, r0
 8006b48:	000f      	movs	r7, r1
 8006b4a:	4b32      	ldr	r3, [pc, #200]	@ (8006c14 <_strtod_l+0x5e4>)
 8006b4c:	9a09      	ldr	r2, [sp, #36]	@ 0x24
 8006b4e:	18ff      	adds	r7, r7, r3
 8006b50:	4b2f      	ldr	r3, [pc, #188]	@ (8006c10 <_strtod_l+0x5e0>)
 8006b52:	00d5      	lsls	r5, r2, #3
 8006b54:	195d      	adds	r5, r3, r5
 8006b56:	0032      	movs	r2, r6
 8006b58:	6828      	ldr	r0, [r5, #0]
 8006b5a:	6869      	ldr	r1, [r5, #4]
 8006b5c:	003b      	movs	r3, r7
 8006b5e:	f7fa ffd5 	bl	8001b0c <__aeabi_dmul>
 8006b62:	4b26      	ldr	r3, [pc, #152]	@ (8006bfc <_strtod_l+0x5cc>)
 8006b64:	4a2c      	ldr	r2, [pc, #176]	@ (8006c18 <_strtod_l+0x5e8>)
 8006b66:	0006      	movs	r6, r0
 8006b68:	400b      	ands	r3, r1
 8006b6a:	4293      	cmp	r3, r2
 8006b6c:	d895      	bhi.n	8006a9a <_strtod_l+0x46a>
 8006b6e:	4a2b      	ldr	r2, [pc, #172]	@ (8006c1c <_strtod_l+0x5ec>)
 8006b70:	4293      	cmp	r3, r2
 8006b72:	d913      	bls.n	8006b9c <_strtod_l+0x56c>
 8006b74:	2601      	movs	r6, #1
 8006b76:	4f2a      	ldr	r7, [pc, #168]	@ (8006c20 <_strtod_l+0x5f0>)
 8006b78:	4276      	negs	r6, r6
 8006b7a:	2300      	movs	r3, #0
 8006b7c:	9309      	str	r3, [sp, #36]	@ 0x24
 8006b7e:	e086      	b.n	8006c8e <_strtod_l+0x65e>
 8006b80:	2201      	movs	r2, #1
 8006b82:	4214      	tst	r4, r2
 8006b84:	d004      	beq.n	8006b90 <_strtod_l+0x560>
 8006b86:	682a      	ldr	r2, [r5, #0]
 8006b88:	686b      	ldr	r3, [r5, #4]
 8006b8a:	f7fa ffbf 	bl	8001b0c <__aeabi_dmul>
 8006b8e:	2301      	movs	r3, #1
 8006b90:	9a09      	ldr	r2, [sp, #36]	@ 0x24
 8006b92:	1064      	asrs	r4, r4, #1
 8006b94:	3201      	adds	r2, #1
 8006b96:	9209      	str	r2, [sp, #36]	@ 0x24
 8006b98:	3508      	adds	r5, #8
 8006b9a:	e7d0      	b.n	8006b3e <_strtod_l+0x50e>
 8006b9c:	23d4      	movs	r3, #212	@ 0xd4
 8006b9e:	049b      	lsls	r3, r3, #18
 8006ba0:	18cf      	adds	r7, r1, r3
 8006ba2:	e7ea      	b.n	8006b7a <_strtod_l+0x54a>
 8006ba4:	2c00      	cmp	r4, #0
 8006ba6:	d0e8      	beq.n	8006b7a <_strtod_l+0x54a>
 8006ba8:	4264      	negs	r4, r4
 8006baa:	230f      	movs	r3, #15
 8006bac:	0022      	movs	r2, r4
 8006bae:	401a      	ands	r2, r3
 8006bb0:	421c      	tst	r4, r3
 8006bb2:	d00a      	beq.n	8006bca <_strtod_l+0x59a>
 8006bb4:	4b15      	ldr	r3, [pc, #84]	@ (8006c0c <_strtod_l+0x5dc>)
 8006bb6:	00d2      	lsls	r2, r2, #3
 8006bb8:	189b      	adds	r3, r3, r2
 8006bba:	0030      	movs	r0, r6
 8006bbc:	681a      	ldr	r2, [r3, #0]
 8006bbe:	685b      	ldr	r3, [r3, #4]
 8006bc0:	0039      	movs	r1, r7
 8006bc2:	f7fa fb5f 	bl	8001284 <__aeabi_ddiv>
 8006bc6:	0006      	movs	r6, r0
 8006bc8:	000f      	movs	r7, r1
 8006bca:	1124      	asrs	r4, r4, #4
 8006bcc:	d0d5      	beq.n	8006b7a <_strtod_l+0x54a>
 8006bce:	2c1f      	cmp	r4, #31
 8006bd0:	dd28      	ble.n	8006c24 <_strtod_l+0x5f4>
 8006bd2:	2300      	movs	r3, #0
 8006bd4:	9306      	str	r3, [sp, #24]
 8006bd6:	9307      	str	r3, [sp, #28]
 8006bd8:	930d      	str	r3, [sp, #52]	@ 0x34
 8006bda:	9308      	str	r3, [sp, #32]
 8006bdc:	2322      	movs	r3, #34	@ 0x22
 8006bde:	9a05      	ldr	r2, [sp, #20]
 8006be0:	2600      	movs	r6, #0
 8006be2:	6013      	str	r3, [r2, #0]
 8006be4:	9b0d      	ldr	r3, [sp, #52]	@ 0x34
 8006be6:	2700      	movs	r7, #0
 8006be8:	2b00      	cmp	r3, #0
 8006bea:	d000      	beq.n	8006bee <_strtod_l+0x5be>
 8006bec:	e763      	b.n	8006ab6 <_strtod_l+0x486>
 8006bee:	e55a      	b.n	80066a6 <_strtod_l+0x76>
 8006bf0:	00004e1f 	.word	0x00004e1f
 8006bf4:	08008621 	.word	0x08008621
 8006bf8:	08008834 	.word	0x08008834
 8006bfc:	7ff00000 	.word	0x7ff00000
 8006c00:	08008619 	.word	0x08008619
 8006c04:	08008650 	.word	0x08008650
 8006c08:	080089dd 	.word	0x080089dd
 8006c0c:	08008768 	.word	0x08008768
 8006c10:	08008740 	.word	0x08008740
 8006c14:	fcb00000 	.word	0xfcb00000
 8006c18:	7ca00000 	.word	0x7ca00000
 8006c1c:	7c900000 	.word	0x7c900000
 8006c20:	7fefffff 	.word	0x7fefffff
 8006c24:	2310      	movs	r3, #16
 8006c26:	0022      	movs	r2, r4
 8006c28:	401a      	ands	r2, r3
 8006c2a:	9209      	str	r2, [sp, #36]	@ 0x24
 8006c2c:	421c      	tst	r4, r3
 8006c2e:	d001      	beq.n	8006c34 <_strtod_l+0x604>
 8006c30:	335a      	adds	r3, #90	@ 0x5a
 8006c32:	9309      	str	r3, [sp, #36]	@ 0x24
 8006c34:	0030      	movs	r0, r6
 8006c36:	0039      	movs	r1, r7
 8006c38:	2300      	movs	r3, #0
 8006c3a:	4dbf      	ldr	r5, [pc, #764]	@ (8006f38 <_strtod_l+0x908>)
 8006c3c:	2201      	movs	r2, #1
 8006c3e:	4214      	tst	r4, r2
 8006c40:	d004      	beq.n	8006c4c <_strtod_l+0x61c>
 8006c42:	682a      	ldr	r2, [r5, #0]
 8006c44:	686b      	ldr	r3, [r5, #4]
 8006c46:	f7fa ff61 	bl	8001b0c <__aeabi_dmul>
 8006c4a:	2301      	movs	r3, #1
 8006c4c:	1064      	asrs	r4, r4, #1
 8006c4e:	3508      	adds	r5, #8
 8006c50:	2c00      	cmp	r4, #0
 8006c52:	d1f3      	bne.n	8006c3c <_strtod_l+0x60c>
 8006c54:	2b00      	cmp	r3, #0
 8006c56:	d001      	beq.n	8006c5c <_strtod_l+0x62c>
 8006c58:	0006      	movs	r6, r0
 8006c5a:	000f      	movs	r7, r1
 8006c5c:	9b09      	ldr	r3, [sp, #36]	@ 0x24
 8006c5e:	2b00      	cmp	r3, #0
 8006c60:	d00d      	beq.n	8006c7e <_strtod_l+0x64e>
 8006c62:	236b      	movs	r3, #107	@ 0x6b
 8006c64:	007a      	lsls	r2, r7, #1
 8006c66:	0d52      	lsrs	r2, r2, #21
 8006c68:	0039      	movs	r1, r7
 8006c6a:	1a9b      	subs	r3, r3, r2
 8006c6c:	2b00      	cmp	r3, #0
 8006c6e:	dd06      	ble.n	8006c7e <_strtod_l+0x64e>
 8006c70:	2b1f      	cmp	r3, #31
 8006c72:	dd5a      	ble.n	8006d2a <_strtod_l+0x6fa>
 8006c74:	2600      	movs	r6, #0
 8006c76:	2b34      	cmp	r3, #52	@ 0x34
 8006c78:	dd50      	ble.n	8006d1c <_strtod_l+0x6ec>
 8006c7a:	27dc      	movs	r7, #220	@ 0xdc
 8006c7c:	04bf      	lsls	r7, r7, #18
 8006c7e:	2200      	movs	r2, #0
 8006c80:	2300      	movs	r3, #0
 8006c82:	0030      	movs	r0, r6
 8006c84:	0039      	movs	r1, r7
 8006c86:	f7f9 fbdf 	bl	8000448 <__aeabi_dcmpeq>
 8006c8a:	2800      	cmp	r0, #0
 8006c8c:	d1a1      	bne.n	8006bd2 <_strtod_l+0x5a2>
 8006c8e:	9b0d      	ldr	r3, [sp, #52]	@ 0x34
 8006c90:	9a08      	ldr	r2, [sp, #32]
 8006c92:	9300      	str	r3, [sp, #0]
 8006c94:	9913      	ldr	r1, [sp, #76]	@ 0x4c
 8006c96:	9b06      	ldr	r3, [sp, #24]
 8006c98:	9805      	ldr	r0, [sp, #20]
 8006c9a:	f7ff f893 	bl	8005dc4 <__s2b>
 8006c9e:	900d      	str	r0, [sp, #52]	@ 0x34
 8006ca0:	2800      	cmp	r0, #0
 8006ca2:	d100      	bne.n	8006ca6 <_strtod_l+0x676>
 8006ca4:	e6f9      	b.n	8006a9a <_strtod_l+0x46a>
 8006ca6:	9b0c      	ldr	r3, [sp, #48]	@ 0x30
 8006ca8:	9907      	ldr	r1, [sp, #28]
 8006caa:	17da      	asrs	r2, r3, #31
 8006cac:	9b0e      	ldr	r3, [sp, #56]	@ 0x38
 8006cae:	1a5b      	subs	r3, r3, r1
 8006cb0:	401a      	ands	r2, r3
 8006cb2:	9b0c      	ldr	r3, [sp, #48]	@ 0x30
 8006cb4:	9217      	str	r2, [sp, #92]	@ 0x5c
 8006cb6:	43db      	mvns	r3, r3
 8006cb8:	9a0c      	ldr	r2, [sp, #48]	@ 0x30
 8006cba:	17db      	asrs	r3, r3, #31
 8006cbc:	401a      	ands	r2, r3
 8006cbe:	2300      	movs	r3, #0
 8006cc0:	921a      	str	r2, [sp, #104]	@ 0x68
 8006cc2:	9306      	str	r3, [sp, #24]
 8006cc4:	9307      	str	r3, [sp, #28]
 8006cc6:	9b0d      	ldr	r3, [sp, #52]	@ 0x34
 8006cc8:	9805      	ldr	r0, [sp, #20]
 8006cca:	6859      	ldr	r1, [r3, #4]
 8006ccc:	f7fe ffce 	bl	8005c6c <_Balloc>
 8006cd0:	9008      	str	r0, [sp, #32]
 8006cd2:	2800      	cmp	r0, #0
 8006cd4:	d100      	bne.n	8006cd8 <_strtod_l+0x6a8>
 8006cd6:	e6e5      	b.n	8006aa4 <_strtod_l+0x474>
 8006cd8:	9b0d      	ldr	r3, [sp, #52]	@ 0x34
 8006cda:	300c      	adds	r0, #12
 8006cdc:	0019      	movs	r1, r3
 8006cde:	691a      	ldr	r2, [r3, #16]
 8006ce0:	310c      	adds	r1, #12
 8006ce2:	3202      	adds	r2, #2
 8006ce4:	0092      	lsls	r2, r2, #2
 8006ce6:	f7fe f82b 	bl	8004d40 <memcpy>
 8006cea:	ab20      	add	r3, sp, #128	@ 0x80
 8006cec:	9301      	str	r3, [sp, #4]
 8006cee:	ab1f      	add	r3, sp, #124	@ 0x7c
 8006cf0:	9300      	str	r3, [sp, #0]
 8006cf2:	0032      	movs	r2, r6
 8006cf4:	003b      	movs	r3, r7
 8006cf6:	9805      	ldr	r0, [sp, #20]
 8006cf8:	9610      	str	r6, [sp, #64]	@ 0x40
 8006cfa:	9711      	str	r7, [sp, #68]	@ 0x44
 8006cfc:	f7ff fbb2 	bl	8006464 <__d2b>
 8006d00:	901e      	str	r0, [sp, #120]	@ 0x78
 8006d02:	2800      	cmp	r0, #0
 8006d04:	d100      	bne.n	8006d08 <_strtod_l+0x6d8>
 8006d06:	e6cd      	b.n	8006aa4 <_strtod_l+0x474>
 8006d08:	2101      	movs	r1, #1
 8006d0a:	9805      	ldr	r0, [sp, #20]
 8006d0c:	f7ff f8f6 	bl	8005efc <__i2b>
 8006d10:	9007      	str	r0, [sp, #28]
 8006d12:	2800      	cmp	r0, #0
 8006d14:	d10e      	bne.n	8006d34 <_strtod_l+0x704>
 8006d16:	2300      	movs	r3, #0
 8006d18:	9307      	str	r3, [sp, #28]
 8006d1a:	e6c3      	b.n	8006aa4 <_strtod_l+0x474>
 8006d1c:	234b      	movs	r3, #75	@ 0x4b
 8006d1e:	1a9a      	subs	r2, r3, r2
 8006d20:	3b4c      	subs	r3, #76	@ 0x4c
 8006d22:	4093      	lsls	r3, r2
 8006d24:	4019      	ands	r1, r3
 8006d26:	000f      	movs	r7, r1
 8006d28:	e7a9      	b.n	8006c7e <_strtod_l+0x64e>
 8006d2a:	2201      	movs	r2, #1
 8006d2c:	4252      	negs	r2, r2
 8006d2e:	409a      	lsls	r2, r3
 8006d30:	4016      	ands	r6, r2
 8006d32:	e7a4      	b.n	8006c7e <_strtod_l+0x64e>
 8006d34:	9b1f      	ldr	r3, [sp, #124]	@ 0x7c
 8006d36:	9a1a      	ldr	r2, [sp, #104]	@ 0x68
 8006d38:	9d17      	ldr	r5, [sp, #92]	@ 0x5c
 8006d3a:	1ad4      	subs	r4, r2, r3
 8006d3c:	2b00      	cmp	r3, #0
 8006d3e:	db01      	blt.n	8006d44 <_strtod_l+0x714>
 8006d40:	9c1a      	ldr	r4, [sp, #104]	@ 0x68
 8006d42:	195d      	adds	r5, r3, r5
 8006d44:	9909      	ldr	r1, [sp, #36]	@ 0x24
 8006d46:	9a20      	ldr	r2, [sp, #128]	@ 0x80
 8006d48:	1a5b      	subs	r3, r3, r1
 8006d4a:	2136      	movs	r1, #54	@ 0x36
 8006d4c:	189b      	adds	r3, r3, r2
 8006d4e:	1a8a      	subs	r2, r1, r2
 8006d50:	497a      	ldr	r1, [pc, #488]	@ (8006f3c <_strtod_l+0x90c>)
 8006d52:	2001      	movs	r0, #1
 8006d54:	468c      	mov	ip, r1
 8006d56:	2100      	movs	r1, #0
 8006d58:	3b01      	subs	r3, #1
 8006d5a:	9116      	str	r1, [sp, #88]	@ 0x58
 8006d5c:	9014      	str	r0, [sp, #80]	@ 0x50
 8006d5e:	4563      	cmp	r3, ip
 8006d60:	da06      	bge.n	8006d70 <_strtod_l+0x740>
 8006d62:	4661      	mov	r1, ip
 8006d64:	1ac9      	subs	r1, r1, r3
 8006d66:	1a52      	subs	r2, r2, r1
 8006d68:	291f      	cmp	r1, #31
 8006d6a:	dc3f      	bgt.n	8006dec <_strtod_l+0x7bc>
 8006d6c:	4088      	lsls	r0, r1
 8006d6e:	9014      	str	r0, [sp, #80]	@ 0x50
 8006d70:	18ab      	adds	r3, r5, r2
 8006d72:	930e      	str	r3, [sp, #56]	@ 0x38
 8006d74:	18a4      	adds	r4, r4, r2
 8006d76:	9b09      	ldr	r3, [sp, #36]	@ 0x24
 8006d78:	9a0e      	ldr	r2, [sp, #56]	@ 0x38
 8006d7a:	191c      	adds	r4, r3, r4
 8006d7c:	002b      	movs	r3, r5
 8006d7e:	4295      	cmp	r5, r2
 8006d80:	dd00      	ble.n	8006d84 <_strtod_l+0x754>
 8006d82:	0013      	movs	r3, r2
 8006d84:	42a3      	cmp	r3, r4
 8006d86:	dd00      	ble.n	8006d8a <_strtod_l+0x75a>
 8006d88:	0023      	movs	r3, r4
 8006d8a:	2b00      	cmp	r3, #0
 8006d8c:	dd04      	ble.n	8006d98 <_strtod_l+0x768>
 8006d8e:	9a0e      	ldr	r2, [sp, #56]	@ 0x38
 8006d90:	1ae4      	subs	r4, r4, r3
 8006d92:	1ad2      	subs	r2, r2, r3
 8006d94:	920e      	str	r2, [sp, #56]	@ 0x38
 8006d96:	1aed      	subs	r5, r5, r3
 8006d98:	9b17      	ldr	r3, [sp, #92]	@ 0x5c
 8006d9a:	2b00      	cmp	r3, #0
 8006d9c:	dd16      	ble.n	8006dcc <_strtod_l+0x79c>
 8006d9e:	001a      	movs	r2, r3
 8006da0:	9907      	ldr	r1, [sp, #28]
 8006da2:	9805      	ldr	r0, [sp, #20]
 8006da4:	f7ff f974 	bl	8006090 <__pow5mult>
 8006da8:	9007      	str	r0, [sp, #28]
 8006daa:	2800      	cmp	r0, #0
 8006dac:	d0b3      	beq.n	8006d16 <_strtod_l+0x6e6>
 8006dae:	0001      	movs	r1, r0
 8006db0:	9a1e      	ldr	r2, [sp, #120]	@ 0x78
 8006db2:	9805      	ldr	r0, [sp, #20]
 8006db4:	f7ff f8ba 	bl	8005f2c <__multiply>
 8006db8:	9013      	str	r0, [sp, #76]	@ 0x4c
 8006dba:	2800      	cmp	r0, #0
 8006dbc:	d100      	bne.n	8006dc0 <_strtod_l+0x790>
 8006dbe:	e671      	b.n	8006aa4 <_strtod_l+0x474>
 8006dc0:	991e      	ldr	r1, [sp, #120]	@ 0x78
 8006dc2:	9805      	ldr	r0, [sp, #20]
 8006dc4:	f7fe ff96 	bl	8005cf4 <_Bfree>
 8006dc8:	9b13      	ldr	r3, [sp, #76]	@ 0x4c
 8006dca:	931e      	str	r3, [sp, #120]	@ 0x78
 8006dcc:	9b0e      	ldr	r3, [sp, #56]	@ 0x38
 8006dce:	2b00      	cmp	r3, #0
 8006dd0:	dc12      	bgt.n	8006df8 <_strtod_l+0x7c8>
 8006dd2:	9b0c      	ldr	r3, [sp, #48]	@ 0x30
 8006dd4:	2b00      	cmp	r3, #0
 8006dd6:	dd18      	ble.n	8006e0a <_strtod_l+0x7da>
 8006dd8:	9a1a      	ldr	r2, [sp, #104]	@ 0x68
 8006dda:	9908      	ldr	r1, [sp, #32]
 8006ddc:	9805      	ldr	r0, [sp, #20]
 8006dde:	f7ff f957 	bl	8006090 <__pow5mult>
 8006de2:	9008      	str	r0, [sp, #32]
 8006de4:	2800      	cmp	r0, #0
 8006de6:	d110      	bne.n	8006e0a <_strtod_l+0x7da>
 8006de8:	2300      	movs	r3, #0
 8006dea:	e65a      	b.n	8006aa2 <_strtod_l+0x472>
 8006dec:	4954      	ldr	r1, [pc, #336]	@ (8006f40 <_strtod_l+0x910>)
 8006dee:	1acb      	subs	r3, r1, r3
 8006df0:	0001      	movs	r1, r0
 8006df2:	4099      	lsls	r1, r3
 8006df4:	9116      	str	r1, [sp, #88]	@ 0x58
 8006df6:	e7ba      	b.n	8006d6e <_strtod_l+0x73e>
 8006df8:	9a0e      	ldr	r2, [sp, #56]	@ 0x38
 8006dfa:	991e      	ldr	r1, [sp, #120]	@ 0x78
 8006dfc:	9805      	ldr	r0, [sp, #20]
 8006dfe:	f7ff f9a3 	bl	8006148 <__lshift>
 8006e02:	901e      	str	r0, [sp, #120]	@ 0x78
 8006e04:	2800      	cmp	r0, #0
 8006e06:	d1e4      	bne.n	8006dd2 <_strtod_l+0x7a2>
 8006e08:	e64c      	b.n	8006aa4 <_strtod_l+0x474>
 8006e0a:	2c00      	cmp	r4, #0
 8006e0c:	dd07      	ble.n	8006e1e <_strtod_l+0x7ee>
 8006e0e:	0022      	movs	r2, r4
 8006e10:	9908      	ldr	r1, [sp, #32]
 8006e12:	9805      	ldr	r0, [sp, #20]
 8006e14:	f7ff f998 	bl	8006148 <__lshift>
 8006e18:	9008      	str	r0, [sp, #32]
 8006e1a:	2800      	cmp	r0, #0
 8006e1c:	d0e4      	beq.n	8006de8 <_strtod_l+0x7b8>
 8006e1e:	2d00      	cmp	r5, #0
 8006e20:	dd08      	ble.n	8006e34 <_strtod_l+0x804>
 8006e22:	002a      	movs	r2, r5
 8006e24:	9907      	ldr	r1, [sp, #28]
 8006e26:	9805      	ldr	r0, [sp, #20]
 8006e28:	f7ff f98e 	bl	8006148 <__lshift>
 8006e2c:	9007      	str	r0, [sp, #28]
 8006e2e:	2800      	cmp	r0, #0
 8006e30:	d100      	bne.n	8006e34 <_strtod_l+0x804>
 8006e32:	e637      	b.n	8006aa4 <_strtod_l+0x474>
 8006e34:	9a08      	ldr	r2, [sp, #32]
 8006e36:	991e      	ldr	r1, [sp, #120]	@ 0x78
 8006e38:	9805      	ldr	r0, [sp, #20]
 8006e3a:	f7ff fa0d 	bl	8006258 <__mdiff>
 8006e3e:	9006      	str	r0, [sp, #24]
 8006e40:	2800      	cmp	r0, #0
 8006e42:	d100      	bne.n	8006e46 <_strtod_l+0x816>
 8006e44:	e62e      	b.n	8006aa4 <_strtod_l+0x474>
 8006e46:	68c3      	ldr	r3, [r0, #12]
 8006e48:	9907      	ldr	r1, [sp, #28]
 8006e4a:	9313      	str	r3, [sp, #76]	@ 0x4c
 8006e4c:	2300      	movs	r3, #0
 8006e4e:	60c3      	str	r3, [r0, #12]
 8006e50:	f7ff f9e6 	bl	8006220 <__mcmp>
 8006e54:	2800      	cmp	r0, #0
 8006e56:	da3b      	bge.n	8006ed0 <_strtod_l+0x8a0>
 8006e58:	9b13      	ldr	r3, [sp, #76]	@ 0x4c
 8006e5a:	4333      	orrs	r3, r6
 8006e5c:	d167      	bne.n	8006f2e <_strtod_l+0x8fe>
 8006e5e:	033b      	lsls	r3, r7, #12
 8006e60:	d165      	bne.n	8006f2e <_strtod_l+0x8fe>
 8006e62:	22d6      	movs	r2, #214	@ 0xd6
 8006e64:	4b37      	ldr	r3, [pc, #220]	@ (8006f44 <_strtod_l+0x914>)
 8006e66:	04d2      	lsls	r2, r2, #19
 8006e68:	403b      	ands	r3, r7
 8006e6a:	4293      	cmp	r3, r2
 8006e6c:	d95f      	bls.n	8006f2e <_strtod_l+0x8fe>
 8006e6e:	9b06      	ldr	r3, [sp, #24]
 8006e70:	695b      	ldr	r3, [r3, #20]
 8006e72:	2b00      	cmp	r3, #0
 8006e74:	d103      	bne.n	8006e7e <_strtod_l+0x84e>
 8006e76:	9b06      	ldr	r3, [sp, #24]
 8006e78:	691b      	ldr	r3, [r3, #16]
 8006e7a:	2b01      	cmp	r3, #1
 8006e7c:	dd57      	ble.n	8006f2e <_strtod_l+0x8fe>
 8006e7e:	9906      	ldr	r1, [sp, #24]
 8006e80:	2201      	movs	r2, #1
 8006e82:	9805      	ldr	r0, [sp, #20]
 8006e84:	f7ff f960 	bl	8006148 <__lshift>
 8006e88:	9907      	ldr	r1, [sp, #28]
 8006e8a:	9006      	str	r0, [sp, #24]
 8006e8c:	f7ff f9c8 	bl	8006220 <__mcmp>
 8006e90:	2800      	cmp	r0, #0
 8006e92:	dd4c      	ble.n	8006f2e <_strtod_l+0x8fe>
 8006e94:	4b2b      	ldr	r3, [pc, #172]	@ (8006f44 <_strtod_l+0x914>)
 8006e96:	9a09      	ldr	r2, [sp, #36]	@ 0x24
 8006e98:	403b      	ands	r3, r7
 8006e9a:	2a00      	cmp	r2, #0
 8006e9c:	d074      	beq.n	8006f88 <_strtod_l+0x958>
 8006e9e:	22d6      	movs	r2, #214	@ 0xd6
 8006ea0:	04d2      	lsls	r2, r2, #19
 8006ea2:	4293      	cmp	r3, r2
 8006ea4:	d870      	bhi.n	8006f88 <_strtod_l+0x958>
 8006ea6:	22dc      	movs	r2, #220	@ 0xdc
 8006ea8:	0492      	lsls	r2, r2, #18
 8006eaa:	4293      	cmp	r3, r2
 8006eac:	d800      	bhi.n	8006eb0 <_strtod_l+0x880>
 8006eae:	e695      	b.n	8006bdc <_strtod_l+0x5ac>
 8006eb0:	0030      	movs	r0, r6
 8006eb2:	0039      	movs	r1, r7
 8006eb4:	4b24      	ldr	r3, [pc, #144]	@ (8006f48 <_strtod_l+0x918>)
 8006eb6:	2200      	movs	r2, #0
 8006eb8:	f7fa fe28 	bl	8001b0c <__aeabi_dmul>
 8006ebc:	4b21      	ldr	r3, [pc, #132]	@ (8006f44 <_strtod_l+0x914>)
 8006ebe:	0006      	movs	r6, r0
 8006ec0:	000f      	movs	r7, r1
 8006ec2:	420b      	tst	r3, r1
 8006ec4:	d000      	beq.n	8006ec8 <_strtod_l+0x898>
 8006ec6:	e5f6      	b.n	8006ab6 <_strtod_l+0x486>
 8006ec8:	2322      	movs	r3, #34	@ 0x22
 8006eca:	9a05      	ldr	r2, [sp, #20]
 8006ecc:	6013      	str	r3, [r2, #0]
 8006ece:	e5f2      	b.n	8006ab6 <_strtod_l+0x486>
 8006ed0:	970e      	str	r7, [sp, #56]	@ 0x38
 8006ed2:	2800      	cmp	r0, #0
 8006ed4:	d175      	bne.n	8006fc2 <_strtod_l+0x992>
 8006ed6:	9a13      	ldr	r2, [sp, #76]	@ 0x4c
 8006ed8:	033b      	lsls	r3, r7, #12
 8006eda:	0b1b      	lsrs	r3, r3, #12
 8006edc:	2a00      	cmp	r2, #0
 8006ede:	d039      	beq.n	8006f54 <_strtod_l+0x924>
 8006ee0:	4a1a      	ldr	r2, [pc, #104]	@ (8006f4c <_strtod_l+0x91c>)
 8006ee2:	4293      	cmp	r3, r2
 8006ee4:	d138      	bne.n	8006f58 <_strtod_l+0x928>
 8006ee6:	2101      	movs	r1, #1
 8006ee8:	9b09      	ldr	r3, [sp, #36]	@ 0x24
 8006eea:	4249      	negs	r1, r1
 8006eec:	0032      	movs	r2, r6
 8006eee:	0008      	movs	r0, r1
 8006ef0:	2b00      	cmp	r3, #0
 8006ef2:	d00b      	beq.n	8006f0c <_strtod_l+0x8dc>
 8006ef4:	24d4      	movs	r4, #212	@ 0xd4
 8006ef6:	4b13      	ldr	r3, [pc, #76]	@ (8006f44 <_strtod_l+0x914>)
 8006ef8:	0008      	movs	r0, r1
 8006efa:	403b      	ands	r3, r7
 8006efc:	04e4      	lsls	r4, r4, #19
 8006efe:	42a3      	cmp	r3, r4
 8006f00:	d804      	bhi.n	8006f0c <_strtod_l+0x8dc>
 8006f02:	306c      	adds	r0, #108	@ 0x6c
 8006f04:	0d1b      	lsrs	r3, r3, #20
 8006f06:	1ac3      	subs	r3, r0, r3
 8006f08:	4099      	lsls	r1, r3
 8006f0a:	0008      	movs	r0, r1
 8006f0c:	4282      	cmp	r2, r0
 8006f0e:	d123      	bne.n	8006f58 <_strtod_l+0x928>
 8006f10:	4b0f      	ldr	r3, [pc, #60]	@ (8006f50 <_strtod_l+0x920>)
 8006f12:	990e      	ldr	r1, [sp, #56]	@ 0x38
 8006f14:	4299      	cmp	r1, r3
 8006f16:	d102      	bne.n	8006f1e <_strtod_l+0x8ee>
 8006f18:	3201      	adds	r2, #1
 8006f1a:	d100      	bne.n	8006f1e <_strtod_l+0x8ee>
 8006f1c:	e5c2      	b.n	8006aa4 <_strtod_l+0x474>
 8006f1e:	4b09      	ldr	r3, [pc, #36]	@ (8006f44 <_strtod_l+0x914>)
 8006f20:	9a0e      	ldr	r2, [sp, #56]	@ 0x38
 8006f22:	2600      	movs	r6, #0
 8006f24:	401a      	ands	r2, r3
 8006f26:	0013      	movs	r3, r2
 8006f28:	2280      	movs	r2, #128	@ 0x80
 8006f2a:	0352      	lsls	r2, r2, #13
 8006f2c:	189f      	adds	r7, r3, r2
 8006f2e:	9b09      	ldr	r3, [sp, #36]	@ 0x24
 8006f30:	2b00      	cmp	r3, #0
 8006f32:	d1bd      	bne.n	8006eb0 <_strtod_l+0x880>
 8006f34:	e5bf      	b.n	8006ab6 <_strtod_l+0x486>
 8006f36:	46c0      	nop			@ (mov r8, r8)
 8006f38:	08008860 	.word	0x08008860
 8006f3c:	fffffc02 	.word	0xfffffc02
 8006f40:	fffffbe2 	.word	0xfffffbe2
 8006f44:	7ff00000 	.word	0x7ff00000
 8006f48:	39500000 	.word	0x39500000
 8006f4c:	000fffff 	.word	0x000fffff
 8006f50:	7fefffff 	.word	0x7fefffff
 8006f54:	4333      	orrs	r3, r6
 8006f56:	d09d      	beq.n	8006e94 <_strtod_l+0x864>
 8006f58:	9b16      	ldr	r3, [sp, #88]	@ 0x58
 8006f5a:	2b00      	cmp	r3, #0
 8006f5c:	d01c      	beq.n	8006f98 <_strtod_l+0x968>
 8006f5e:	9b0e      	ldr	r3, [sp, #56]	@ 0x38
 8006f60:	9a16      	ldr	r2, [sp, #88]	@ 0x58
 8006f62:	4213      	tst	r3, r2
 8006f64:	d0e3      	beq.n	8006f2e <_strtod_l+0x8fe>
 8006f66:	9b13      	ldr	r3, [sp, #76]	@ 0x4c
 8006f68:	0030      	movs	r0, r6
 8006f6a:	0039      	movs	r1, r7
 8006f6c:	9a09      	ldr	r2, [sp, #36]	@ 0x24
 8006f6e:	2b00      	cmp	r3, #0
 8006f70:	d016      	beq.n	8006fa0 <_strtod_l+0x970>
 8006f72:	f7ff fb45 	bl	8006600 <sulp>
 8006f76:	0002      	movs	r2, r0
 8006f78:	000b      	movs	r3, r1
 8006f7a:	9810      	ldr	r0, [sp, #64]	@ 0x40
 8006f7c:	9911      	ldr	r1, [sp, #68]	@ 0x44
 8006f7e:	f7f9 fe1d 	bl	8000bbc <__aeabi_dadd>
 8006f82:	0006      	movs	r6, r0
 8006f84:	000f      	movs	r7, r1
 8006f86:	e7d2      	b.n	8006f2e <_strtod_l+0x8fe>
 8006f88:	2601      	movs	r6, #1
 8006f8a:	4a92      	ldr	r2, [pc, #584]	@ (80071d4 <_strtod_l+0xba4>)
 8006f8c:	4276      	negs	r6, r6
 8006f8e:	189b      	adds	r3, r3, r2
 8006f90:	4a91      	ldr	r2, [pc, #580]	@ (80071d8 <_strtod_l+0xba8>)
 8006f92:	431a      	orrs	r2, r3
 8006f94:	0017      	movs	r7, r2
 8006f96:	e7ca      	b.n	8006f2e <_strtod_l+0x8fe>
 8006f98:	9b14      	ldr	r3, [sp, #80]	@ 0x50
 8006f9a:	4233      	tst	r3, r6
 8006f9c:	d0c7      	beq.n	8006f2e <_strtod_l+0x8fe>
 8006f9e:	e7e2      	b.n	8006f66 <_strtod_l+0x936>
 8006fa0:	f7ff fb2e 	bl	8006600 <sulp>
 8006fa4:	0002      	movs	r2, r0
 8006fa6:	000b      	movs	r3, r1
 8006fa8:	9810      	ldr	r0, [sp, #64]	@ 0x40
 8006faa:	9911      	ldr	r1, [sp, #68]	@ 0x44
 8006fac:	f7fb f876 	bl	800209c <__aeabi_dsub>
 8006fb0:	2200      	movs	r2, #0
 8006fb2:	2300      	movs	r3, #0
 8006fb4:	0006      	movs	r6, r0
 8006fb6:	000f      	movs	r7, r1
 8006fb8:	f7f9 fa46 	bl	8000448 <__aeabi_dcmpeq>
 8006fbc:	2800      	cmp	r0, #0
 8006fbe:	d0b6      	beq.n	8006f2e <_strtod_l+0x8fe>
 8006fc0:	e60c      	b.n	8006bdc <_strtod_l+0x5ac>
 8006fc2:	9907      	ldr	r1, [sp, #28]
 8006fc4:	9806      	ldr	r0, [sp, #24]
 8006fc6:	f7ff faad 	bl	8006524 <__ratio>
 8006fca:	2380      	movs	r3, #128	@ 0x80
 8006fcc:	2200      	movs	r2, #0
 8006fce:	05db      	lsls	r3, r3, #23
 8006fd0:	0004      	movs	r4, r0
 8006fd2:	000d      	movs	r5, r1
 8006fd4:	f7f9 fa48 	bl	8000468 <__aeabi_dcmple>
 8006fd8:	2800      	cmp	r0, #0
 8006fda:	d06c      	beq.n	80070b6 <_strtod_l+0xa86>
 8006fdc:	9b13      	ldr	r3, [sp, #76]	@ 0x4c
 8006fde:	2b00      	cmp	r3, #0
 8006fe0:	d177      	bne.n	80070d2 <_strtod_l+0xaa2>
 8006fe2:	2e00      	cmp	r6, #0
 8006fe4:	d157      	bne.n	8007096 <_strtod_l+0xa66>
 8006fe6:	9b0e      	ldr	r3, [sp, #56]	@ 0x38
 8006fe8:	031b      	lsls	r3, r3, #12
 8006fea:	d15a      	bne.n	80070a2 <_strtod_l+0xa72>
 8006fec:	2200      	movs	r2, #0
 8006fee:	0020      	movs	r0, r4
 8006ff0:	0029      	movs	r1, r5
 8006ff2:	4b7a      	ldr	r3, [pc, #488]	@ (80071dc <_strtod_l+0xbac>)
 8006ff4:	f7f9 fa2e 	bl	8000454 <__aeabi_dcmplt>
 8006ff8:	2800      	cmp	r0, #0
 8006ffa:	d159      	bne.n	80070b0 <_strtod_l+0xa80>
 8006ffc:	0020      	movs	r0, r4
 8006ffe:	0029      	movs	r1, r5
 8007000:	2200      	movs	r2, #0
 8007002:	4b77      	ldr	r3, [pc, #476]	@ (80071e0 <_strtod_l+0xbb0>)
 8007004:	f7fa fd82 	bl	8001b0c <__aeabi_dmul>
 8007008:	0004      	movs	r4, r0
 800700a:	000d      	movs	r5, r1
 800700c:	2380      	movs	r3, #128	@ 0x80
 800700e:	061b      	lsls	r3, r3, #24
 8007010:	18eb      	adds	r3, r5, r3
 8007012:	940a      	str	r4, [sp, #40]	@ 0x28
 8007014:	930b      	str	r3, [sp, #44]	@ 0x2c
 8007016:	9a0a      	ldr	r2, [sp, #40]	@ 0x28
 8007018:	9b0b      	ldr	r3, [sp, #44]	@ 0x2c
 800701a:	9214      	str	r2, [sp, #80]	@ 0x50
 800701c:	9315      	str	r3, [sp, #84]	@ 0x54
 800701e:	4a71      	ldr	r2, [pc, #452]	@ (80071e4 <_strtod_l+0xbb4>)
 8007020:	9b0e      	ldr	r3, [sp, #56]	@ 0x38
 8007022:	4013      	ands	r3, r2
 8007024:	9316      	str	r3, [sp, #88]	@ 0x58
 8007026:	9a16      	ldr	r2, [sp, #88]	@ 0x58
 8007028:	4b6f      	ldr	r3, [pc, #444]	@ (80071e8 <_strtod_l+0xbb8>)
 800702a:	429a      	cmp	r2, r3
 800702c:	d000      	beq.n	8007030 <_strtod_l+0xa00>
 800702e:	e087      	b.n	8007140 <_strtod_l+0xb10>
 8007030:	4a6e      	ldr	r2, [pc, #440]	@ (80071ec <_strtod_l+0xbbc>)
 8007032:	9b0e      	ldr	r3, [sp, #56]	@ 0x38
 8007034:	4694      	mov	ip, r2
 8007036:	4463      	add	r3, ip
 8007038:	001f      	movs	r7, r3
 800703a:	0030      	movs	r0, r6
 800703c:	0019      	movs	r1, r3
 800703e:	f7ff f9a5 	bl	800638c <__ulp>
 8007042:	9a0a      	ldr	r2, [sp, #40]	@ 0x28
 8007044:	9b0b      	ldr	r3, [sp, #44]	@ 0x2c
 8007046:	f7fa fd61 	bl	8001b0c <__aeabi_dmul>
 800704a:	0032      	movs	r2, r6
 800704c:	003b      	movs	r3, r7
 800704e:	f7f9 fdb5 	bl	8000bbc <__aeabi_dadd>
 8007052:	4a64      	ldr	r2, [pc, #400]	@ (80071e4 <_strtod_l+0xbb4>)
 8007054:	4b66      	ldr	r3, [pc, #408]	@ (80071f0 <_strtod_l+0xbc0>)
 8007056:	0006      	movs	r6, r0
 8007058:	400a      	ands	r2, r1
 800705a:	429a      	cmp	r2, r3
 800705c:	d940      	bls.n	80070e0 <_strtod_l+0xab0>
 800705e:	9b11      	ldr	r3, [sp, #68]	@ 0x44
 8007060:	4a64      	ldr	r2, [pc, #400]	@ (80071f4 <_strtod_l+0xbc4>)
 8007062:	4293      	cmp	r3, r2
 8007064:	d103      	bne.n	800706e <_strtod_l+0xa3e>
 8007066:	9b10      	ldr	r3, [sp, #64]	@ 0x40
 8007068:	3301      	adds	r3, #1
 800706a:	d100      	bne.n	800706e <_strtod_l+0xa3e>
 800706c:	e51a      	b.n	8006aa4 <_strtod_l+0x474>
 800706e:	2601      	movs	r6, #1
 8007070:	4f60      	ldr	r7, [pc, #384]	@ (80071f4 <_strtod_l+0xbc4>)
 8007072:	4276      	negs	r6, r6
 8007074:	991e      	ldr	r1, [sp, #120]	@ 0x78
 8007076:	9805      	ldr	r0, [sp, #20]
 8007078:	f7fe fe3c 	bl	8005cf4 <_Bfree>
 800707c:	9908      	ldr	r1, [sp, #32]
 800707e:	9805      	ldr	r0, [sp, #20]
 8007080:	f7fe fe38 	bl	8005cf4 <_Bfree>
 8007084:	9907      	ldr	r1, [sp, #28]
 8007086:	9805      	ldr	r0, [sp, #20]
 8007088:	f7fe fe34 	bl	8005cf4 <_Bfree>
 800708c:	9906      	ldr	r1, [sp, #24]
 800708e:	9805      	ldr	r0, [sp, #20]
 8007090:	f7fe fe30 	bl	8005cf4 <_Bfree>
 8007094:	e617      	b.n	8006cc6 <_strtod_l+0x696>
 8007096:	2e01      	cmp	r6, #1
 8007098:	d103      	bne.n	80070a2 <_strtod_l+0xa72>
 800709a:	9b0e      	ldr	r3, [sp, #56]	@ 0x38
 800709c:	2b00      	cmp	r3, #0
 800709e:	d100      	bne.n	80070a2 <_strtod_l+0xa72>
 80070a0:	e59c      	b.n	8006bdc <_strtod_l+0x5ac>
 80070a2:	2300      	movs	r3, #0
 80070a4:	4c54      	ldr	r4, [pc, #336]	@ (80071f8 <_strtod_l+0xbc8>)
 80070a6:	4d4d      	ldr	r5, [pc, #308]	@ (80071dc <_strtod_l+0xbac>)
 80070a8:	930a      	str	r3, [sp, #40]	@ 0x28
 80070aa:	940b      	str	r4, [sp, #44]	@ 0x2c
 80070ac:	2400      	movs	r4, #0
 80070ae:	e7b2      	b.n	8007016 <_strtod_l+0x9e6>
 80070b0:	2400      	movs	r4, #0
 80070b2:	4d4b      	ldr	r5, [pc, #300]	@ (80071e0 <_strtod_l+0xbb0>)
 80070b4:	e7aa      	b.n	800700c <_strtod_l+0x9dc>
 80070b6:	0020      	movs	r0, r4
 80070b8:	0029      	movs	r1, r5
 80070ba:	4b49      	ldr	r3, [pc, #292]	@ (80071e0 <_strtod_l+0xbb0>)
 80070bc:	2200      	movs	r2, #0
 80070be:	f7fa fd25 	bl	8001b0c <__aeabi_dmul>
 80070c2:	9b13      	ldr	r3, [sp, #76]	@ 0x4c
 80070c4:	0004      	movs	r4, r0
 80070c6:	000d      	movs	r5, r1
 80070c8:	2b00      	cmp	r3, #0
 80070ca:	d09f      	beq.n	800700c <_strtod_l+0x9dc>
 80070cc:	940a      	str	r4, [sp, #40]	@ 0x28
 80070ce:	950b      	str	r5, [sp, #44]	@ 0x2c
 80070d0:	e7a1      	b.n	8007016 <_strtod_l+0x9e6>
 80070d2:	2300      	movs	r3, #0
 80070d4:	4c41      	ldr	r4, [pc, #260]	@ (80071dc <_strtod_l+0xbac>)
 80070d6:	0025      	movs	r5, r4
 80070d8:	930a      	str	r3, [sp, #40]	@ 0x28
 80070da:	940b      	str	r4, [sp, #44]	@ 0x2c
 80070dc:	001c      	movs	r4, r3
 80070de:	e79a      	b.n	8007016 <_strtod_l+0x9e6>
 80070e0:	23d4      	movs	r3, #212	@ 0xd4
 80070e2:	049b      	lsls	r3, r3, #18
 80070e4:	18cf      	adds	r7, r1, r3
 80070e6:	9b09      	ldr	r3, [sp, #36]	@ 0x24
 80070e8:	9710      	str	r7, [sp, #64]	@ 0x40
 80070ea:	2b00      	cmp	r3, #0
 80070ec:	d1c2      	bne.n	8007074 <_strtod_l+0xa44>
 80070ee:	4b3d      	ldr	r3, [pc, #244]	@ (80071e4 <_strtod_l+0xbb4>)
 80070f0:	9a16      	ldr	r2, [sp, #88]	@ 0x58
 80070f2:	403b      	ands	r3, r7
 80070f4:	429a      	cmp	r2, r3
 80070f6:	d1bd      	bne.n	8007074 <_strtod_l+0xa44>
 80070f8:	0020      	movs	r0, r4
 80070fa:	0029      	movs	r1, r5
 80070fc:	f7f9 fa42 	bl	8000584 <__aeabi_d2lz>
 8007100:	f7f9 fa7a 	bl	80005f8 <__aeabi_l2d>
 8007104:	0002      	movs	r2, r0
 8007106:	000b      	movs	r3, r1
 8007108:	0020      	movs	r0, r4
 800710a:	0029      	movs	r1, r5
 800710c:	f7fa ffc6 	bl	800209c <__aeabi_dsub>
 8007110:	033c      	lsls	r4, r7, #12
 8007112:	9b13      	ldr	r3, [sp, #76]	@ 0x4c
 8007114:	0b24      	lsrs	r4, r4, #12
 8007116:	4334      	orrs	r4, r6
 8007118:	900e      	str	r0, [sp, #56]	@ 0x38
 800711a:	910f      	str	r1, [sp, #60]	@ 0x3c
 800711c:	4a37      	ldr	r2, [pc, #220]	@ (80071fc <_strtod_l+0xbcc>)
 800711e:	431c      	orrs	r4, r3
 8007120:	d052      	beq.n	80071c8 <_strtod_l+0xb98>
 8007122:	4b37      	ldr	r3, [pc, #220]	@ (8007200 <_strtod_l+0xbd0>)
 8007124:	f7f9 f996 	bl	8000454 <__aeabi_dcmplt>
 8007128:	2800      	cmp	r0, #0
 800712a:	d000      	beq.n	800712e <_strtod_l+0xafe>
 800712c:	e4c3      	b.n	8006ab6 <_strtod_l+0x486>
 800712e:	980e      	ldr	r0, [sp, #56]	@ 0x38
 8007130:	990f      	ldr	r1, [sp, #60]	@ 0x3c
 8007132:	4a34      	ldr	r2, [pc, #208]	@ (8007204 <_strtod_l+0xbd4>)
 8007134:	4b2a      	ldr	r3, [pc, #168]	@ (80071e0 <_strtod_l+0xbb0>)
 8007136:	f7f9 f9a1 	bl	800047c <__aeabi_dcmpgt>
 800713a:	2800      	cmp	r0, #0
 800713c:	d09a      	beq.n	8007074 <_strtod_l+0xa44>
 800713e:	e4ba      	b.n	8006ab6 <_strtod_l+0x486>
 8007140:	9b09      	ldr	r3, [sp, #36]	@ 0x24
 8007142:	2b00      	cmp	r3, #0
 8007144:	d02a      	beq.n	800719c <_strtod_l+0xb6c>
 8007146:	23d4      	movs	r3, #212	@ 0xd4
 8007148:	9a16      	ldr	r2, [sp, #88]	@ 0x58
 800714a:	04db      	lsls	r3, r3, #19
 800714c:	429a      	cmp	r2, r3
 800714e:	d825      	bhi.n	800719c <_strtod_l+0xb6c>
 8007150:	0020      	movs	r0, r4
 8007152:	0029      	movs	r1, r5
 8007154:	4a2c      	ldr	r2, [pc, #176]	@ (8007208 <_strtod_l+0xbd8>)
 8007156:	4b2d      	ldr	r3, [pc, #180]	@ (800720c <_strtod_l+0xbdc>)
 8007158:	f7f9 f986 	bl	8000468 <__aeabi_dcmple>
 800715c:	2800      	cmp	r0, #0
 800715e:	d016      	beq.n	800718e <_strtod_l+0xb5e>
 8007160:	0020      	movs	r0, r4
 8007162:	0029      	movs	r1, r5
 8007164:	f7f9 f9f0 	bl	8000548 <__aeabi_d2uiz>
 8007168:	2800      	cmp	r0, #0
 800716a:	d100      	bne.n	800716e <_strtod_l+0xb3e>
 800716c:	3001      	adds	r0, #1
 800716e:	f7fb fbbd 	bl	80028ec <__aeabi_ui2d>
 8007172:	9b13      	ldr	r3, [sp, #76]	@ 0x4c
 8007174:	0004      	movs	r4, r0
 8007176:	000d      	movs	r5, r1
 8007178:	2b00      	cmp	r3, #0
 800717a:	d122      	bne.n	80071c2 <_strtod_l+0xb92>
 800717c:	2380      	movs	r3, #128	@ 0x80
 800717e:	061b      	lsls	r3, r3, #24
 8007180:	18cb      	adds	r3, r1, r3
 8007182:	9018      	str	r0, [sp, #96]	@ 0x60
 8007184:	9319      	str	r3, [sp, #100]	@ 0x64
 8007186:	9a18      	ldr	r2, [sp, #96]	@ 0x60
 8007188:	9b19      	ldr	r3, [sp, #100]	@ 0x64
 800718a:	9214      	str	r2, [sp, #80]	@ 0x50
 800718c:	9315      	str	r3, [sp, #84]	@ 0x54
 800718e:	22d6      	movs	r2, #214	@ 0xd6
 8007190:	9b15      	ldr	r3, [sp, #84]	@ 0x54
 8007192:	04d2      	lsls	r2, r2, #19
 8007194:	189b      	adds	r3, r3, r2
 8007196:	9a16      	ldr	r2, [sp, #88]	@ 0x58
 8007198:	1a9b      	subs	r3, r3, r2
 800719a:	9315      	str	r3, [sp, #84]	@ 0x54
 800719c:	9810      	ldr	r0, [sp, #64]	@ 0x40
 800719e:	9911      	ldr	r1, [sp, #68]	@ 0x44
 80071a0:	9e14      	ldr	r6, [sp, #80]	@ 0x50
 80071a2:	9f15      	ldr	r7, [sp, #84]	@ 0x54
 80071a4:	f7ff f8f2 	bl	800638c <__ulp>
 80071a8:	0002      	movs	r2, r0
 80071aa:	000b      	movs	r3, r1
 80071ac:	0030      	movs	r0, r6
 80071ae:	0039      	movs	r1, r7
 80071b0:	f7fa fcac 	bl	8001b0c <__aeabi_dmul>
 80071b4:	9a10      	ldr	r2, [sp, #64]	@ 0x40
 80071b6:	9b11      	ldr	r3, [sp, #68]	@ 0x44
 80071b8:	f7f9 fd00 	bl	8000bbc <__aeabi_dadd>
 80071bc:	0006      	movs	r6, r0
 80071be:	000f      	movs	r7, r1
 80071c0:	e791      	b.n	80070e6 <_strtod_l+0xab6>
 80071c2:	9418      	str	r4, [sp, #96]	@ 0x60
 80071c4:	9519      	str	r5, [sp, #100]	@ 0x64
 80071c6:	e7de      	b.n	8007186 <_strtod_l+0xb56>
 80071c8:	4b11      	ldr	r3, [pc, #68]	@ (8007210 <_strtod_l+0xbe0>)
 80071ca:	980e      	ldr	r0, [sp, #56]	@ 0x38
 80071cc:	990f      	ldr	r1, [sp, #60]	@ 0x3c
 80071ce:	f7f9 f941 	bl	8000454 <__aeabi_dcmplt>
 80071d2:	e7b2      	b.n	800713a <_strtod_l+0xb0a>
 80071d4:	fff00000 	.word	0xfff00000
 80071d8:	000fffff 	.word	0x000fffff
 80071dc:	3ff00000 	.word	0x3ff00000
 80071e0:	3fe00000 	.word	0x3fe00000
 80071e4:	7ff00000 	.word	0x7ff00000
 80071e8:	7fe00000 	.word	0x7fe00000
 80071ec:	fcb00000 	.word	0xfcb00000
 80071f0:	7c9fffff 	.word	0x7c9fffff
 80071f4:	7fefffff 	.word	0x7fefffff
 80071f8:	bff00000 	.word	0xbff00000
 80071fc:	94a03595 	.word	0x94a03595
 8007200:	3fdfffff 	.word	0x3fdfffff
 8007204:	35afe535 	.word	0x35afe535
 8007208:	ffc00000 	.word	0xffc00000
 800720c:	41dfffff 	.word	0x41dfffff
 8007210:	3fcfffff 	.word	0x3fcfffff

08007214 <_strtod_r>:
 8007214:	b510      	push	{r4, lr}
 8007216:	4b02      	ldr	r3, [pc, #8]	@ (8007220 <_strtod_r+0xc>)
 8007218:	f7ff fa0a 	bl	8006630 <_strtod_l>
 800721c:	bd10      	pop	{r4, pc}
 800721e:	46c0      	nop			@ (mov r8, r8)
 8007220:	20000060 	.word	0x20000060

08007224 <_strtol_l.constprop.0>:
 8007224:	b5f0      	push	{r4, r5, r6, r7, lr}
 8007226:	b085      	sub	sp, #20
 8007228:	0017      	movs	r7, r2
 800722a:	001e      	movs	r6, r3
 800722c:	9003      	str	r0, [sp, #12]
 800722e:	9101      	str	r1, [sp, #4]
 8007230:	2b24      	cmp	r3, #36	@ 0x24
 8007232:	d844      	bhi.n	80072be <_strtol_l.constprop.0+0x9a>
 8007234:	000c      	movs	r4, r1
 8007236:	2b01      	cmp	r3, #1
 8007238:	d041      	beq.n	80072be <_strtol_l.constprop.0+0x9a>
 800723a:	4b3d      	ldr	r3, [pc, #244]	@ (8007330 <_strtol_l.constprop.0+0x10c>)
 800723c:	2208      	movs	r2, #8
 800723e:	469c      	mov	ip, r3
 8007240:	0023      	movs	r3, r4
 8007242:	4661      	mov	r1, ip
 8007244:	781d      	ldrb	r5, [r3, #0]
 8007246:	3401      	adds	r4, #1
 8007248:	5d48      	ldrb	r0, [r1, r5]
 800724a:	0001      	movs	r1, r0
 800724c:	4011      	ands	r1, r2
 800724e:	4210      	tst	r0, r2
 8007250:	d1f6      	bne.n	8007240 <_strtol_l.constprop.0+0x1c>
 8007252:	2d2d      	cmp	r5, #45	@ 0x2d
 8007254:	d13a      	bne.n	80072cc <_strtol_l.constprop.0+0xa8>
 8007256:	7825      	ldrb	r5, [r4, #0]
 8007258:	1c9c      	adds	r4, r3, #2
 800725a:	2301      	movs	r3, #1
 800725c:	9300      	str	r3, [sp, #0]
 800725e:	2210      	movs	r2, #16
 8007260:	0033      	movs	r3, r6
 8007262:	4393      	bics	r3, r2
 8007264:	d109      	bne.n	800727a <_strtol_l.constprop.0+0x56>
 8007266:	2d30      	cmp	r5, #48	@ 0x30
 8007268:	d136      	bne.n	80072d8 <_strtol_l.constprop.0+0xb4>
 800726a:	2120      	movs	r1, #32
 800726c:	7823      	ldrb	r3, [r4, #0]
 800726e:	438b      	bics	r3, r1
 8007270:	2b58      	cmp	r3, #88	@ 0x58
 8007272:	d131      	bne.n	80072d8 <_strtol_l.constprop.0+0xb4>
 8007274:	0016      	movs	r6, r2
 8007276:	7865      	ldrb	r5, [r4, #1]
 8007278:	3402      	adds	r4, #2
 800727a:	4a2e      	ldr	r2, [pc, #184]	@ (8007334 <_strtol_l.constprop.0+0x110>)
 800727c:	9b00      	ldr	r3, [sp, #0]
 800727e:	4694      	mov	ip, r2
 8007280:	4463      	add	r3, ip
 8007282:	0031      	movs	r1, r6
 8007284:	0018      	movs	r0, r3
 8007286:	9302      	str	r3, [sp, #8]
 8007288:	f7f8 ffde 	bl	8000248 <__aeabi_uidivmod>
 800728c:	2200      	movs	r2, #0
 800728e:	4684      	mov	ip, r0
 8007290:	0010      	movs	r0, r2
 8007292:	002b      	movs	r3, r5
 8007294:	3b30      	subs	r3, #48	@ 0x30
 8007296:	2b09      	cmp	r3, #9
 8007298:	d825      	bhi.n	80072e6 <_strtol_l.constprop.0+0xc2>
 800729a:	001d      	movs	r5, r3
 800729c:	42ae      	cmp	r6, r5
 800729e:	dd31      	ble.n	8007304 <_strtol_l.constprop.0+0xe0>
 80072a0:	1c53      	adds	r3, r2, #1
 80072a2:	d009      	beq.n	80072b8 <_strtol_l.constprop.0+0x94>
 80072a4:	2201      	movs	r2, #1
 80072a6:	4252      	negs	r2, r2
 80072a8:	4584      	cmp	ip, r0
 80072aa:	d305      	bcc.n	80072b8 <_strtol_l.constprop.0+0x94>
 80072ac:	d101      	bne.n	80072b2 <_strtol_l.constprop.0+0x8e>
 80072ae:	42a9      	cmp	r1, r5
 80072b0:	db25      	blt.n	80072fe <_strtol_l.constprop.0+0xda>
 80072b2:	2201      	movs	r2, #1
 80072b4:	4370      	muls	r0, r6
 80072b6:	1828      	adds	r0, r5, r0
 80072b8:	7825      	ldrb	r5, [r4, #0]
 80072ba:	3401      	adds	r4, #1
 80072bc:	e7e9      	b.n	8007292 <_strtol_l.constprop.0+0x6e>
 80072be:	f7fd fd07 	bl	8004cd0 <__errno>
 80072c2:	2316      	movs	r3, #22
 80072c4:	6003      	str	r3, [r0, #0]
 80072c6:	2000      	movs	r0, #0
 80072c8:	b005      	add	sp, #20
 80072ca:	bdf0      	pop	{r4, r5, r6, r7, pc}
 80072cc:	9100      	str	r1, [sp, #0]
 80072ce:	2d2b      	cmp	r5, #43	@ 0x2b
 80072d0:	d1c5      	bne.n	800725e <_strtol_l.constprop.0+0x3a>
 80072d2:	7825      	ldrb	r5, [r4, #0]
 80072d4:	1c9c      	adds	r4, r3, #2
 80072d6:	e7c2      	b.n	800725e <_strtol_l.constprop.0+0x3a>
 80072d8:	2e00      	cmp	r6, #0
 80072da:	d1ce      	bne.n	800727a <_strtol_l.constprop.0+0x56>
 80072dc:	3608      	adds	r6, #8
 80072de:	2d30      	cmp	r5, #48	@ 0x30
 80072e0:	d0cb      	beq.n	800727a <_strtol_l.constprop.0+0x56>
 80072e2:	3602      	adds	r6, #2
 80072e4:	e7c9      	b.n	800727a <_strtol_l.constprop.0+0x56>
 80072e6:	002b      	movs	r3, r5
 80072e8:	3b41      	subs	r3, #65	@ 0x41
 80072ea:	2b19      	cmp	r3, #25
 80072ec:	d801      	bhi.n	80072f2 <_strtol_l.constprop.0+0xce>
 80072ee:	3d37      	subs	r5, #55	@ 0x37
 80072f0:	e7d4      	b.n	800729c <_strtol_l.constprop.0+0x78>
 80072f2:	002b      	movs	r3, r5
 80072f4:	3b61      	subs	r3, #97	@ 0x61
 80072f6:	2b19      	cmp	r3, #25
 80072f8:	d804      	bhi.n	8007304 <_strtol_l.constprop.0+0xe0>
 80072fa:	3d57      	subs	r5, #87	@ 0x57
 80072fc:	e7ce      	b.n	800729c <_strtol_l.constprop.0+0x78>
 80072fe:	2201      	movs	r2, #1
 8007300:	4252      	negs	r2, r2
 8007302:	e7d9      	b.n	80072b8 <_strtol_l.constprop.0+0x94>
 8007304:	1c53      	adds	r3, r2, #1
 8007306:	d108      	bne.n	800731a <_strtol_l.constprop.0+0xf6>
 8007308:	2322      	movs	r3, #34	@ 0x22
 800730a:	9a03      	ldr	r2, [sp, #12]
 800730c:	9802      	ldr	r0, [sp, #8]
 800730e:	6013      	str	r3, [r2, #0]
 8007310:	2f00      	cmp	r7, #0
 8007312:	d0d9      	beq.n	80072c8 <_strtol_l.constprop.0+0xa4>
 8007314:	1e63      	subs	r3, r4, #1
 8007316:	9301      	str	r3, [sp, #4]
 8007318:	e007      	b.n	800732a <_strtol_l.constprop.0+0x106>
 800731a:	9b00      	ldr	r3, [sp, #0]
 800731c:	2b00      	cmp	r3, #0
 800731e:	d000      	beq.n	8007322 <_strtol_l.constprop.0+0xfe>
 8007320:	4240      	negs	r0, r0
 8007322:	2f00      	cmp	r7, #0
 8007324:	d0d0      	beq.n	80072c8 <_strtol_l.constprop.0+0xa4>
 8007326:	2a00      	cmp	r2, #0
 8007328:	d1f4      	bne.n	8007314 <_strtol_l.constprop.0+0xf0>
 800732a:	9b01      	ldr	r3, [sp, #4]
 800732c:	603b      	str	r3, [r7, #0]
 800732e:	e7cb      	b.n	80072c8 <_strtol_l.constprop.0+0xa4>
 8007330:	08008889 	.word	0x08008889
 8007334:	7fffffff 	.word	0x7fffffff

08007338 <_strtol_r>:
 8007338:	b510      	push	{r4, lr}
 800733a:	f7ff ff73 	bl	8007224 <_strtol_l.constprop.0>
 800733e:	bd10      	pop	{r4, pc}

08007340 <__ssputs_r>:
 8007340:	b5f0      	push	{r4, r5, r6, r7, lr}
 8007342:	688e      	ldr	r6, [r1, #8]
 8007344:	b085      	sub	sp, #20
 8007346:	001f      	movs	r7, r3
 8007348:	000c      	movs	r4, r1
 800734a:	680b      	ldr	r3, [r1, #0]
 800734c:	9002      	str	r0, [sp, #8]
 800734e:	9203      	str	r2, [sp, #12]
 8007350:	42be      	cmp	r6, r7
 8007352:	d830      	bhi.n	80073b6 <__ssputs_r+0x76>
 8007354:	210c      	movs	r1, #12
 8007356:	5e62      	ldrsh	r2, [r4, r1]
 8007358:	2190      	movs	r1, #144	@ 0x90
 800735a:	00c9      	lsls	r1, r1, #3
 800735c:	420a      	tst	r2, r1
 800735e:	d028      	beq.n	80073b2 <__ssputs_r+0x72>
 8007360:	2003      	movs	r0, #3
 8007362:	6921      	ldr	r1, [r4, #16]
 8007364:	1a5b      	subs	r3, r3, r1
 8007366:	9301      	str	r3, [sp, #4]
 8007368:	6963      	ldr	r3, [r4, #20]
 800736a:	4343      	muls	r3, r0
 800736c:	9801      	ldr	r0, [sp, #4]
 800736e:	0fdd      	lsrs	r5, r3, #31
 8007370:	18ed      	adds	r5, r5, r3
 8007372:	1c7b      	adds	r3, r7, #1
 8007374:	181b      	adds	r3, r3, r0
 8007376:	106d      	asrs	r5, r5, #1
 8007378:	42ab      	cmp	r3, r5
 800737a:	d900      	bls.n	800737e <__ssputs_r+0x3e>
 800737c:	001d      	movs	r5, r3
 800737e:	0552      	lsls	r2, r2, #21
 8007380:	d528      	bpl.n	80073d4 <__ssputs_r+0x94>
 8007382:	0029      	movs	r1, r5
 8007384:	9802      	ldr	r0, [sp, #8]
 8007386:	f7fe fbe1 	bl	8005b4c <_malloc_r>
 800738a:	1e06      	subs	r6, r0, #0
 800738c:	d02c      	beq.n	80073e8 <__ssputs_r+0xa8>
 800738e:	9a01      	ldr	r2, [sp, #4]
 8007390:	6921      	ldr	r1, [r4, #16]
 8007392:	f7fd fcd5 	bl	8004d40 <memcpy>
 8007396:	89a2      	ldrh	r2, [r4, #12]
 8007398:	4b18      	ldr	r3, [pc, #96]	@ (80073fc <__ssputs_r+0xbc>)
 800739a:	401a      	ands	r2, r3
 800739c:	2380      	movs	r3, #128	@ 0x80
 800739e:	4313      	orrs	r3, r2
 80073a0:	81a3      	strh	r3, [r4, #12]
 80073a2:	9b01      	ldr	r3, [sp, #4]
 80073a4:	6126      	str	r6, [r4, #16]
 80073a6:	18f6      	adds	r6, r6, r3
 80073a8:	6026      	str	r6, [r4, #0]
 80073aa:	003e      	movs	r6, r7
 80073ac:	6165      	str	r5, [r4, #20]
 80073ae:	1aed      	subs	r5, r5, r3
 80073b0:	60a5      	str	r5, [r4, #8]
 80073b2:	42be      	cmp	r6, r7
 80073b4:	d900      	bls.n	80073b8 <__ssputs_r+0x78>
 80073b6:	003e      	movs	r6, r7
 80073b8:	0032      	movs	r2, r6
 80073ba:	9903      	ldr	r1, [sp, #12]
 80073bc:	6820      	ldr	r0, [r4, #0]
 80073be:	f000 f9ce 	bl	800775e <memmove>
 80073c2:	2000      	movs	r0, #0
 80073c4:	68a3      	ldr	r3, [r4, #8]
 80073c6:	1b9b      	subs	r3, r3, r6
 80073c8:	60a3      	str	r3, [r4, #8]
 80073ca:	6823      	ldr	r3, [r4, #0]
 80073cc:	199b      	adds	r3, r3, r6
 80073ce:	6023      	str	r3, [r4, #0]
 80073d0:	b005      	add	sp, #20
 80073d2:	bdf0      	pop	{r4, r5, r6, r7, pc}
 80073d4:	002a      	movs	r2, r5
 80073d6:	9802      	ldr	r0, [sp, #8]
 80073d8:	f000 fdb6 	bl	8007f48 <_realloc_r>
 80073dc:	1e06      	subs	r6, r0, #0
 80073de:	d1e0      	bne.n	80073a2 <__ssputs_r+0x62>
 80073e0:	6921      	ldr	r1, [r4, #16]
 80073e2:	9802      	ldr	r0, [sp, #8]
 80073e4:	f7fe fb3c 	bl	8005a60 <_free_r>
 80073e8:	230c      	movs	r3, #12
 80073ea:	2001      	movs	r0, #1
 80073ec:	9a02      	ldr	r2, [sp, #8]
 80073ee:	4240      	negs	r0, r0
 80073f0:	6013      	str	r3, [r2, #0]
 80073f2:	89a2      	ldrh	r2, [r4, #12]
 80073f4:	3334      	adds	r3, #52	@ 0x34
 80073f6:	4313      	orrs	r3, r2
 80073f8:	81a3      	strh	r3, [r4, #12]
 80073fa:	e7e9      	b.n	80073d0 <__ssputs_r+0x90>
 80073fc:	fffffb7f 	.word	0xfffffb7f

08007400 <_svfiprintf_r>:
 8007400:	b5f0      	push	{r4, r5, r6, r7, lr}
 8007402:	b0a1      	sub	sp, #132	@ 0x84
 8007404:	9003      	str	r0, [sp, #12]
 8007406:	001d      	movs	r5, r3
 8007408:	898b      	ldrh	r3, [r1, #12]
 800740a:	000f      	movs	r7, r1
 800740c:	0016      	movs	r6, r2
 800740e:	061b      	lsls	r3, r3, #24
 8007410:	d511      	bpl.n	8007436 <_svfiprintf_r+0x36>
 8007412:	690b      	ldr	r3, [r1, #16]
 8007414:	2b00      	cmp	r3, #0
 8007416:	d10e      	bne.n	8007436 <_svfiprintf_r+0x36>
 8007418:	2140      	movs	r1, #64	@ 0x40
 800741a:	f7fe fb97 	bl	8005b4c <_malloc_r>
 800741e:	6038      	str	r0, [r7, #0]
 8007420:	6138      	str	r0, [r7, #16]
 8007422:	2800      	cmp	r0, #0
 8007424:	d105      	bne.n	8007432 <_svfiprintf_r+0x32>
 8007426:	230c      	movs	r3, #12
 8007428:	9a03      	ldr	r2, [sp, #12]
 800742a:	6013      	str	r3, [r2, #0]
 800742c:	2001      	movs	r0, #1
 800742e:	4240      	negs	r0, r0
 8007430:	e0cf      	b.n	80075d2 <_svfiprintf_r+0x1d2>
 8007432:	2340      	movs	r3, #64	@ 0x40
 8007434:	617b      	str	r3, [r7, #20]
 8007436:	2300      	movs	r3, #0
 8007438:	ac08      	add	r4, sp, #32
 800743a:	6163      	str	r3, [r4, #20]
 800743c:	3320      	adds	r3, #32
 800743e:	7663      	strb	r3, [r4, #25]
 8007440:	3310      	adds	r3, #16
 8007442:	76a3      	strb	r3, [r4, #26]
 8007444:	9507      	str	r5, [sp, #28]
 8007446:	0035      	movs	r5, r6
 8007448:	782b      	ldrb	r3, [r5, #0]
 800744a:	2b00      	cmp	r3, #0
 800744c:	d001      	beq.n	8007452 <_svfiprintf_r+0x52>
 800744e:	2b25      	cmp	r3, #37	@ 0x25
 8007450:	d148      	bne.n	80074e4 <_svfiprintf_r+0xe4>
 8007452:	1bab      	subs	r3, r5, r6
 8007454:	9305      	str	r3, [sp, #20]
 8007456:	42b5      	cmp	r5, r6
 8007458:	d00b      	beq.n	8007472 <_svfiprintf_r+0x72>
 800745a:	0032      	movs	r2, r6
 800745c:	0039      	movs	r1, r7
 800745e:	9803      	ldr	r0, [sp, #12]
 8007460:	f7ff ff6e 	bl	8007340 <__ssputs_r>
 8007464:	3001      	adds	r0, #1
 8007466:	d100      	bne.n	800746a <_svfiprintf_r+0x6a>
 8007468:	e0ae      	b.n	80075c8 <_svfiprintf_r+0x1c8>
 800746a:	6963      	ldr	r3, [r4, #20]
 800746c:	9a05      	ldr	r2, [sp, #20]
 800746e:	189b      	adds	r3, r3, r2
 8007470:	6163      	str	r3, [r4, #20]
 8007472:	782b      	ldrb	r3, [r5, #0]
 8007474:	2b00      	cmp	r3, #0
 8007476:	d100      	bne.n	800747a <_svfiprintf_r+0x7a>
 8007478:	e0a6      	b.n	80075c8 <_svfiprintf_r+0x1c8>
 800747a:	2201      	movs	r2, #1
 800747c:	2300      	movs	r3, #0
 800747e:	4252      	negs	r2, r2
 8007480:	6062      	str	r2, [r4, #4]
 8007482:	a904      	add	r1, sp, #16
 8007484:	3254      	adds	r2, #84	@ 0x54
 8007486:	1852      	adds	r2, r2, r1
 8007488:	1c6e      	adds	r6, r5, #1
 800748a:	6023      	str	r3, [r4, #0]
 800748c:	60e3      	str	r3, [r4, #12]
 800748e:	60a3      	str	r3, [r4, #8]
 8007490:	7013      	strb	r3, [r2, #0]
 8007492:	65a3      	str	r3, [r4, #88]	@ 0x58
 8007494:	4b54      	ldr	r3, [pc, #336]	@ (80075e8 <_svfiprintf_r+0x1e8>)
 8007496:	2205      	movs	r2, #5
 8007498:	0018      	movs	r0, r3
 800749a:	7831      	ldrb	r1, [r6, #0]
 800749c:	9305      	str	r3, [sp, #20]
 800749e:	f7fd fc44 	bl	8004d2a <memchr>
 80074a2:	1c75      	adds	r5, r6, #1
 80074a4:	2800      	cmp	r0, #0
 80074a6:	d11f      	bne.n	80074e8 <_svfiprintf_r+0xe8>
 80074a8:	6822      	ldr	r2, [r4, #0]
 80074aa:	06d3      	lsls	r3, r2, #27
 80074ac:	d504      	bpl.n	80074b8 <_svfiprintf_r+0xb8>
 80074ae:	2353      	movs	r3, #83	@ 0x53
 80074b0:	a904      	add	r1, sp, #16
 80074b2:	185b      	adds	r3, r3, r1
 80074b4:	2120      	movs	r1, #32
 80074b6:	7019      	strb	r1, [r3, #0]
 80074b8:	0713      	lsls	r3, r2, #28
 80074ba:	d504      	bpl.n	80074c6 <_svfiprintf_r+0xc6>
 80074bc:	2353      	movs	r3, #83	@ 0x53
 80074be:	a904      	add	r1, sp, #16
 80074c0:	185b      	adds	r3, r3, r1
 80074c2:	212b      	movs	r1, #43	@ 0x2b
 80074c4:	7019      	strb	r1, [r3, #0]
 80074c6:	7833      	ldrb	r3, [r6, #0]
 80074c8:	2b2a      	cmp	r3, #42	@ 0x2a
 80074ca:	d016      	beq.n	80074fa <_svfiprintf_r+0xfa>
 80074cc:	0035      	movs	r5, r6
 80074ce:	2100      	movs	r1, #0
 80074d0:	200a      	movs	r0, #10
 80074d2:	68e3      	ldr	r3, [r4, #12]
 80074d4:	782a      	ldrb	r2, [r5, #0]
 80074d6:	1c6e      	adds	r6, r5, #1
 80074d8:	3a30      	subs	r2, #48	@ 0x30
 80074da:	2a09      	cmp	r2, #9
 80074dc:	d950      	bls.n	8007580 <_svfiprintf_r+0x180>
 80074de:	2900      	cmp	r1, #0
 80074e0:	d111      	bne.n	8007506 <_svfiprintf_r+0x106>
 80074e2:	e017      	b.n	8007514 <_svfiprintf_r+0x114>
 80074e4:	3501      	adds	r5, #1
 80074e6:	e7af      	b.n	8007448 <_svfiprintf_r+0x48>
 80074e8:	9b05      	ldr	r3, [sp, #20]
 80074ea:	6822      	ldr	r2, [r4, #0]
 80074ec:	1ac0      	subs	r0, r0, r3
 80074ee:	2301      	movs	r3, #1
 80074f0:	4083      	lsls	r3, r0
 80074f2:	4313      	orrs	r3, r2
 80074f4:	002e      	movs	r6, r5
 80074f6:	6023      	str	r3, [r4, #0]
 80074f8:	e7cc      	b.n	8007494 <_svfiprintf_r+0x94>
 80074fa:	9b07      	ldr	r3, [sp, #28]
 80074fc:	1d19      	adds	r1, r3, #4
 80074fe:	681b      	ldr	r3, [r3, #0]
 8007500:	9107      	str	r1, [sp, #28]
 8007502:	2b00      	cmp	r3, #0
 8007504:	db01      	blt.n	800750a <_svfiprintf_r+0x10a>
 8007506:	930b      	str	r3, [sp, #44]	@ 0x2c
 8007508:	e004      	b.n	8007514 <_svfiprintf_r+0x114>
 800750a:	425b      	negs	r3, r3
 800750c:	60e3      	str	r3, [r4, #12]
 800750e:	2302      	movs	r3, #2
 8007510:	4313      	orrs	r3, r2
 8007512:	6023      	str	r3, [r4, #0]
 8007514:	782b      	ldrb	r3, [r5, #0]
 8007516:	2b2e      	cmp	r3, #46	@ 0x2e
 8007518:	d10c      	bne.n	8007534 <_svfiprintf_r+0x134>
 800751a:	786b      	ldrb	r3, [r5, #1]
 800751c:	2b2a      	cmp	r3, #42	@ 0x2a
 800751e:	d134      	bne.n	800758a <_svfiprintf_r+0x18a>
 8007520:	9b07      	ldr	r3, [sp, #28]
 8007522:	3502      	adds	r5, #2
 8007524:	1d1a      	adds	r2, r3, #4
 8007526:	681b      	ldr	r3, [r3, #0]
 8007528:	9207      	str	r2, [sp, #28]
 800752a:	2b00      	cmp	r3, #0
 800752c:	da01      	bge.n	8007532 <_svfiprintf_r+0x132>
 800752e:	2301      	movs	r3, #1
 8007530:	425b      	negs	r3, r3
 8007532:	9309      	str	r3, [sp, #36]	@ 0x24
 8007534:	4e2d      	ldr	r6, [pc, #180]	@ (80075ec <_svfiprintf_r+0x1ec>)
 8007536:	2203      	movs	r2, #3
 8007538:	0030      	movs	r0, r6
 800753a:	7829      	ldrb	r1, [r5, #0]
 800753c:	f7fd fbf5 	bl	8004d2a <memchr>
 8007540:	2800      	cmp	r0, #0
 8007542:	d006      	beq.n	8007552 <_svfiprintf_r+0x152>
 8007544:	2340      	movs	r3, #64	@ 0x40
 8007546:	1b80      	subs	r0, r0, r6
 8007548:	4083      	lsls	r3, r0
 800754a:	6822      	ldr	r2, [r4, #0]
 800754c:	3501      	adds	r5, #1
 800754e:	4313      	orrs	r3, r2
 8007550:	6023      	str	r3, [r4, #0]
 8007552:	7829      	ldrb	r1, [r5, #0]
 8007554:	2206      	movs	r2, #6
 8007556:	4826      	ldr	r0, [pc, #152]	@ (80075f0 <_svfiprintf_r+0x1f0>)
 8007558:	1c6e      	adds	r6, r5, #1
 800755a:	7621      	strb	r1, [r4, #24]
 800755c:	f7fd fbe5 	bl	8004d2a <memchr>
 8007560:	2800      	cmp	r0, #0
 8007562:	d038      	beq.n	80075d6 <_svfiprintf_r+0x1d6>
 8007564:	4b23      	ldr	r3, [pc, #140]	@ (80075f4 <_svfiprintf_r+0x1f4>)
 8007566:	2b00      	cmp	r3, #0
 8007568:	d122      	bne.n	80075b0 <_svfiprintf_r+0x1b0>
 800756a:	2207      	movs	r2, #7
 800756c:	9b07      	ldr	r3, [sp, #28]
 800756e:	3307      	adds	r3, #7
 8007570:	4393      	bics	r3, r2
 8007572:	3308      	adds	r3, #8
 8007574:	9307      	str	r3, [sp, #28]
 8007576:	6963      	ldr	r3, [r4, #20]
 8007578:	9a04      	ldr	r2, [sp, #16]
 800757a:	189b      	adds	r3, r3, r2
 800757c:	6163      	str	r3, [r4, #20]
 800757e:	e762      	b.n	8007446 <_svfiprintf_r+0x46>
 8007580:	4343      	muls	r3, r0
 8007582:	0035      	movs	r5, r6
 8007584:	2101      	movs	r1, #1
 8007586:	189b      	adds	r3, r3, r2
 8007588:	e7a4      	b.n	80074d4 <_svfiprintf_r+0xd4>
 800758a:	2300      	movs	r3, #0
 800758c:	200a      	movs	r0, #10
 800758e:	0019      	movs	r1, r3
 8007590:	3501      	adds	r5, #1
 8007592:	6063      	str	r3, [r4, #4]
 8007594:	782a      	ldrb	r2, [r5, #0]
 8007596:	1c6e      	adds	r6, r5, #1
 8007598:	3a30      	subs	r2, #48	@ 0x30
 800759a:	2a09      	cmp	r2, #9
 800759c:	d903      	bls.n	80075a6 <_svfiprintf_r+0x1a6>
 800759e:	2b00      	cmp	r3, #0
 80075a0:	d0c8      	beq.n	8007534 <_svfiprintf_r+0x134>
 80075a2:	9109      	str	r1, [sp, #36]	@ 0x24
 80075a4:	e7c6      	b.n	8007534 <_svfiprintf_r+0x134>
 80075a6:	4341      	muls	r1, r0
 80075a8:	0035      	movs	r5, r6
 80075aa:	2301      	movs	r3, #1
 80075ac:	1889      	adds	r1, r1, r2
 80075ae:	e7f1      	b.n	8007594 <_svfiprintf_r+0x194>
 80075b0:	aa07      	add	r2, sp, #28
 80075b2:	9200      	str	r2, [sp, #0]
 80075b4:	0021      	movs	r1, r4
 80075b6:	003a      	movs	r2, r7
 80075b8:	4b0f      	ldr	r3, [pc, #60]	@ (80075f8 <_svfiprintf_r+0x1f8>)
 80075ba:	9803      	ldr	r0, [sp, #12]
 80075bc:	f7fc fc34 	bl	8003e28 <_printf_float>
 80075c0:	9004      	str	r0, [sp, #16]
 80075c2:	9b04      	ldr	r3, [sp, #16]
 80075c4:	3301      	adds	r3, #1
 80075c6:	d1d6      	bne.n	8007576 <_svfiprintf_r+0x176>
 80075c8:	89bb      	ldrh	r3, [r7, #12]
 80075ca:	980d      	ldr	r0, [sp, #52]	@ 0x34
 80075cc:	065b      	lsls	r3, r3, #25
 80075ce:	d500      	bpl.n	80075d2 <_svfiprintf_r+0x1d2>
 80075d0:	e72c      	b.n	800742c <_svfiprintf_r+0x2c>
 80075d2:	b021      	add	sp, #132	@ 0x84
 80075d4:	bdf0      	pop	{r4, r5, r6, r7, pc}
 80075d6:	aa07      	add	r2, sp, #28
 80075d8:	9200      	str	r2, [sp, #0]
 80075da:	0021      	movs	r1, r4
 80075dc:	003a      	movs	r2, r7
 80075de:	4b06      	ldr	r3, [pc, #24]	@ (80075f8 <_svfiprintf_r+0x1f8>)
 80075e0:	9803      	ldr	r0, [sp, #12]
 80075e2:	f7fc fecf 	bl	8004384 <_printf_i>
 80075e6:	e7eb      	b.n	80075c0 <_svfiprintf_r+0x1c0>
 80075e8:	08008989 	.word	0x08008989
 80075ec:	0800898f 	.word	0x0800898f
 80075f0:	08008993 	.word	0x08008993
 80075f4:	08003e29 	.word	0x08003e29
 80075f8:	08007341 	.word	0x08007341

080075fc <__sflush_r>:
 80075fc:	b5f7      	push	{r0, r1, r2, r4, r5, r6, r7, lr}
 80075fe:	220c      	movs	r2, #12
 8007600:	5e8b      	ldrsh	r3, [r1, r2]
 8007602:	0005      	movs	r5, r0
 8007604:	000c      	movs	r4, r1
 8007606:	071a      	lsls	r2, r3, #28
 8007608:	d456      	bmi.n	80076b8 <__sflush_r+0xbc>
 800760a:	684a      	ldr	r2, [r1, #4]
 800760c:	2a00      	cmp	r2, #0
 800760e:	dc02      	bgt.n	8007616 <__sflush_r+0x1a>
 8007610:	6c0a      	ldr	r2, [r1, #64]	@ 0x40
 8007612:	2a00      	cmp	r2, #0
 8007614:	dd4e      	ble.n	80076b4 <__sflush_r+0xb8>
 8007616:	6ae7      	ldr	r7, [r4, #44]	@ 0x2c
 8007618:	2f00      	cmp	r7, #0
 800761a:	d04b      	beq.n	80076b4 <__sflush_r+0xb8>
 800761c:	2200      	movs	r2, #0
 800761e:	2080      	movs	r0, #128	@ 0x80
 8007620:	682e      	ldr	r6, [r5, #0]
 8007622:	602a      	str	r2, [r5, #0]
 8007624:	001a      	movs	r2, r3
 8007626:	0140      	lsls	r0, r0, #5
 8007628:	6a21      	ldr	r1, [r4, #32]
 800762a:	4002      	ands	r2, r0
 800762c:	4203      	tst	r3, r0
 800762e:	d033      	beq.n	8007698 <__sflush_r+0x9c>
 8007630:	6d62      	ldr	r2, [r4, #84]	@ 0x54
 8007632:	89a3      	ldrh	r3, [r4, #12]
 8007634:	075b      	lsls	r3, r3, #29
 8007636:	d506      	bpl.n	8007646 <__sflush_r+0x4a>
 8007638:	6863      	ldr	r3, [r4, #4]
 800763a:	1ad2      	subs	r2, r2, r3
 800763c:	6b63      	ldr	r3, [r4, #52]	@ 0x34
 800763e:	2b00      	cmp	r3, #0
 8007640:	d001      	beq.n	8007646 <__sflush_r+0x4a>
 8007642:	6c23      	ldr	r3, [r4, #64]	@ 0x40
 8007644:	1ad2      	subs	r2, r2, r3
 8007646:	2300      	movs	r3, #0
 8007648:	0028      	movs	r0, r5
 800764a:	6ae7      	ldr	r7, [r4, #44]	@ 0x2c
 800764c:	6a21      	ldr	r1, [r4, #32]
 800764e:	47b8      	blx	r7
 8007650:	89a2      	ldrh	r2, [r4, #12]
 8007652:	1c43      	adds	r3, r0, #1
 8007654:	d106      	bne.n	8007664 <__sflush_r+0x68>
 8007656:	6829      	ldr	r1, [r5, #0]
 8007658:	291d      	cmp	r1, #29
 800765a:	d846      	bhi.n	80076ea <__sflush_r+0xee>
 800765c:	4b29      	ldr	r3, [pc, #164]	@ (8007704 <__sflush_r+0x108>)
 800765e:	410b      	asrs	r3, r1
 8007660:	07db      	lsls	r3, r3, #31
 8007662:	d442      	bmi.n	80076ea <__sflush_r+0xee>
 8007664:	2300      	movs	r3, #0
 8007666:	6063      	str	r3, [r4, #4]
 8007668:	6923      	ldr	r3, [r4, #16]
 800766a:	6023      	str	r3, [r4, #0]
 800766c:	04d2      	lsls	r2, r2, #19
 800766e:	d505      	bpl.n	800767c <__sflush_r+0x80>
 8007670:	1c43      	adds	r3, r0, #1
 8007672:	d102      	bne.n	800767a <__sflush_r+0x7e>
 8007674:	682b      	ldr	r3, [r5, #0]
 8007676:	2b00      	cmp	r3, #0
 8007678:	d100      	bne.n	800767c <__sflush_r+0x80>
 800767a:	6560      	str	r0, [r4, #84]	@ 0x54
 800767c:	6b61      	ldr	r1, [r4, #52]	@ 0x34
 800767e:	602e      	str	r6, [r5, #0]
 8007680:	2900      	cmp	r1, #0
 8007682:	d017      	beq.n	80076b4 <__sflush_r+0xb8>
 8007684:	0023      	movs	r3, r4
 8007686:	3344      	adds	r3, #68	@ 0x44
 8007688:	4299      	cmp	r1, r3
 800768a:	d002      	beq.n	8007692 <__sflush_r+0x96>
 800768c:	0028      	movs	r0, r5
 800768e:	f7fe f9e7 	bl	8005a60 <_free_r>
 8007692:	2300      	movs	r3, #0
 8007694:	6363      	str	r3, [r4, #52]	@ 0x34
 8007696:	e00d      	b.n	80076b4 <__sflush_r+0xb8>
 8007698:	2301      	movs	r3, #1
 800769a:	0028      	movs	r0, r5
 800769c:	47b8      	blx	r7
 800769e:	0002      	movs	r2, r0
 80076a0:	1c43      	adds	r3, r0, #1
 80076a2:	d1c6      	bne.n	8007632 <__sflush_r+0x36>
 80076a4:	682b      	ldr	r3, [r5, #0]
 80076a6:	2b00      	cmp	r3, #0
 80076a8:	d0c3      	beq.n	8007632 <__sflush_r+0x36>
 80076aa:	2b1d      	cmp	r3, #29
 80076ac:	d001      	beq.n	80076b2 <__sflush_r+0xb6>
 80076ae:	2b16      	cmp	r3, #22
 80076b0:	d11a      	bne.n	80076e8 <__sflush_r+0xec>
 80076b2:	602e      	str	r6, [r5, #0]
 80076b4:	2000      	movs	r0, #0
 80076b6:	e01e      	b.n	80076f6 <__sflush_r+0xfa>
 80076b8:	690e      	ldr	r6, [r1, #16]
 80076ba:	2e00      	cmp	r6, #0
 80076bc:	d0fa      	beq.n	80076b4 <__sflush_r+0xb8>
 80076be:	680f      	ldr	r7, [r1, #0]
 80076c0:	600e      	str	r6, [r1, #0]
 80076c2:	1bba      	subs	r2, r7, r6
 80076c4:	9201      	str	r2, [sp, #4]
 80076c6:	2200      	movs	r2, #0
 80076c8:	079b      	lsls	r3, r3, #30
 80076ca:	d100      	bne.n	80076ce <__sflush_r+0xd2>
 80076cc:	694a      	ldr	r2, [r1, #20]
 80076ce:	60a2      	str	r2, [r4, #8]
 80076d0:	9b01      	ldr	r3, [sp, #4]
 80076d2:	2b00      	cmp	r3, #0
 80076d4:	ddee      	ble.n	80076b4 <__sflush_r+0xb8>
 80076d6:	6aa3      	ldr	r3, [r4, #40]	@ 0x28
 80076d8:	0032      	movs	r2, r6
 80076da:	001f      	movs	r7, r3
 80076dc:	0028      	movs	r0, r5
 80076de:	9b01      	ldr	r3, [sp, #4]
 80076e0:	6a21      	ldr	r1, [r4, #32]
 80076e2:	47b8      	blx	r7
 80076e4:	2800      	cmp	r0, #0
 80076e6:	dc07      	bgt.n	80076f8 <__sflush_r+0xfc>
 80076e8:	89a2      	ldrh	r2, [r4, #12]
 80076ea:	2340      	movs	r3, #64	@ 0x40
 80076ec:	2001      	movs	r0, #1
 80076ee:	4313      	orrs	r3, r2
 80076f0:	b21b      	sxth	r3, r3
 80076f2:	81a3      	strh	r3, [r4, #12]
 80076f4:	4240      	negs	r0, r0
 80076f6:	bdfe      	pop	{r1, r2, r3, r4, r5, r6, r7, pc}
 80076f8:	9b01      	ldr	r3, [sp, #4]
 80076fa:	1836      	adds	r6, r6, r0
 80076fc:	1a1b      	subs	r3, r3, r0
 80076fe:	9301      	str	r3, [sp, #4]
 8007700:	e7e6      	b.n	80076d0 <__sflush_r+0xd4>
 8007702:	46c0      	nop			@ (mov r8, r8)
 8007704:	dfbffffe 	.word	0xdfbffffe

08007708 <_fflush_r>:
 8007708:	690b      	ldr	r3, [r1, #16]
 800770a:	b570      	push	{r4, r5, r6, lr}
 800770c:	0005      	movs	r5, r0
 800770e:	000c      	movs	r4, r1
 8007710:	2b00      	cmp	r3, #0
 8007712:	d102      	bne.n	800771a <_fflush_r+0x12>
 8007714:	2500      	movs	r5, #0
 8007716:	0028      	movs	r0, r5
 8007718:	bd70      	pop	{r4, r5, r6, pc}
 800771a:	2800      	cmp	r0, #0
 800771c:	d004      	beq.n	8007728 <_fflush_r+0x20>
 800771e:	6a03      	ldr	r3, [r0, #32]
 8007720:	2b00      	cmp	r3, #0
 8007722:	d101      	bne.n	8007728 <_fflush_r+0x20>
 8007724:	f7fd f9da 	bl	8004adc <__sinit>
 8007728:	220c      	movs	r2, #12
 800772a:	5ea3      	ldrsh	r3, [r4, r2]
 800772c:	2b00      	cmp	r3, #0
 800772e:	d0f1      	beq.n	8007714 <_fflush_r+0xc>
 8007730:	6e62      	ldr	r2, [r4, #100]	@ 0x64
 8007732:	07d2      	lsls	r2, r2, #31
 8007734:	d404      	bmi.n	8007740 <_fflush_r+0x38>
 8007736:	059b      	lsls	r3, r3, #22
 8007738:	d402      	bmi.n	8007740 <_fflush_r+0x38>
 800773a:	6da0      	ldr	r0, [r4, #88]	@ 0x58
 800773c:	f7fd faf3 	bl	8004d26 <__retarget_lock_acquire_recursive>
 8007740:	0028      	movs	r0, r5
 8007742:	0021      	movs	r1, r4
 8007744:	f7ff ff5a 	bl	80075fc <__sflush_r>
 8007748:	6e63      	ldr	r3, [r4, #100]	@ 0x64
 800774a:	0005      	movs	r5, r0
 800774c:	07db      	lsls	r3, r3, #31
 800774e:	d4e2      	bmi.n	8007716 <_fflush_r+0xe>
 8007750:	89a3      	ldrh	r3, [r4, #12]
 8007752:	059b      	lsls	r3, r3, #22
 8007754:	d4df      	bmi.n	8007716 <_fflush_r+0xe>
 8007756:	6da0      	ldr	r0, [r4, #88]	@ 0x58
 8007758:	f7fd fae6 	bl	8004d28 <__retarget_lock_release_recursive>
 800775c:	e7db      	b.n	8007716 <_fflush_r+0xe>

0800775e <memmove>:
 800775e:	b510      	push	{r4, lr}
 8007760:	4288      	cmp	r0, r1
 8007762:	d806      	bhi.n	8007772 <memmove+0x14>
 8007764:	2300      	movs	r3, #0
 8007766:	429a      	cmp	r2, r3
 8007768:	d008      	beq.n	800777c <memmove+0x1e>
 800776a:	5ccc      	ldrb	r4, [r1, r3]
 800776c:	54c4      	strb	r4, [r0, r3]
 800776e:	3301      	adds	r3, #1
 8007770:	e7f9      	b.n	8007766 <memmove+0x8>
 8007772:	188b      	adds	r3, r1, r2
 8007774:	4298      	cmp	r0, r3
 8007776:	d2f5      	bcs.n	8007764 <memmove+0x6>
 8007778:	3a01      	subs	r2, #1
 800777a:	d200      	bcs.n	800777e <memmove+0x20>
 800777c:	bd10      	pop	{r4, pc}
 800777e:	5c8b      	ldrb	r3, [r1, r2]
 8007780:	5483      	strb	r3, [r0, r2]
 8007782:	e7f9      	b.n	8007778 <memmove+0x1a>

08007784 <strncmp>:
 8007784:	b530      	push	{r4, r5, lr}
 8007786:	0005      	movs	r5, r0
 8007788:	1e10      	subs	r0, r2, #0
 800778a:	d00b      	beq.n	80077a4 <strncmp+0x20>
 800778c:	2400      	movs	r4, #0
 800778e:	3a01      	subs	r2, #1
 8007790:	5d2b      	ldrb	r3, [r5, r4]
 8007792:	5d08      	ldrb	r0, [r1, r4]
 8007794:	4283      	cmp	r3, r0
 8007796:	d104      	bne.n	80077a2 <strncmp+0x1e>
 8007798:	42a2      	cmp	r2, r4
 800779a:	d002      	beq.n	80077a2 <strncmp+0x1e>
 800779c:	3401      	adds	r4, #1
 800779e:	2b00      	cmp	r3, #0
 80077a0:	d1f6      	bne.n	8007790 <strncmp+0xc>
 80077a2:	1a18      	subs	r0, r3, r0
 80077a4:	bd30      	pop	{r4, r5, pc}
	...

080077a8 <_sbrk_r>:
 80077a8:	2300      	movs	r3, #0
 80077aa:	b570      	push	{r4, r5, r6, lr}
 80077ac:	4d06      	ldr	r5, [pc, #24]	@ (80077c8 <_sbrk_r+0x20>)
 80077ae:	0004      	movs	r4, r0
 80077b0:	0008      	movs	r0, r1
 80077b2:	602b      	str	r3, [r5, #0]
 80077b4:	f7fc f90e 	bl	80039d4 <_sbrk>
 80077b8:	1c43      	adds	r3, r0, #1
 80077ba:	d103      	bne.n	80077c4 <_sbrk_r+0x1c>
 80077bc:	682b      	ldr	r3, [r5, #0]
 80077be:	2b00      	cmp	r3, #0
 80077c0:	d000      	beq.n	80077c4 <_sbrk_r+0x1c>
 80077c2:	6023      	str	r3, [r4, #0]
 80077c4:	bd70      	pop	{r4, r5, r6, pc}
 80077c6:	46c0      	nop			@ (mov r8, r8)
 80077c8:	20000344 	.word	0x20000344

080077cc <nan>:
 80077cc:	2000      	movs	r0, #0
 80077ce:	4901      	ldr	r1, [pc, #4]	@ (80077d4 <nan+0x8>)
 80077d0:	4770      	bx	lr
 80077d2:	46c0      	nop			@ (mov r8, r8)
 80077d4:	7ff80000 	.word	0x7ff80000

080077d8 <__assert_func>:
 80077d8:	b57f      	push	{r0, r1, r2, r3, r4, r5, r6, lr}
 80077da:	0014      	movs	r4, r2
 80077dc:	001a      	movs	r2, r3
 80077de:	4b09      	ldr	r3, [pc, #36]	@ (8007804 <__assert_func+0x2c>)
 80077e0:	0005      	movs	r5, r0
 80077e2:	681b      	ldr	r3, [r3, #0]
 80077e4:	000e      	movs	r6, r1
 80077e6:	68d8      	ldr	r0, [r3, #12]
 80077e8:	4b07      	ldr	r3, [pc, #28]	@ (8007808 <__assert_func+0x30>)
 80077ea:	2c00      	cmp	r4, #0
 80077ec:	d101      	bne.n	80077f2 <__assert_func+0x1a>
 80077ee:	4b07      	ldr	r3, [pc, #28]	@ (800780c <__assert_func+0x34>)
 80077f0:	001c      	movs	r4, r3
 80077f2:	4907      	ldr	r1, [pc, #28]	@ (8007810 <__assert_func+0x38>)
 80077f4:	9301      	str	r3, [sp, #4]
 80077f6:	9402      	str	r4, [sp, #8]
 80077f8:	002b      	movs	r3, r5
 80077fa:	9600      	str	r6, [sp, #0]
 80077fc:	f000 fbe0 	bl	8007fc0 <fiprintf>
 8007800:	f000 fbee 	bl	8007fe0 <abort>
 8007804:	20000010 	.word	0x20000010
 8007808:	080089a2 	.word	0x080089a2
 800780c:	080089dd 	.word	0x080089dd
 8007810:	080089af 	.word	0x080089af

08007814 <_calloc_r>:
 8007814:	b570      	push	{r4, r5, r6, lr}
 8007816:	0c0b      	lsrs	r3, r1, #16
 8007818:	0c15      	lsrs	r5, r2, #16
 800781a:	2b00      	cmp	r3, #0
 800781c:	d11e      	bne.n	800785c <_calloc_r+0x48>
 800781e:	2d00      	cmp	r5, #0
 8007820:	d10c      	bne.n	800783c <_calloc_r+0x28>
 8007822:	b289      	uxth	r1, r1
 8007824:	b294      	uxth	r4, r2
 8007826:	434c      	muls	r4, r1
 8007828:	0021      	movs	r1, r4
 800782a:	f7fe f98f 	bl	8005b4c <_malloc_r>
 800782e:	1e05      	subs	r5, r0, #0
 8007830:	d01a      	beq.n	8007868 <_calloc_r+0x54>
 8007832:	0022      	movs	r2, r4
 8007834:	2100      	movs	r1, #0
 8007836:	f7fd f9f1 	bl	8004c1c <memset>
 800783a:	e016      	b.n	800786a <_calloc_r+0x56>
 800783c:	1c2b      	adds	r3, r5, #0
 800783e:	1c0c      	adds	r4, r1, #0
 8007840:	b289      	uxth	r1, r1
 8007842:	b292      	uxth	r2, r2
 8007844:	434a      	muls	r2, r1
 8007846:	b29b      	uxth	r3, r3
 8007848:	b2a1      	uxth	r1, r4
 800784a:	4359      	muls	r1, r3
 800784c:	0c14      	lsrs	r4, r2, #16
 800784e:	190c      	adds	r4, r1, r4
 8007850:	0c23      	lsrs	r3, r4, #16
 8007852:	d107      	bne.n	8007864 <_calloc_r+0x50>
 8007854:	0424      	lsls	r4, r4, #16
 8007856:	b292      	uxth	r2, r2
 8007858:	4314      	orrs	r4, r2
 800785a:	e7e5      	b.n	8007828 <_calloc_r+0x14>
 800785c:	2d00      	cmp	r5, #0
 800785e:	d101      	bne.n	8007864 <_calloc_r+0x50>
 8007860:	1c14      	adds	r4, r2, #0
 8007862:	e7ed      	b.n	8007840 <_calloc_r+0x2c>
 8007864:	230c      	movs	r3, #12
 8007866:	6003      	str	r3, [r0, #0]
 8007868:	2500      	movs	r5, #0
 800786a:	0028      	movs	r0, r5
 800786c:	bd70      	pop	{r4, r5, r6, pc}

0800786e <rshift>:
 800786e:	0002      	movs	r2, r0
 8007870:	b5f0      	push	{r4, r5, r6, r7, lr}
 8007872:	6904      	ldr	r4, [r0, #16]
 8007874:	b085      	sub	sp, #20
 8007876:	3214      	adds	r2, #20
 8007878:	114b      	asrs	r3, r1, #5
 800787a:	0016      	movs	r6, r2
 800787c:	9302      	str	r3, [sp, #8]
 800787e:	429c      	cmp	r4, r3
 8007880:	dd31      	ble.n	80078e6 <rshift+0x78>
 8007882:	261f      	movs	r6, #31
 8007884:	000f      	movs	r7, r1
 8007886:	009b      	lsls	r3, r3, #2
 8007888:	00a5      	lsls	r5, r4, #2
 800788a:	18d3      	adds	r3, r2, r3
 800788c:	4037      	ands	r7, r6
 800788e:	1955      	adds	r5, r2, r5
 8007890:	9300      	str	r3, [sp, #0]
 8007892:	9701      	str	r7, [sp, #4]
 8007894:	4231      	tst	r1, r6
 8007896:	d10d      	bne.n	80078b4 <rshift+0x46>
 8007898:	0016      	movs	r6, r2
 800789a:	0019      	movs	r1, r3
 800789c:	428d      	cmp	r5, r1
 800789e:	d836      	bhi.n	800790e <rshift+0xa0>
 80078a0:	9b00      	ldr	r3, [sp, #0]
 80078a2:	2600      	movs	r6, #0
 80078a4:	3b03      	subs	r3, #3
 80078a6:	429d      	cmp	r5, r3
 80078a8:	d302      	bcc.n	80078b0 <rshift+0x42>
 80078aa:	9b02      	ldr	r3, [sp, #8]
 80078ac:	1ae4      	subs	r4, r4, r3
 80078ae:	00a6      	lsls	r6, r4, #2
 80078b0:	1996      	adds	r6, r2, r6
 80078b2:	e018      	b.n	80078e6 <rshift+0x78>
 80078b4:	2120      	movs	r1, #32
 80078b6:	9e01      	ldr	r6, [sp, #4]
 80078b8:	9f01      	ldr	r7, [sp, #4]
 80078ba:	1b89      	subs	r1, r1, r6
 80078bc:	9e00      	ldr	r6, [sp, #0]
 80078be:	9103      	str	r1, [sp, #12]
 80078c0:	ce02      	ldmia	r6!, {r1}
 80078c2:	4694      	mov	ip, r2
 80078c4:	40f9      	lsrs	r1, r7
 80078c6:	42b5      	cmp	r5, r6
 80078c8:	d816      	bhi.n	80078f8 <rshift+0x8a>
 80078ca:	9b00      	ldr	r3, [sp, #0]
 80078cc:	2600      	movs	r6, #0
 80078ce:	3301      	adds	r3, #1
 80078d0:	429d      	cmp	r5, r3
 80078d2:	d303      	bcc.n	80078dc <rshift+0x6e>
 80078d4:	9b02      	ldr	r3, [sp, #8]
 80078d6:	1ae4      	subs	r4, r4, r3
 80078d8:	00a6      	lsls	r6, r4, #2
 80078da:	3e04      	subs	r6, #4
 80078dc:	1996      	adds	r6, r2, r6
 80078de:	6031      	str	r1, [r6, #0]
 80078e0:	2900      	cmp	r1, #0
 80078e2:	d000      	beq.n	80078e6 <rshift+0x78>
 80078e4:	3604      	adds	r6, #4
 80078e6:	1ab1      	subs	r1, r6, r2
 80078e8:	1089      	asrs	r1, r1, #2
 80078ea:	6101      	str	r1, [r0, #16]
 80078ec:	4296      	cmp	r6, r2
 80078ee:	d101      	bne.n	80078f4 <rshift+0x86>
 80078f0:	2300      	movs	r3, #0
 80078f2:	6143      	str	r3, [r0, #20]
 80078f4:	b005      	add	sp, #20
 80078f6:	bdf0      	pop	{r4, r5, r6, r7, pc}
 80078f8:	6837      	ldr	r7, [r6, #0]
 80078fa:	9b03      	ldr	r3, [sp, #12]
 80078fc:	409f      	lsls	r7, r3
 80078fe:	430f      	orrs	r7, r1
 8007900:	4661      	mov	r1, ip
 8007902:	c180      	stmia	r1!, {r7}
 8007904:	468c      	mov	ip, r1
 8007906:	9b01      	ldr	r3, [sp, #4]
 8007908:	ce02      	ldmia	r6!, {r1}
 800790a:	40d9      	lsrs	r1, r3
 800790c:	e7db      	b.n	80078c6 <rshift+0x58>
 800790e:	c980      	ldmia	r1!, {r7}
 8007910:	c680      	stmia	r6!, {r7}
 8007912:	e7c3      	b.n	800789c <rshift+0x2e>

08007914 <__hexdig_fun>:
 8007914:	0002      	movs	r2, r0
 8007916:	3a30      	subs	r2, #48	@ 0x30
 8007918:	0003      	movs	r3, r0
 800791a:	2a09      	cmp	r2, #9
 800791c:	d802      	bhi.n	8007924 <__hexdig_fun+0x10>
 800791e:	3b20      	subs	r3, #32
 8007920:	b2d8      	uxtb	r0, r3
 8007922:	4770      	bx	lr
 8007924:	0002      	movs	r2, r0
 8007926:	3a61      	subs	r2, #97	@ 0x61
 8007928:	2a05      	cmp	r2, #5
 800792a:	d801      	bhi.n	8007930 <__hexdig_fun+0x1c>
 800792c:	3b47      	subs	r3, #71	@ 0x47
 800792e:	e7f7      	b.n	8007920 <__hexdig_fun+0xc>
 8007930:	001a      	movs	r2, r3
 8007932:	3a41      	subs	r2, #65	@ 0x41
 8007934:	2000      	movs	r0, #0
 8007936:	2a05      	cmp	r2, #5
 8007938:	d8f3      	bhi.n	8007922 <__hexdig_fun+0xe>
 800793a:	3b27      	subs	r3, #39	@ 0x27
 800793c:	e7f0      	b.n	8007920 <__hexdig_fun+0xc>
	...

08007940 <__gethex>:
 8007940:	b5f0      	push	{r4, r5, r6, r7, lr}
 8007942:	b089      	sub	sp, #36	@ 0x24
 8007944:	9307      	str	r3, [sp, #28]
 8007946:	680b      	ldr	r3, [r1, #0]
 8007948:	9201      	str	r2, [sp, #4]
 800794a:	9003      	str	r0, [sp, #12]
 800794c:	9106      	str	r1, [sp, #24]
 800794e:	1c9a      	adds	r2, r3, #2
 8007950:	0011      	movs	r1, r2
 8007952:	3201      	adds	r2, #1
 8007954:	1e50      	subs	r0, r2, #1
 8007956:	7800      	ldrb	r0, [r0, #0]
 8007958:	2830      	cmp	r0, #48	@ 0x30
 800795a:	d0f9      	beq.n	8007950 <__gethex+0x10>
 800795c:	1acb      	subs	r3, r1, r3
 800795e:	3b02      	subs	r3, #2
 8007960:	9305      	str	r3, [sp, #20]
 8007962:	9100      	str	r1, [sp, #0]
 8007964:	f7ff ffd6 	bl	8007914 <__hexdig_fun>
 8007968:	2300      	movs	r3, #0
 800796a:	001d      	movs	r5, r3
 800796c:	9302      	str	r3, [sp, #8]
 800796e:	4298      	cmp	r0, r3
 8007970:	d11e      	bne.n	80079b0 <__gethex+0x70>
 8007972:	2201      	movs	r2, #1
 8007974:	49a6      	ldr	r1, [pc, #664]	@ (8007c10 <__gethex+0x2d0>)
 8007976:	9800      	ldr	r0, [sp, #0]
 8007978:	f7ff ff04 	bl	8007784 <strncmp>
 800797c:	0007      	movs	r7, r0
 800797e:	42a8      	cmp	r0, r5
 8007980:	d000      	beq.n	8007984 <__gethex+0x44>
 8007982:	e06a      	b.n	8007a5a <__gethex+0x11a>
 8007984:	9b00      	ldr	r3, [sp, #0]
 8007986:	7858      	ldrb	r0, [r3, #1]
 8007988:	1c5c      	adds	r4, r3, #1
 800798a:	f7ff ffc3 	bl	8007914 <__hexdig_fun>
 800798e:	2301      	movs	r3, #1
 8007990:	9302      	str	r3, [sp, #8]
 8007992:	42a8      	cmp	r0, r5
 8007994:	d02f      	beq.n	80079f6 <__gethex+0xb6>
 8007996:	9400      	str	r4, [sp, #0]
 8007998:	9b00      	ldr	r3, [sp, #0]
 800799a:	7818      	ldrb	r0, [r3, #0]
 800799c:	2830      	cmp	r0, #48	@ 0x30
 800799e:	d009      	beq.n	80079b4 <__gethex+0x74>
 80079a0:	f7ff ffb8 	bl	8007914 <__hexdig_fun>
 80079a4:	4242      	negs	r2, r0
 80079a6:	4142      	adcs	r2, r0
 80079a8:	2301      	movs	r3, #1
 80079aa:	0025      	movs	r5, r4
 80079ac:	9202      	str	r2, [sp, #8]
 80079ae:	9305      	str	r3, [sp, #20]
 80079b0:	9c00      	ldr	r4, [sp, #0]
 80079b2:	e004      	b.n	80079be <__gethex+0x7e>
 80079b4:	9b00      	ldr	r3, [sp, #0]
 80079b6:	3301      	adds	r3, #1
 80079b8:	9300      	str	r3, [sp, #0]
 80079ba:	e7ed      	b.n	8007998 <__gethex+0x58>
 80079bc:	3401      	adds	r4, #1
 80079be:	7820      	ldrb	r0, [r4, #0]
 80079c0:	f7ff ffa8 	bl	8007914 <__hexdig_fun>
 80079c4:	1e07      	subs	r7, r0, #0
 80079c6:	d1f9      	bne.n	80079bc <__gethex+0x7c>
 80079c8:	2201      	movs	r2, #1
 80079ca:	0020      	movs	r0, r4
 80079cc:	4990      	ldr	r1, [pc, #576]	@ (8007c10 <__gethex+0x2d0>)
 80079ce:	f7ff fed9 	bl	8007784 <strncmp>
 80079d2:	2800      	cmp	r0, #0
 80079d4:	d10d      	bne.n	80079f2 <__gethex+0xb2>
 80079d6:	2d00      	cmp	r5, #0
 80079d8:	d106      	bne.n	80079e8 <__gethex+0xa8>
 80079da:	3401      	adds	r4, #1
 80079dc:	0025      	movs	r5, r4
 80079de:	7820      	ldrb	r0, [r4, #0]
 80079e0:	f7ff ff98 	bl	8007914 <__hexdig_fun>
 80079e4:	2800      	cmp	r0, #0
 80079e6:	d102      	bne.n	80079ee <__gethex+0xae>
 80079e8:	1b2d      	subs	r5, r5, r4
 80079ea:	00af      	lsls	r7, r5, #2
 80079ec:	e003      	b.n	80079f6 <__gethex+0xb6>
 80079ee:	3401      	adds	r4, #1
 80079f0:	e7f5      	b.n	80079de <__gethex+0x9e>
 80079f2:	2d00      	cmp	r5, #0
 80079f4:	d1f8      	bne.n	80079e8 <__gethex+0xa8>
 80079f6:	2220      	movs	r2, #32
 80079f8:	7823      	ldrb	r3, [r4, #0]
 80079fa:	0026      	movs	r6, r4
 80079fc:	4393      	bics	r3, r2
 80079fe:	2b50      	cmp	r3, #80	@ 0x50
 8007a00:	d11d      	bne.n	8007a3e <__gethex+0xfe>
 8007a02:	7863      	ldrb	r3, [r4, #1]
 8007a04:	2b2b      	cmp	r3, #43	@ 0x2b
 8007a06:	d02d      	beq.n	8007a64 <__gethex+0x124>
 8007a08:	2b2d      	cmp	r3, #45	@ 0x2d
 8007a0a:	d02f      	beq.n	8007a6c <__gethex+0x12c>
 8007a0c:	2300      	movs	r3, #0
 8007a0e:	1c66      	adds	r6, r4, #1
 8007a10:	9304      	str	r3, [sp, #16]
 8007a12:	7830      	ldrb	r0, [r6, #0]
 8007a14:	f7ff ff7e 	bl	8007914 <__hexdig_fun>
 8007a18:	1e43      	subs	r3, r0, #1
 8007a1a:	b2db      	uxtb	r3, r3
 8007a1c:	0005      	movs	r5, r0
 8007a1e:	2b18      	cmp	r3, #24
 8007a20:	d82a      	bhi.n	8007a78 <__gethex+0x138>
 8007a22:	7870      	ldrb	r0, [r6, #1]
 8007a24:	f7ff ff76 	bl	8007914 <__hexdig_fun>
 8007a28:	1e43      	subs	r3, r0, #1
 8007a2a:	b2db      	uxtb	r3, r3
 8007a2c:	3601      	adds	r6, #1
 8007a2e:	3d10      	subs	r5, #16
 8007a30:	2b18      	cmp	r3, #24
 8007a32:	d91d      	bls.n	8007a70 <__gethex+0x130>
 8007a34:	9b04      	ldr	r3, [sp, #16]
 8007a36:	2b00      	cmp	r3, #0
 8007a38:	d000      	beq.n	8007a3c <__gethex+0xfc>
 8007a3a:	426d      	negs	r5, r5
 8007a3c:	197f      	adds	r7, r7, r5
 8007a3e:	9b06      	ldr	r3, [sp, #24]
 8007a40:	601e      	str	r6, [r3, #0]
 8007a42:	9b02      	ldr	r3, [sp, #8]
 8007a44:	2b00      	cmp	r3, #0
 8007a46:	d019      	beq.n	8007a7c <__gethex+0x13c>
 8007a48:	9b05      	ldr	r3, [sp, #20]
 8007a4a:	2606      	movs	r6, #6
 8007a4c:	425a      	negs	r2, r3
 8007a4e:	4153      	adcs	r3, r2
 8007a50:	425b      	negs	r3, r3
 8007a52:	401e      	ands	r6, r3
 8007a54:	0030      	movs	r0, r6
 8007a56:	b009      	add	sp, #36	@ 0x24
 8007a58:	bdf0      	pop	{r4, r5, r6, r7, pc}
 8007a5a:	2301      	movs	r3, #1
 8007a5c:	2700      	movs	r7, #0
 8007a5e:	9c00      	ldr	r4, [sp, #0]
 8007a60:	9302      	str	r3, [sp, #8]
 8007a62:	e7c8      	b.n	80079f6 <__gethex+0xb6>
 8007a64:	2300      	movs	r3, #0
 8007a66:	9304      	str	r3, [sp, #16]
 8007a68:	1ca6      	adds	r6, r4, #2
 8007a6a:	e7d2      	b.n	8007a12 <__gethex+0xd2>
 8007a6c:	2301      	movs	r3, #1
 8007a6e:	e7fa      	b.n	8007a66 <__gethex+0x126>
 8007a70:	230a      	movs	r3, #10
 8007a72:	435d      	muls	r5, r3
 8007a74:	182d      	adds	r5, r5, r0
 8007a76:	e7d4      	b.n	8007a22 <__gethex+0xe2>
 8007a78:	0026      	movs	r6, r4
 8007a7a:	e7e0      	b.n	8007a3e <__gethex+0xfe>
 8007a7c:	9b00      	ldr	r3, [sp, #0]
 8007a7e:	9902      	ldr	r1, [sp, #8]
 8007a80:	1ae3      	subs	r3, r4, r3
 8007a82:	3b01      	subs	r3, #1
 8007a84:	2b07      	cmp	r3, #7
 8007a86:	dc0a      	bgt.n	8007a9e <__gethex+0x15e>
 8007a88:	9803      	ldr	r0, [sp, #12]
 8007a8a:	f7fe f8ef 	bl	8005c6c <_Balloc>
 8007a8e:	1e05      	subs	r5, r0, #0
 8007a90:	d108      	bne.n	8007aa4 <__gethex+0x164>
 8007a92:	002a      	movs	r2, r5
 8007a94:	21e4      	movs	r1, #228	@ 0xe4
 8007a96:	4b5f      	ldr	r3, [pc, #380]	@ (8007c14 <__gethex+0x2d4>)
 8007a98:	485f      	ldr	r0, [pc, #380]	@ (8007c18 <__gethex+0x2d8>)
 8007a9a:	f7ff fe9d 	bl	80077d8 <__assert_func>
 8007a9e:	3101      	adds	r1, #1
 8007aa0:	105b      	asrs	r3, r3, #1
 8007aa2:	e7ef      	b.n	8007a84 <__gethex+0x144>
 8007aa4:	0003      	movs	r3, r0
 8007aa6:	3314      	adds	r3, #20
 8007aa8:	9302      	str	r3, [sp, #8]
 8007aaa:	9305      	str	r3, [sp, #20]
 8007aac:	2300      	movs	r3, #0
 8007aae:	001e      	movs	r6, r3
 8007ab0:	9304      	str	r3, [sp, #16]
 8007ab2:	9b00      	ldr	r3, [sp, #0]
 8007ab4:	42a3      	cmp	r3, r4
 8007ab6:	d338      	bcc.n	8007b2a <__gethex+0x1ea>
 8007ab8:	9c05      	ldr	r4, [sp, #20]
 8007aba:	9b02      	ldr	r3, [sp, #8]
 8007abc:	c440      	stmia	r4!, {r6}
 8007abe:	1ae4      	subs	r4, r4, r3
 8007ac0:	10a4      	asrs	r4, r4, #2
 8007ac2:	0030      	movs	r0, r6
 8007ac4:	612c      	str	r4, [r5, #16]
 8007ac6:	f7fe f9c9 	bl	8005e5c <__hi0bits>
 8007aca:	9b01      	ldr	r3, [sp, #4]
 8007acc:	0164      	lsls	r4, r4, #5
 8007ace:	681b      	ldr	r3, [r3, #0]
 8007ad0:	1a26      	subs	r6, r4, r0
 8007ad2:	9300      	str	r3, [sp, #0]
 8007ad4:	429e      	cmp	r6, r3
 8007ad6:	dd52      	ble.n	8007b7e <__gethex+0x23e>
 8007ad8:	1af6      	subs	r6, r6, r3
 8007ada:	0031      	movs	r1, r6
 8007adc:	0028      	movs	r0, r5
 8007ade:	f7fe fd6c 	bl	80065ba <__any_on>
 8007ae2:	1e04      	subs	r4, r0, #0
 8007ae4:	d00f      	beq.n	8007b06 <__gethex+0x1c6>
 8007ae6:	2401      	movs	r4, #1
 8007ae8:	231f      	movs	r3, #31
 8007aea:	0020      	movs	r0, r4
 8007aec:	1e72      	subs	r2, r6, #1
 8007aee:	4013      	ands	r3, r2
 8007af0:	4098      	lsls	r0, r3
 8007af2:	0003      	movs	r3, r0
 8007af4:	1151      	asrs	r1, r2, #5
 8007af6:	9802      	ldr	r0, [sp, #8]
 8007af8:	0089      	lsls	r1, r1, #2
 8007afa:	5809      	ldr	r1, [r1, r0]
 8007afc:	4219      	tst	r1, r3
 8007afe:	d002      	beq.n	8007b06 <__gethex+0x1c6>
 8007b00:	42a2      	cmp	r2, r4
 8007b02:	dc34      	bgt.n	8007b6e <__gethex+0x22e>
 8007b04:	2402      	movs	r4, #2
 8007b06:	0031      	movs	r1, r6
 8007b08:	0028      	movs	r0, r5
 8007b0a:	f7ff feb0 	bl	800786e <rshift>
 8007b0e:	19bf      	adds	r7, r7, r6
 8007b10:	9b01      	ldr	r3, [sp, #4]
 8007b12:	689b      	ldr	r3, [r3, #8]
 8007b14:	42bb      	cmp	r3, r7
 8007b16:	da42      	bge.n	8007b9e <__gethex+0x25e>
 8007b18:	0029      	movs	r1, r5
 8007b1a:	9803      	ldr	r0, [sp, #12]
 8007b1c:	f7fe f8ea 	bl	8005cf4 <_Bfree>
 8007b20:	2300      	movs	r3, #0
 8007b22:	9a0e      	ldr	r2, [sp, #56]	@ 0x38
 8007b24:	26a3      	movs	r6, #163	@ 0xa3
 8007b26:	6013      	str	r3, [r2, #0]
 8007b28:	e794      	b.n	8007a54 <__gethex+0x114>
 8007b2a:	3c01      	subs	r4, #1
 8007b2c:	7823      	ldrb	r3, [r4, #0]
 8007b2e:	2b2e      	cmp	r3, #46	@ 0x2e
 8007b30:	d012      	beq.n	8007b58 <__gethex+0x218>
 8007b32:	9b04      	ldr	r3, [sp, #16]
 8007b34:	2b20      	cmp	r3, #32
 8007b36:	d104      	bne.n	8007b42 <__gethex+0x202>
 8007b38:	9b05      	ldr	r3, [sp, #20]
 8007b3a:	c340      	stmia	r3!, {r6}
 8007b3c:	2600      	movs	r6, #0
 8007b3e:	9305      	str	r3, [sp, #20]
 8007b40:	9604      	str	r6, [sp, #16]
 8007b42:	7820      	ldrb	r0, [r4, #0]
 8007b44:	f7ff fee6 	bl	8007914 <__hexdig_fun>
 8007b48:	230f      	movs	r3, #15
 8007b4a:	4018      	ands	r0, r3
 8007b4c:	9b04      	ldr	r3, [sp, #16]
 8007b4e:	4098      	lsls	r0, r3
 8007b50:	3304      	adds	r3, #4
 8007b52:	4306      	orrs	r6, r0
 8007b54:	9304      	str	r3, [sp, #16]
 8007b56:	e7ac      	b.n	8007ab2 <__gethex+0x172>
 8007b58:	9b00      	ldr	r3, [sp, #0]
 8007b5a:	42a3      	cmp	r3, r4
 8007b5c:	d8e9      	bhi.n	8007b32 <__gethex+0x1f2>
 8007b5e:	2201      	movs	r2, #1
 8007b60:	0020      	movs	r0, r4
 8007b62:	492b      	ldr	r1, [pc, #172]	@ (8007c10 <__gethex+0x2d0>)
 8007b64:	f7ff fe0e 	bl	8007784 <strncmp>
 8007b68:	2800      	cmp	r0, #0
 8007b6a:	d1e2      	bne.n	8007b32 <__gethex+0x1f2>
 8007b6c:	e7a1      	b.n	8007ab2 <__gethex+0x172>
 8007b6e:	0028      	movs	r0, r5
 8007b70:	1eb1      	subs	r1, r6, #2
 8007b72:	f7fe fd22 	bl	80065ba <__any_on>
 8007b76:	2800      	cmp	r0, #0
 8007b78:	d0c4      	beq.n	8007b04 <__gethex+0x1c4>
 8007b7a:	2403      	movs	r4, #3
 8007b7c:	e7c3      	b.n	8007b06 <__gethex+0x1c6>
 8007b7e:	9b00      	ldr	r3, [sp, #0]
 8007b80:	2400      	movs	r4, #0
 8007b82:	429e      	cmp	r6, r3
 8007b84:	dac4      	bge.n	8007b10 <__gethex+0x1d0>
 8007b86:	1b9e      	subs	r6, r3, r6
 8007b88:	0029      	movs	r1, r5
 8007b8a:	0032      	movs	r2, r6
 8007b8c:	9803      	ldr	r0, [sp, #12]
 8007b8e:	f7fe fadb 	bl	8006148 <__lshift>
 8007b92:	0003      	movs	r3, r0
 8007b94:	3314      	adds	r3, #20
 8007b96:	0005      	movs	r5, r0
 8007b98:	1bbf      	subs	r7, r7, r6
 8007b9a:	9302      	str	r3, [sp, #8]
 8007b9c:	e7b8      	b.n	8007b10 <__gethex+0x1d0>
 8007b9e:	9b01      	ldr	r3, [sp, #4]
 8007ba0:	685e      	ldr	r6, [r3, #4]
 8007ba2:	42be      	cmp	r6, r7
 8007ba4:	dd6f      	ble.n	8007c86 <__gethex+0x346>
 8007ba6:	9b00      	ldr	r3, [sp, #0]
 8007ba8:	1bf6      	subs	r6, r6, r7
 8007baa:	42b3      	cmp	r3, r6
 8007bac:	dc36      	bgt.n	8007c1c <__gethex+0x2dc>
 8007bae:	9b01      	ldr	r3, [sp, #4]
 8007bb0:	68db      	ldr	r3, [r3, #12]
 8007bb2:	2b02      	cmp	r3, #2
 8007bb4:	d024      	beq.n	8007c00 <__gethex+0x2c0>
 8007bb6:	2b03      	cmp	r3, #3
 8007bb8:	d026      	beq.n	8007c08 <__gethex+0x2c8>
 8007bba:	2b01      	cmp	r3, #1
 8007bbc:	d117      	bne.n	8007bee <__gethex+0x2ae>
 8007bbe:	9b00      	ldr	r3, [sp, #0]
 8007bc0:	42b3      	cmp	r3, r6
 8007bc2:	d114      	bne.n	8007bee <__gethex+0x2ae>
 8007bc4:	2b01      	cmp	r3, #1
 8007bc6:	d10b      	bne.n	8007be0 <__gethex+0x2a0>
 8007bc8:	9b01      	ldr	r3, [sp, #4]
 8007bca:	9a07      	ldr	r2, [sp, #28]
 8007bcc:	685b      	ldr	r3, [r3, #4]
 8007bce:	2662      	movs	r6, #98	@ 0x62
 8007bd0:	6013      	str	r3, [r2, #0]
 8007bd2:	2301      	movs	r3, #1
 8007bd4:	9a02      	ldr	r2, [sp, #8]
 8007bd6:	612b      	str	r3, [r5, #16]
 8007bd8:	6013      	str	r3, [r2, #0]
 8007bda:	9b0e      	ldr	r3, [sp, #56]	@ 0x38
 8007bdc:	601d      	str	r5, [r3, #0]
 8007bde:	e739      	b.n	8007a54 <__gethex+0x114>
 8007be0:	9900      	ldr	r1, [sp, #0]
 8007be2:	0028      	movs	r0, r5
 8007be4:	3901      	subs	r1, #1
 8007be6:	f7fe fce8 	bl	80065ba <__any_on>
 8007bea:	2800      	cmp	r0, #0
 8007bec:	d1ec      	bne.n	8007bc8 <__gethex+0x288>
 8007bee:	0029      	movs	r1, r5
 8007bf0:	9803      	ldr	r0, [sp, #12]
 8007bf2:	f7fe f87f 	bl	8005cf4 <_Bfree>
 8007bf6:	2300      	movs	r3, #0
 8007bf8:	9a0e      	ldr	r2, [sp, #56]	@ 0x38
 8007bfa:	2650      	movs	r6, #80	@ 0x50
 8007bfc:	6013      	str	r3, [r2, #0]
 8007bfe:	e729      	b.n	8007a54 <__gethex+0x114>
 8007c00:	9b0f      	ldr	r3, [sp, #60]	@ 0x3c
 8007c02:	2b00      	cmp	r3, #0
 8007c04:	d1f3      	bne.n	8007bee <__gethex+0x2ae>
 8007c06:	e7df      	b.n	8007bc8 <__gethex+0x288>
 8007c08:	9b0f      	ldr	r3, [sp, #60]	@ 0x3c
 8007c0a:	2b00      	cmp	r3, #0
 8007c0c:	d1dc      	bne.n	8007bc8 <__gethex+0x288>
 8007c0e:	e7ee      	b.n	8007bee <__gethex+0x2ae>
 8007c10:	08008830 	.word	0x08008830
 8007c14:	080086c9 	.word	0x080086c9
 8007c18:	080089de 	.word	0x080089de
 8007c1c:	1e77      	subs	r7, r6, #1
 8007c1e:	2c00      	cmp	r4, #0
 8007c20:	d12f      	bne.n	8007c82 <__gethex+0x342>
 8007c22:	2f00      	cmp	r7, #0
 8007c24:	d004      	beq.n	8007c30 <__gethex+0x2f0>
 8007c26:	0039      	movs	r1, r7
 8007c28:	0028      	movs	r0, r5
 8007c2a:	f7fe fcc6 	bl	80065ba <__any_on>
 8007c2e:	0004      	movs	r4, r0
 8007c30:	231f      	movs	r3, #31
 8007c32:	117a      	asrs	r2, r7, #5
 8007c34:	401f      	ands	r7, r3
 8007c36:	3b1e      	subs	r3, #30
 8007c38:	40bb      	lsls	r3, r7
 8007c3a:	9902      	ldr	r1, [sp, #8]
 8007c3c:	0092      	lsls	r2, r2, #2
 8007c3e:	5852      	ldr	r2, [r2, r1]
 8007c40:	421a      	tst	r2, r3
 8007c42:	d001      	beq.n	8007c48 <__gethex+0x308>
 8007c44:	2302      	movs	r3, #2
 8007c46:	431c      	orrs	r4, r3
 8007c48:	9b00      	ldr	r3, [sp, #0]
 8007c4a:	0031      	movs	r1, r6
 8007c4c:	1b9b      	subs	r3, r3, r6
 8007c4e:	2602      	movs	r6, #2
 8007c50:	0028      	movs	r0, r5
 8007c52:	9300      	str	r3, [sp, #0]
 8007c54:	f7ff fe0b 	bl	800786e <rshift>
 8007c58:	9b01      	ldr	r3, [sp, #4]
 8007c5a:	685f      	ldr	r7, [r3, #4]
 8007c5c:	2c00      	cmp	r4, #0
 8007c5e:	d03f      	beq.n	8007ce0 <__gethex+0x3a0>
 8007c60:	9b01      	ldr	r3, [sp, #4]
 8007c62:	68db      	ldr	r3, [r3, #12]
 8007c64:	2b02      	cmp	r3, #2
 8007c66:	d010      	beq.n	8007c8a <__gethex+0x34a>
 8007c68:	2b03      	cmp	r3, #3
 8007c6a:	d012      	beq.n	8007c92 <__gethex+0x352>
 8007c6c:	2b01      	cmp	r3, #1
 8007c6e:	d106      	bne.n	8007c7e <__gethex+0x33e>
 8007c70:	07a2      	lsls	r2, r4, #30
 8007c72:	d504      	bpl.n	8007c7e <__gethex+0x33e>
 8007c74:	9a02      	ldr	r2, [sp, #8]
 8007c76:	6812      	ldr	r2, [r2, #0]
 8007c78:	4314      	orrs	r4, r2
 8007c7a:	421c      	tst	r4, r3
 8007c7c:	d10c      	bne.n	8007c98 <__gethex+0x358>
 8007c7e:	2310      	movs	r3, #16
 8007c80:	e02d      	b.n	8007cde <__gethex+0x39e>
 8007c82:	2401      	movs	r4, #1
 8007c84:	e7d4      	b.n	8007c30 <__gethex+0x2f0>
 8007c86:	2601      	movs	r6, #1
 8007c88:	e7e8      	b.n	8007c5c <__gethex+0x31c>
 8007c8a:	2301      	movs	r3, #1
 8007c8c:	9a0f      	ldr	r2, [sp, #60]	@ 0x3c
 8007c8e:	1a9b      	subs	r3, r3, r2
 8007c90:	930f      	str	r3, [sp, #60]	@ 0x3c
 8007c92:	9b0f      	ldr	r3, [sp, #60]	@ 0x3c
 8007c94:	2b00      	cmp	r3, #0
 8007c96:	d0f2      	beq.n	8007c7e <__gethex+0x33e>
 8007c98:	692b      	ldr	r3, [r5, #16]
 8007c9a:	2000      	movs	r0, #0
 8007c9c:	9302      	str	r3, [sp, #8]
 8007c9e:	009b      	lsls	r3, r3, #2
 8007ca0:	9304      	str	r3, [sp, #16]
 8007ca2:	002b      	movs	r3, r5
 8007ca4:	9a04      	ldr	r2, [sp, #16]
 8007ca6:	3314      	adds	r3, #20
 8007ca8:	1899      	adds	r1, r3, r2
 8007caa:	681a      	ldr	r2, [r3, #0]
 8007cac:	1c54      	adds	r4, r2, #1
 8007cae:	d01c      	beq.n	8007cea <__gethex+0x3aa>
 8007cb0:	3201      	adds	r2, #1
 8007cb2:	601a      	str	r2, [r3, #0]
 8007cb4:	002b      	movs	r3, r5
 8007cb6:	3314      	adds	r3, #20
 8007cb8:	2e02      	cmp	r6, #2
 8007cba:	d13f      	bne.n	8007d3c <__gethex+0x3fc>
 8007cbc:	9a01      	ldr	r2, [sp, #4]
 8007cbe:	9900      	ldr	r1, [sp, #0]
 8007cc0:	6812      	ldr	r2, [r2, #0]
 8007cc2:	3a01      	subs	r2, #1
 8007cc4:	428a      	cmp	r2, r1
 8007cc6:	d109      	bne.n	8007cdc <__gethex+0x39c>
 8007cc8:	000a      	movs	r2, r1
 8007cca:	201f      	movs	r0, #31
 8007ccc:	4010      	ands	r0, r2
 8007cce:	2201      	movs	r2, #1
 8007cd0:	4082      	lsls	r2, r0
 8007cd2:	1149      	asrs	r1, r1, #5
 8007cd4:	0089      	lsls	r1, r1, #2
 8007cd6:	58cb      	ldr	r3, [r1, r3]
 8007cd8:	4213      	tst	r3, r2
 8007cda:	d13d      	bne.n	8007d58 <__gethex+0x418>
 8007cdc:	2320      	movs	r3, #32
 8007cde:	431e      	orrs	r6, r3
 8007ce0:	9b0e      	ldr	r3, [sp, #56]	@ 0x38
 8007ce2:	601d      	str	r5, [r3, #0]
 8007ce4:	9b07      	ldr	r3, [sp, #28]
 8007ce6:	601f      	str	r7, [r3, #0]
 8007ce8:	e6b4      	b.n	8007a54 <__gethex+0x114>
 8007cea:	c301      	stmia	r3!, {r0}
 8007cec:	4299      	cmp	r1, r3
 8007cee:	d8dc      	bhi.n	8007caa <__gethex+0x36a>
 8007cf0:	68ab      	ldr	r3, [r5, #8]
 8007cf2:	9a02      	ldr	r2, [sp, #8]
 8007cf4:	429a      	cmp	r2, r3
 8007cf6:	db18      	blt.n	8007d2a <__gethex+0x3ea>
 8007cf8:	6869      	ldr	r1, [r5, #4]
 8007cfa:	9803      	ldr	r0, [sp, #12]
 8007cfc:	3101      	adds	r1, #1
 8007cfe:	f7fd ffb5 	bl	8005c6c <_Balloc>
 8007d02:	1e04      	subs	r4, r0, #0
 8007d04:	d104      	bne.n	8007d10 <__gethex+0x3d0>
 8007d06:	0022      	movs	r2, r4
 8007d08:	2184      	movs	r1, #132	@ 0x84
 8007d0a:	4b1d      	ldr	r3, [pc, #116]	@ (8007d80 <__gethex+0x440>)
 8007d0c:	481d      	ldr	r0, [pc, #116]	@ (8007d84 <__gethex+0x444>)
 8007d0e:	e6c4      	b.n	8007a9a <__gethex+0x15a>
 8007d10:	0029      	movs	r1, r5
 8007d12:	692a      	ldr	r2, [r5, #16]
 8007d14:	310c      	adds	r1, #12
 8007d16:	3202      	adds	r2, #2
 8007d18:	0092      	lsls	r2, r2, #2
 8007d1a:	300c      	adds	r0, #12
 8007d1c:	f7fd f810 	bl	8004d40 <memcpy>
 8007d20:	0029      	movs	r1, r5
 8007d22:	9803      	ldr	r0, [sp, #12]
 8007d24:	f7fd ffe6 	bl	8005cf4 <_Bfree>
 8007d28:	0025      	movs	r5, r4
 8007d2a:	692b      	ldr	r3, [r5, #16]
 8007d2c:	1c5a      	adds	r2, r3, #1
 8007d2e:	612a      	str	r2, [r5, #16]
 8007d30:	2201      	movs	r2, #1
 8007d32:	3304      	adds	r3, #4
 8007d34:	009b      	lsls	r3, r3, #2
 8007d36:	18eb      	adds	r3, r5, r3
 8007d38:	605a      	str	r2, [r3, #4]
 8007d3a:	e7bb      	b.n	8007cb4 <__gethex+0x374>
 8007d3c:	692a      	ldr	r2, [r5, #16]
 8007d3e:	9902      	ldr	r1, [sp, #8]
 8007d40:	428a      	cmp	r2, r1
 8007d42:	dd0b      	ble.n	8007d5c <__gethex+0x41c>
 8007d44:	2101      	movs	r1, #1
 8007d46:	0028      	movs	r0, r5
 8007d48:	f7ff fd91 	bl	800786e <rshift>
 8007d4c:	9b01      	ldr	r3, [sp, #4]
 8007d4e:	3701      	adds	r7, #1
 8007d50:	689b      	ldr	r3, [r3, #8]
 8007d52:	42bb      	cmp	r3, r7
 8007d54:	da00      	bge.n	8007d58 <__gethex+0x418>
 8007d56:	e6df      	b.n	8007b18 <__gethex+0x1d8>
 8007d58:	2601      	movs	r6, #1
 8007d5a:	e7bf      	b.n	8007cdc <__gethex+0x39c>
 8007d5c:	221f      	movs	r2, #31
 8007d5e:	9c00      	ldr	r4, [sp, #0]
 8007d60:	9900      	ldr	r1, [sp, #0]
 8007d62:	4014      	ands	r4, r2
 8007d64:	4211      	tst	r1, r2
 8007d66:	d0f7      	beq.n	8007d58 <__gethex+0x418>
 8007d68:	9a04      	ldr	r2, [sp, #16]
 8007d6a:	189b      	adds	r3, r3, r2
 8007d6c:	3b04      	subs	r3, #4
 8007d6e:	6818      	ldr	r0, [r3, #0]
 8007d70:	f7fe f874 	bl	8005e5c <__hi0bits>
 8007d74:	2320      	movs	r3, #32
 8007d76:	1b1b      	subs	r3, r3, r4
 8007d78:	4298      	cmp	r0, r3
 8007d7a:	dbe3      	blt.n	8007d44 <__gethex+0x404>
 8007d7c:	e7ec      	b.n	8007d58 <__gethex+0x418>
 8007d7e:	46c0      	nop			@ (mov r8, r8)
 8007d80:	080086c9 	.word	0x080086c9
 8007d84:	080089de 	.word	0x080089de

08007d88 <L_shift>:
 8007d88:	2308      	movs	r3, #8
 8007d8a:	b570      	push	{r4, r5, r6, lr}
 8007d8c:	2520      	movs	r5, #32
 8007d8e:	1a9a      	subs	r2, r3, r2
 8007d90:	0092      	lsls	r2, r2, #2
 8007d92:	1aad      	subs	r5, r5, r2
 8007d94:	6843      	ldr	r3, [r0, #4]
 8007d96:	6804      	ldr	r4, [r0, #0]
 8007d98:	001e      	movs	r6, r3
 8007d9a:	40ae      	lsls	r6, r5
 8007d9c:	40d3      	lsrs	r3, r2
 8007d9e:	4334      	orrs	r4, r6
 8007da0:	6004      	str	r4, [r0, #0]
 8007da2:	6043      	str	r3, [r0, #4]
 8007da4:	3004      	adds	r0, #4
 8007da6:	4288      	cmp	r0, r1
 8007da8:	d3f4      	bcc.n	8007d94 <L_shift+0xc>
 8007daa:	bd70      	pop	{r4, r5, r6, pc}

08007dac <__match>:
 8007dac:	b530      	push	{r4, r5, lr}
 8007dae:	6803      	ldr	r3, [r0, #0]
 8007db0:	780c      	ldrb	r4, [r1, #0]
 8007db2:	3301      	adds	r3, #1
 8007db4:	2c00      	cmp	r4, #0
 8007db6:	d102      	bne.n	8007dbe <__match+0x12>
 8007db8:	6003      	str	r3, [r0, #0]
 8007dba:	2001      	movs	r0, #1
 8007dbc:	bd30      	pop	{r4, r5, pc}
 8007dbe:	781a      	ldrb	r2, [r3, #0]
 8007dc0:	0015      	movs	r5, r2
 8007dc2:	3d41      	subs	r5, #65	@ 0x41
 8007dc4:	2d19      	cmp	r5, #25
 8007dc6:	d800      	bhi.n	8007dca <__match+0x1e>
 8007dc8:	3220      	adds	r2, #32
 8007dca:	3101      	adds	r1, #1
 8007dcc:	42a2      	cmp	r2, r4
 8007dce:	d0ef      	beq.n	8007db0 <__match+0x4>
 8007dd0:	2000      	movs	r0, #0
 8007dd2:	e7f3      	b.n	8007dbc <__match+0x10>

08007dd4 <__hexnan>:
 8007dd4:	b5f0      	push	{r4, r5, r6, r7, lr}
 8007dd6:	680b      	ldr	r3, [r1, #0]
 8007dd8:	b08b      	sub	sp, #44	@ 0x2c
 8007dda:	9201      	str	r2, [sp, #4]
 8007ddc:	9901      	ldr	r1, [sp, #4]
 8007dde:	115a      	asrs	r2, r3, #5
 8007de0:	0092      	lsls	r2, r2, #2
 8007de2:	188a      	adds	r2, r1, r2
 8007de4:	9202      	str	r2, [sp, #8]
 8007de6:	0019      	movs	r1, r3
 8007de8:	221f      	movs	r2, #31
 8007dea:	4011      	ands	r1, r2
 8007dec:	9008      	str	r0, [sp, #32]
 8007dee:	9106      	str	r1, [sp, #24]
 8007df0:	4213      	tst	r3, r2
 8007df2:	d002      	beq.n	8007dfa <__hexnan+0x26>
 8007df4:	9b02      	ldr	r3, [sp, #8]
 8007df6:	3304      	adds	r3, #4
 8007df8:	9302      	str	r3, [sp, #8]
 8007dfa:	9b02      	ldr	r3, [sp, #8]
 8007dfc:	2500      	movs	r5, #0
 8007dfe:	1f1f      	subs	r7, r3, #4
 8007e00:	003e      	movs	r6, r7
 8007e02:	003c      	movs	r4, r7
 8007e04:	9b08      	ldr	r3, [sp, #32]
 8007e06:	603d      	str	r5, [r7, #0]
 8007e08:	681b      	ldr	r3, [r3, #0]
 8007e0a:	9507      	str	r5, [sp, #28]
 8007e0c:	9305      	str	r3, [sp, #20]
 8007e0e:	9503      	str	r5, [sp, #12]
 8007e10:	9b05      	ldr	r3, [sp, #20]
 8007e12:	3301      	adds	r3, #1
 8007e14:	9309      	str	r3, [sp, #36]	@ 0x24
 8007e16:	9b05      	ldr	r3, [sp, #20]
 8007e18:	785b      	ldrb	r3, [r3, #1]
 8007e1a:	9304      	str	r3, [sp, #16]
 8007e1c:	2b00      	cmp	r3, #0
 8007e1e:	d028      	beq.n	8007e72 <__hexnan+0x9e>
 8007e20:	9804      	ldr	r0, [sp, #16]
 8007e22:	f7ff fd77 	bl	8007914 <__hexdig_fun>
 8007e26:	2800      	cmp	r0, #0
 8007e28:	d155      	bne.n	8007ed6 <__hexnan+0x102>
 8007e2a:	9b04      	ldr	r3, [sp, #16]
 8007e2c:	2b20      	cmp	r3, #32
 8007e2e:	d819      	bhi.n	8007e64 <__hexnan+0x90>
 8007e30:	9b03      	ldr	r3, [sp, #12]
 8007e32:	9a07      	ldr	r2, [sp, #28]
 8007e34:	4293      	cmp	r3, r2
 8007e36:	dd12      	ble.n	8007e5e <__hexnan+0x8a>
 8007e38:	42b4      	cmp	r4, r6
 8007e3a:	d206      	bcs.n	8007e4a <__hexnan+0x76>
 8007e3c:	2d07      	cmp	r5, #7
 8007e3e:	dc04      	bgt.n	8007e4a <__hexnan+0x76>
 8007e40:	002a      	movs	r2, r5
 8007e42:	0031      	movs	r1, r6
 8007e44:	0020      	movs	r0, r4
 8007e46:	f7ff ff9f 	bl	8007d88 <L_shift>
 8007e4a:	9b01      	ldr	r3, [sp, #4]
 8007e4c:	2508      	movs	r5, #8
 8007e4e:	429c      	cmp	r4, r3
 8007e50:	d905      	bls.n	8007e5e <__hexnan+0x8a>
 8007e52:	1f26      	subs	r6, r4, #4
 8007e54:	2500      	movs	r5, #0
 8007e56:	0034      	movs	r4, r6
 8007e58:	9b03      	ldr	r3, [sp, #12]
 8007e5a:	6035      	str	r5, [r6, #0]
 8007e5c:	9307      	str	r3, [sp, #28]
 8007e5e:	9b09      	ldr	r3, [sp, #36]	@ 0x24
 8007e60:	9305      	str	r3, [sp, #20]
 8007e62:	e7d5      	b.n	8007e10 <__hexnan+0x3c>
 8007e64:	9b04      	ldr	r3, [sp, #16]
 8007e66:	2b29      	cmp	r3, #41	@ 0x29
 8007e68:	d15a      	bne.n	8007f20 <__hexnan+0x14c>
 8007e6a:	9b05      	ldr	r3, [sp, #20]
 8007e6c:	9a08      	ldr	r2, [sp, #32]
 8007e6e:	3302      	adds	r3, #2
 8007e70:	6013      	str	r3, [r2, #0]
 8007e72:	9b03      	ldr	r3, [sp, #12]
 8007e74:	2b00      	cmp	r3, #0
 8007e76:	d053      	beq.n	8007f20 <__hexnan+0x14c>
 8007e78:	42b4      	cmp	r4, r6
 8007e7a:	d206      	bcs.n	8007e8a <__hexnan+0xb6>
 8007e7c:	2d07      	cmp	r5, #7
 8007e7e:	dc04      	bgt.n	8007e8a <__hexnan+0xb6>
 8007e80:	002a      	movs	r2, r5
 8007e82:	0031      	movs	r1, r6
 8007e84:	0020      	movs	r0, r4
 8007e86:	f7ff ff7f 	bl	8007d88 <L_shift>
 8007e8a:	9b01      	ldr	r3, [sp, #4]
 8007e8c:	429c      	cmp	r4, r3
 8007e8e:	d936      	bls.n	8007efe <__hexnan+0x12a>
 8007e90:	001a      	movs	r2, r3
 8007e92:	0023      	movs	r3, r4
 8007e94:	cb02      	ldmia	r3!, {r1}
 8007e96:	c202      	stmia	r2!, {r1}
 8007e98:	429f      	cmp	r7, r3
 8007e9a:	d2fb      	bcs.n	8007e94 <__hexnan+0xc0>
 8007e9c:	9b02      	ldr	r3, [sp, #8]
 8007e9e:	1c61      	adds	r1, r4, #1
 8007ea0:	1eda      	subs	r2, r3, #3
 8007ea2:	2304      	movs	r3, #4
 8007ea4:	4291      	cmp	r1, r2
 8007ea6:	d805      	bhi.n	8007eb4 <__hexnan+0xe0>
 8007ea8:	9b02      	ldr	r3, [sp, #8]
 8007eaa:	3b04      	subs	r3, #4
 8007eac:	1b1b      	subs	r3, r3, r4
 8007eae:	089b      	lsrs	r3, r3, #2
 8007eb0:	3301      	adds	r3, #1
 8007eb2:	009b      	lsls	r3, r3, #2
 8007eb4:	9a01      	ldr	r2, [sp, #4]
 8007eb6:	18d3      	adds	r3, r2, r3
 8007eb8:	2200      	movs	r2, #0
 8007eba:	c304      	stmia	r3!, {r2}
 8007ebc:	429f      	cmp	r7, r3
 8007ebe:	d2fc      	bcs.n	8007eba <__hexnan+0xe6>
 8007ec0:	683b      	ldr	r3, [r7, #0]
 8007ec2:	2b00      	cmp	r3, #0
 8007ec4:	d104      	bne.n	8007ed0 <__hexnan+0xfc>
 8007ec6:	9b01      	ldr	r3, [sp, #4]
 8007ec8:	429f      	cmp	r7, r3
 8007eca:	d127      	bne.n	8007f1c <__hexnan+0x148>
 8007ecc:	2301      	movs	r3, #1
 8007ece:	603b      	str	r3, [r7, #0]
 8007ed0:	2005      	movs	r0, #5
 8007ed2:	b00b      	add	sp, #44	@ 0x2c
 8007ed4:	bdf0      	pop	{r4, r5, r6, r7, pc}
 8007ed6:	9b03      	ldr	r3, [sp, #12]
 8007ed8:	3501      	adds	r5, #1
 8007eda:	3301      	adds	r3, #1
 8007edc:	9303      	str	r3, [sp, #12]
 8007ede:	2d08      	cmp	r5, #8
 8007ee0:	dd06      	ble.n	8007ef0 <__hexnan+0x11c>
 8007ee2:	9b01      	ldr	r3, [sp, #4]
 8007ee4:	429c      	cmp	r4, r3
 8007ee6:	d9ba      	bls.n	8007e5e <__hexnan+0x8a>
 8007ee8:	2300      	movs	r3, #0
 8007eea:	2501      	movs	r5, #1
 8007eec:	3c04      	subs	r4, #4
 8007eee:	6023      	str	r3, [r4, #0]
 8007ef0:	220f      	movs	r2, #15
 8007ef2:	6823      	ldr	r3, [r4, #0]
 8007ef4:	4010      	ands	r0, r2
 8007ef6:	011b      	lsls	r3, r3, #4
 8007ef8:	4303      	orrs	r3, r0
 8007efa:	6023      	str	r3, [r4, #0]
 8007efc:	e7af      	b.n	8007e5e <__hexnan+0x8a>
 8007efe:	9b06      	ldr	r3, [sp, #24]
 8007f00:	2b00      	cmp	r3, #0
 8007f02:	d0dd      	beq.n	8007ec0 <__hexnan+0xec>
 8007f04:	2320      	movs	r3, #32
 8007f06:	9a06      	ldr	r2, [sp, #24]
 8007f08:	9902      	ldr	r1, [sp, #8]
 8007f0a:	1a9b      	subs	r3, r3, r2
 8007f0c:	2201      	movs	r2, #1
 8007f0e:	4252      	negs	r2, r2
 8007f10:	40da      	lsrs	r2, r3
 8007f12:	3904      	subs	r1, #4
 8007f14:	680b      	ldr	r3, [r1, #0]
 8007f16:	4013      	ands	r3, r2
 8007f18:	600b      	str	r3, [r1, #0]
 8007f1a:	e7d1      	b.n	8007ec0 <__hexnan+0xec>
 8007f1c:	3f04      	subs	r7, #4
 8007f1e:	e7cf      	b.n	8007ec0 <__hexnan+0xec>
 8007f20:	2004      	movs	r0, #4
 8007f22:	e7d6      	b.n	8007ed2 <__hexnan+0xfe>

08007f24 <__ascii_mbtowc>:
 8007f24:	b082      	sub	sp, #8
 8007f26:	2900      	cmp	r1, #0
 8007f28:	d100      	bne.n	8007f2c <__ascii_mbtowc+0x8>
 8007f2a:	a901      	add	r1, sp, #4
 8007f2c:	1e10      	subs	r0, r2, #0
 8007f2e:	d006      	beq.n	8007f3e <__ascii_mbtowc+0x1a>
 8007f30:	2b00      	cmp	r3, #0
 8007f32:	d006      	beq.n	8007f42 <__ascii_mbtowc+0x1e>
 8007f34:	7813      	ldrb	r3, [r2, #0]
 8007f36:	600b      	str	r3, [r1, #0]
 8007f38:	7810      	ldrb	r0, [r2, #0]
 8007f3a:	1e43      	subs	r3, r0, #1
 8007f3c:	4198      	sbcs	r0, r3
 8007f3e:	b002      	add	sp, #8
 8007f40:	4770      	bx	lr
 8007f42:	2002      	movs	r0, #2
 8007f44:	4240      	negs	r0, r0
 8007f46:	e7fa      	b.n	8007f3e <__ascii_mbtowc+0x1a>

08007f48 <_realloc_r>:
 8007f48:	b5f7      	push	{r0, r1, r2, r4, r5, r6, r7, lr}
 8007f4a:	0006      	movs	r6, r0
 8007f4c:	000c      	movs	r4, r1
 8007f4e:	0015      	movs	r5, r2
 8007f50:	2900      	cmp	r1, #0
 8007f52:	d105      	bne.n	8007f60 <_realloc_r+0x18>
 8007f54:	0011      	movs	r1, r2
 8007f56:	f7fd fdf9 	bl	8005b4c <_malloc_r>
 8007f5a:	0004      	movs	r4, r0
 8007f5c:	0020      	movs	r0, r4
 8007f5e:	bdfe      	pop	{r1, r2, r3, r4, r5, r6, r7, pc}
 8007f60:	2a00      	cmp	r2, #0
 8007f62:	d103      	bne.n	8007f6c <_realloc_r+0x24>
 8007f64:	f7fd fd7c 	bl	8005a60 <_free_r>
 8007f68:	2400      	movs	r4, #0
 8007f6a:	e7f7      	b.n	8007f5c <_realloc_r+0x14>
 8007f6c:	f000 f83f 	bl	8007fee <_malloc_usable_size_r>
 8007f70:	0007      	movs	r7, r0
 8007f72:	4285      	cmp	r5, r0
 8007f74:	d802      	bhi.n	8007f7c <_realloc_r+0x34>
 8007f76:	0843      	lsrs	r3, r0, #1
 8007f78:	42ab      	cmp	r3, r5
 8007f7a:	d3ef      	bcc.n	8007f5c <_realloc_r+0x14>
 8007f7c:	0029      	movs	r1, r5
 8007f7e:	0030      	movs	r0, r6
 8007f80:	f7fd fde4 	bl	8005b4c <_malloc_r>
 8007f84:	9001      	str	r0, [sp, #4]
 8007f86:	2800      	cmp	r0, #0
 8007f88:	d0ee      	beq.n	8007f68 <_realloc_r+0x20>
 8007f8a:	002a      	movs	r2, r5
 8007f8c:	42bd      	cmp	r5, r7
 8007f8e:	d900      	bls.n	8007f92 <_realloc_r+0x4a>
 8007f90:	003a      	movs	r2, r7
 8007f92:	0021      	movs	r1, r4
 8007f94:	9801      	ldr	r0, [sp, #4]
 8007f96:	f7fc fed3 	bl	8004d40 <memcpy>
 8007f9a:	0021      	movs	r1, r4
 8007f9c:	0030      	movs	r0, r6
 8007f9e:	f7fd fd5f 	bl	8005a60 <_free_r>
 8007fa2:	9c01      	ldr	r4, [sp, #4]
 8007fa4:	e7da      	b.n	8007f5c <_realloc_r+0x14>

08007fa6 <__ascii_wctomb>:
 8007fa6:	0003      	movs	r3, r0
 8007fa8:	1e08      	subs	r0, r1, #0
 8007faa:	d005      	beq.n	8007fb8 <__ascii_wctomb+0x12>
 8007fac:	2aff      	cmp	r2, #255	@ 0xff
 8007fae:	d904      	bls.n	8007fba <__ascii_wctomb+0x14>
 8007fb0:	228a      	movs	r2, #138	@ 0x8a
 8007fb2:	2001      	movs	r0, #1
 8007fb4:	601a      	str	r2, [r3, #0]
 8007fb6:	4240      	negs	r0, r0
 8007fb8:	4770      	bx	lr
 8007fba:	2001      	movs	r0, #1
 8007fbc:	700a      	strb	r2, [r1, #0]
 8007fbe:	e7fb      	b.n	8007fb8 <__ascii_wctomb+0x12>

08007fc0 <fiprintf>:
 8007fc0:	b40e      	push	{r1, r2, r3}
 8007fc2:	b517      	push	{r0, r1, r2, r4, lr}
 8007fc4:	4c05      	ldr	r4, [pc, #20]	@ (8007fdc <fiprintf+0x1c>)
 8007fc6:	ab05      	add	r3, sp, #20
 8007fc8:	cb04      	ldmia	r3!, {r2}
 8007fca:	0001      	movs	r1, r0
 8007fcc:	6820      	ldr	r0, [r4, #0]
 8007fce:	9301      	str	r3, [sp, #4]
 8007fd0:	f000 f83c 	bl	800804c <_vfiprintf_r>
 8007fd4:	bc1e      	pop	{r1, r2, r3, r4}
 8007fd6:	bc08      	pop	{r3}
 8007fd8:	b003      	add	sp, #12
 8007fda:	4718      	bx	r3
 8007fdc:	20000010 	.word	0x20000010

08007fe0 <abort>:
 8007fe0:	2006      	movs	r0, #6
 8007fe2:	b510      	push	{r4, lr}
 8007fe4:	f000 fa18 	bl	8008418 <raise>
 8007fe8:	2001      	movs	r0, #1
 8007fea:	f7fb fc81 	bl	80038f0 <_exit>

08007fee <_malloc_usable_size_r>:
 8007fee:	1f0b      	subs	r3, r1, #4
 8007ff0:	681b      	ldr	r3, [r3, #0]
 8007ff2:	1f18      	subs	r0, r3, #4
 8007ff4:	2b00      	cmp	r3, #0
 8007ff6:	da01      	bge.n	8007ffc <_malloc_usable_size_r+0xe>
 8007ff8:	580b      	ldr	r3, [r1, r0]
 8007ffa:	18c0      	adds	r0, r0, r3
 8007ffc:	4770      	bx	lr

08007ffe <__sfputc_r>:
 8007ffe:	6893      	ldr	r3, [r2, #8]
 8008000:	b510      	push	{r4, lr}
 8008002:	3b01      	subs	r3, #1
 8008004:	6093      	str	r3, [r2, #8]
 8008006:	2b00      	cmp	r3, #0
 8008008:	da04      	bge.n	8008014 <__sfputc_r+0x16>
 800800a:	6994      	ldr	r4, [r2, #24]
 800800c:	42a3      	cmp	r3, r4
 800800e:	db07      	blt.n	8008020 <__sfputc_r+0x22>
 8008010:	290a      	cmp	r1, #10
 8008012:	d005      	beq.n	8008020 <__sfputc_r+0x22>
 8008014:	6813      	ldr	r3, [r2, #0]
 8008016:	1c58      	adds	r0, r3, #1
 8008018:	6010      	str	r0, [r2, #0]
 800801a:	7019      	strb	r1, [r3, #0]
 800801c:	0008      	movs	r0, r1
 800801e:	bd10      	pop	{r4, pc}
 8008020:	f000 f930 	bl	8008284 <__swbuf_r>
 8008024:	0001      	movs	r1, r0
 8008026:	e7f9      	b.n	800801c <__sfputc_r+0x1e>

08008028 <__sfputs_r>:
 8008028:	b5f8      	push	{r3, r4, r5, r6, r7, lr}
 800802a:	0006      	movs	r6, r0
 800802c:	000f      	movs	r7, r1
 800802e:	0014      	movs	r4, r2
 8008030:	18d5      	adds	r5, r2, r3
 8008032:	42ac      	cmp	r4, r5
 8008034:	d101      	bne.n	800803a <__sfputs_r+0x12>
 8008036:	2000      	movs	r0, #0
 8008038:	e007      	b.n	800804a <__sfputs_r+0x22>
 800803a:	7821      	ldrb	r1, [r4, #0]
 800803c:	003a      	movs	r2, r7
 800803e:	0030      	movs	r0, r6
 8008040:	f7ff ffdd 	bl	8007ffe <__sfputc_r>
 8008044:	3401      	adds	r4, #1
 8008046:	1c43      	adds	r3, r0, #1
 8008048:	d1f3      	bne.n	8008032 <__sfputs_r+0xa>
 800804a:	bdf8      	pop	{r3, r4, r5, r6, r7, pc}

0800804c <_vfiprintf_r>:
 800804c:	b5f0      	push	{r4, r5, r6, r7, lr}
 800804e:	b0a1      	sub	sp, #132	@ 0x84
 8008050:	000f      	movs	r7, r1
 8008052:	0015      	movs	r5, r2
 8008054:	001e      	movs	r6, r3
 8008056:	9003      	str	r0, [sp, #12]
 8008058:	2800      	cmp	r0, #0
 800805a:	d004      	beq.n	8008066 <_vfiprintf_r+0x1a>
 800805c:	6a03      	ldr	r3, [r0, #32]
 800805e:	2b00      	cmp	r3, #0
 8008060:	d101      	bne.n	8008066 <_vfiprintf_r+0x1a>
 8008062:	f7fc fd3b 	bl	8004adc <__sinit>
 8008066:	6e7b      	ldr	r3, [r7, #100]	@ 0x64
 8008068:	07db      	lsls	r3, r3, #31
 800806a:	d405      	bmi.n	8008078 <_vfiprintf_r+0x2c>
 800806c:	89bb      	ldrh	r3, [r7, #12]
 800806e:	059b      	lsls	r3, r3, #22
 8008070:	d402      	bmi.n	8008078 <_vfiprintf_r+0x2c>
 8008072:	6db8      	ldr	r0, [r7, #88]	@ 0x58
 8008074:	f7fc fe57 	bl	8004d26 <__retarget_lock_acquire_recursive>
 8008078:	89bb      	ldrh	r3, [r7, #12]
 800807a:	071b      	lsls	r3, r3, #28
 800807c:	d502      	bpl.n	8008084 <_vfiprintf_r+0x38>
 800807e:	693b      	ldr	r3, [r7, #16]
 8008080:	2b00      	cmp	r3, #0
 8008082:	d113      	bne.n	80080ac <_vfiprintf_r+0x60>
 8008084:	0039      	movs	r1, r7
 8008086:	9803      	ldr	r0, [sp, #12]
 8008088:	f000 f93e 	bl	8008308 <__swsetup_r>
 800808c:	2800      	cmp	r0, #0
 800808e:	d00d      	beq.n	80080ac <_vfiprintf_r+0x60>
 8008090:	6e7b      	ldr	r3, [r7, #100]	@ 0x64
 8008092:	07db      	lsls	r3, r3, #31
 8008094:	d503      	bpl.n	800809e <_vfiprintf_r+0x52>
 8008096:	2001      	movs	r0, #1
 8008098:	4240      	negs	r0, r0
 800809a:	b021      	add	sp, #132	@ 0x84
 800809c:	bdf0      	pop	{r4, r5, r6, r7, pc}
 800809e:	89bb      	ldrh	r3, [r7, #12]
 80080a0:	059b      	lsls	r3, r3, #22
 80080a2:	d4f8      	bmi.n	8008096 <_vfiprintf_r+0x4a>
 80080a4:	6db8      	ldr	r0, [r7, #88]	@ 0x58
 80080a6:	f7fc fe3f 	bl	8004d28 <__retarget_lock_release_recursive>
 80080aa:	e7f4      	b.n	8008096 <_vfiprintf_r+0x4a>
 80080ac:	2300      	movs	r3, #0
 80080ae:	ac08      	add	r4, sp, #32
 80080b0:	6163      	str	r3, [r4, #20]
 80080b2:	3320      	adds	r3, #32
 80080b4:	7663      	strb	r3, [r4, #25]
 80080b6:	3310      	adds	r3, #16
 80080b8:	76a3      	strb	r3, [r4, #26]
 80080ba:	9607      	str	r6, [sp, #28]
 80080bc:	002e      	movs	r6, r5
 80080be:	7833      	ldrb	r3, [r6, #0]
 80080c0:	2b00      	cmp	r3, #0
 80080c2:	d001      	beq.n	80080c8 <_vfiprintf_r+0x7c>
 80080c4:	2b25      	cmp	r3, #37	@ 0x25
 80080c6:	d148      	bne.n	800815a <_vfiprintf_r+0x10e>
 80080c8:	1b73      	subs	r3, r6, r5
 80080ca:	9305      	str	r3, [sp, #20]
 80080cc:	42ae      	cmp	r6, r5
 80080ce:	d00b      	beq.n	80080e8 <_vfiprintf_r+0x9c>
 80080d0:	002a      	movs	r2, r5
 80080d2:	0039      	movs	r1, r7
 80080d4:	9803      	ldr	r0, [sp, #12]
 80080d6:	f7ff ffa7 	bl	8008028 <__sfputs_r>
 80080da:	3001      	adds	r0, #1
 80080dc:	d100      	bne.n	80080e0 <_vfiprintf_r+0x94>
 80080de:	e0ae      	b.n	800823e <_vfiprintf_r+0x1f2>
 80080e0:	6963      	ldr	r3, [r4, #20]
 80080e2:	9a05      	ldr	r2, [sp, #20]
 80080e4:	189b      	adds	r3, r3, r2
 80080e6:	6163      	str	r3, [r4, #20]
 80080e8:	7833      	ldrb	r3, [r6, #0]
 80080ea:	2b00      	cmp	r3, #0
 80080ec:	d100      	bne.n	80080f0 <_vfiprintf_r+0xa4>
 80080ee:	e0a6      	b.n	800823e <_vfiprintf_r+0x1f2>
 80080f0:	2201      	movs	r2, #1
 80080f2:	2300      	movs	r3, #0
 80080f4:	4252      	negs	r2, r2
 80080f6:	6062      	str	r2, [r4, #4]
 80080f8:	a904      	add	r1, sp, #16
 80080fa:	3254      	adds	r2, #84	@ 0x54
 80080fc:	1852      	adds	r2, r2, r1
 80080fe:	1c75      	adds	r5, r6, #1
 8008100:	6023      	str	r3, [r4, #0]
 8008102:	60e3      	str	r3, [r4, #12]
 8008104:	60a3      	str	r3, [r4, #8]
 8008106:	7013      	strb	r3, [r2, #0]
 8008108:	65a3      	str	r3, [r4, #88]	@ 0x58
 800810a:	4b59      	ldr	r3, [pc, #356]	@ (8008270 <_vfiprintf_r+0x224>)
 800810c:	2205      	movs	r2, #5
 800810e:	0018      	movs	r0, r3
 8008110:	7829      	ldrb	r1, [r5, #0]
 8008112:	9305      	str	r3, [sp, #20]
 8008114:	f7fc fe09 	bl	8004d2a <memchr>
 8008118:	1c6e      	adds	r6, r5, #1
 800811a:	2800      	cmp	r0, #0
 800811c:	d11f      	bne.n	800815e <_vfiprintf_r+0x112>
 800811e:	6822      	ldr	r2, [r4, #0]
 8008120:	06d3      	lsls	r3, r2, #27
 8008122:	d504      	bpl.n	800812e <_vfiprintf_r+0xe2>
 8008124:	2353      	movs	r3, #83	@ 0x53
 8008126:	a904      	add	r1, sp, #16
 8008128:	185b      	adds	r3, r3, r1
 800812a:	2120      	movs	r1, #32
 800812c:	7019      	strb	r1, [r3, #0]
 800812e:	0713      	lsls	r3, r2, #28
 8008130:	d504      	bpl.n	800813c <_vfiprintf_r+0xf0>
 8008132:	2353      	movs	r3, #83	@ 0x53
 8008134:	a904      	add	r1, sp, #16
 8008136:	185b      	adds	r3, r3, r1
 8008138:	212b      	movs	r1, #43	@ 0x2b
 800813a:	7019      	strb	r1, [r3, #0]
 800813c:	782b      	ldrb	r3, [r5, #0]
 800813e:	2b2a      	cmp	r3, #42	@ 0x2a
 8008140:	d016      	beq.n	8008170 <_vfiprintf_r+0x124>
 8008142:	002e      	movs	r6, r5
 8008144:	2100      	movs	r1, #0
 8008146:	200a      	movs	r0, #10
 8008148:	68e3      	ldr	r3, [r4, #12]
 800814a:	7832      	ldrb	r2, [r6, #0]
 800814c:	1c75      	adds	r5, r6, #1
 800814e:	3a30      	subs	r2, #48	@ 0x30
 8008150:	2a09      	cmp	r2, #9
 8008152:	d950      	bls.n	80081f6 <_vfiprintf_r+0x1aa>
 8008154:	2900      	cmp	r1, #0
 8008156:	d111      	bne.n	800817c <_vfiprintf_r+0x130>
 8008158:	e017      	b.n	800818a <_vfiprintf_r+0x13e>
 800815a:	3601      	adds	r6, #1
 800815c:	e7af      	b.n	80080be <_vfiprintf_r+0x72>
 800815e:	9b05      	ldr	r3, [sp, #20]
 8008160:	6822      	ldr	r2, [r4, #0]
 8008162:	1ac0      	subs	r0, r0, r3
 8008164:	2301      	movs	r3, #1
 8008166:	4083      	lsls	r3, r0
 8008168:	4313      	orrs	r3, r2
 800816a:	0035      	movs	r5, r6
 800816c:	6023      	str	r3, [r4, #0]
 800816e:	e7cc      	b.n	800810a <_vfiprintf_r+0xbe>
 8008170:	9b07      	ldr	r3, [sp, #28]
 8008172:	1d19      	adds	r1, r3, #4
 8008174:	681b      	ldr	r3, [r3, #0]
 8008176:	9107      	str	r1, [sp, #28]
 8008178:	2b00      	cmp	r3, #0
 800817a:	db01      	blt.n	8008180 <_vfiprintf_r+0x134>
 800817c:	930b      	str	r3, [sp, #44]	@ 0x2c
 800817e:	e004      	b.n	800818a <_vfiprintf_r+0x13e>
 8008180:	425b      	negs	r3, r3
 8008182:	60e3      	str	r3, [r4, #12]
 8008184:	2302      	movs	r3, #2
 8008186:	4313      	orrs	r3, r2
 8008188:	6023      	str	r3, [r4, #0]
 800818a:	7833      	ldrb	r3, [r6, #0]
 800818c:	2b2e      	cmp	r3, #46	@ 0x2e
 800818e:	d10c      	bne.n	80081aa <_vfiprintf_r+0x15e>
 8008190:	7873      	ldrb	r3, [r6, #1]
 8008192:	2b2a      	cmp	r3, #42	@ 0x2a
 8008194:	d134      	bne.n	8008200 <_vfiprintf_r+0x1b4>
 8008196:	9b07      	ldr	r3, [sp, #28]
 8008198:	3602      	adds	r6, #2
 800819a:	1d1a      	adds	r2, r3, #4
 800819c:	681b      	ldr	r3, [r3, #0]
 800819e:	9207      	str	r2, [sp, #28]
 80081a0:	2b00      	cmp	r3, #0
 80081a2:	da01      	bge.n	80081a8 <_vfiprintf_r+0x15c>
 80081a4:	2301      	movs	r3, #1
 80081a6:	425b      	negs	r3, r3
 80081a8:	9309      	str	r3, [sp, #36]	@ 0x24
 80081aa:	4d32      	ldr	r5, [pc, #200]	@ (8008274 <_vfiprintf_r+0x228>)
 80081ac:	2203      	movs	r2, #3
 80081ae:	0028      	movs	r0, r5
 80081b0:	7831      	ldrb	r1, [r6, #0]
 80081b2:	f7fc fdba 	bl	8004d2a <memchr>
 80081b6:	2800      	cmp	r0, #0
 80081b8:	d006      	beq.n	80081c8 <_vfiprintf_r+0x17c>
 80081ba:	2340      	movs	r3, #64	@ 0x40
 80081bc:	1b40      	subs	r0, r0, r5
 80081be:	4083      	lsls	r3, r0
 80081c0:	6822      	ldr	r2, [r4, #0]
 80081c2:	3601      	adds	r6, #1
 80081c4:	4313      	orrs	r3, r2
 80081c6:	6023      	str	r3, [r4, #0]
 80081c8:	7831      	ldrb	r1, [r6, #0]
 80081ca:	2206      	movs	r2, #6
 80081cc:	482a      	ldr	r0, [pc, #168]	@ (8008278 <_vfiprintf_r+0x22c>)
 80081ce:	1c75      	adds	r5, r6, #1
 80081d0:	7621      	strb	r1, [r4, #24]
 80081d2:	f7fc fdaa 	bl	8004d2a <memchr>
 80081d6:	2800      	cmp	r0, #0
 80081d8:	d040      	beq.n	800825c <_vfiprintf_r+0x210>
 80081da:	4b28      	ldr	r3, [pc, #160]	@ (800827c <_vfiprintf_r+0x230>)
 80081dc:	2b00      	cmp	r3, #0
 80081de:	d122      	bne.n	8008226 <_vfiprintf_r+0x1da>
 80081e0:	2207      	movs	r2, #7
 80081e2:	9b07      	ldr	r3, [sp, #28]
 80081e4:	3307      	adds	r3, #7
 80081e6:	4393      	bics	r3, r2
 80081e8:	3308      	adds	r3, #8
 80081ea:	9307      	str	r3, [sp, #28]
 80081ec:	6963      	ldr	r3, [r4, #20]
 80081ee:	9a04      	ldr	r2, [sp, #16]
 80081f0:	189b      	adds	r3, r3, r2
 80081f2:	6163      	str	r3, [r4, #20]
 80081f4:	e762      	b.n	80080bc <_vfiprintf_r+0x70>
 80081f6:	4343      	muls	r3, r0
 80081f8:	002e      	movs	r6, r5
 80081fa:	2101      	movs	r1, #1
 80081fc:	189b      	adds	r3, r3, r2
 80081fe:	e7a4      	b.n	800814a <_vfiprintf_r+0xfe>
 8008200:	2300      	movs	r3, #0
 8008202:	200a      	movs	r0, #10
 8008204:	0019      	movs	r1, r3
 8008206:	3601      	adds	r6, #1
 8008208:	6063      	str	r3, [r4, #4]
 800820a:	7832      	ldrb	r2, [r6, #0]
 800820c:	1c75      	adds	r5, r6, #1
 800820e:	3a30      	subs	r2, #48	@ 0x30
 8008210:	2a09      	cmp	r2, #9
 8008212:	d903      	bls.n	800821c <_vfiprintf_r+0x1d0>
 8008214:	2b00      	cmp	r3, #0
 8008216:	d0c8      	beq.n	80081aa <_vfiprintf_r+0x15e>
 8008218:	9109      	str	r1, [sp, #36]	@ 0x24
 800821a:	e7c6      	b.n	80081aa <_vfiprintf_r+0x15e>
 800821c:	4341      	muls	r1, r0
 800821e:	002e      	movs	r6, r5
 8008220:	2301      	movs	r3, #1
 8008222:	1889      	adds	r1, r1, r2
 8008224:	e7f1      	b.n	800820a <_vfiprintf_r+0x1be>
 8008226:	aa07      	add	r2, sp, #28
 8008228:	9200      	str	r2, [sp, #0]
 800822a:	0021      	movs	r1, r4
 800822c:	003a      	movs	r2, r7
 800822e:	4b14      	ldr	r3, [pc, #80]	@ (8008280 <_vfiprintf_r+0x234>)
 8008230:	9803      	ldr	r0, [sp, #12]
 8008232:	f7fb fdf9 	bl	8003e28 <_printf_float>
 8008236:	9004      	str	r0, [sp, #16]
 8008238:	9b04      	ldr	r3, [sp, #16]
 800823a:	3301      	adds	r3, #1
 800823c:	d1d6      	bne.n	80081ec <_vfiprintf_r+0x1a0>
 800823e:	6e7b      	ldr	r3, [r7, #100]	@ 0x64
 8008240:	07db      	lsls	r3, r3, #31
 8008242:	d405      	bmi.n	8008250 <_vfiprintf_r+0x204>
 8008244:	89bb      	ldrh	r3, [r7, #12]
 8008246:	059b      	lsls	r3, r3, #22
 8008248:	d402      	bmi.n	8008250 <_vfiprintf_r+0x204>
 800824a:	6db8      	ldr	r0, [r7, #88]	@ 0x58
 800824c:	f7fc fd6c 	bl	8004d28 <__retarget_lock_release_recursive>
 8008250:	89bb      	ldrh	r3, [r7, #12]
 8008252:	065b      	lsls	r3, r3, #25
 8008254:	d500      	bpl.n	8008258 <_vfiprintf_r+0x20c>
 8008256:	e71e      	b.n	8008096 <_vfiprintf_r+0x4a>
 8008258:	980d      	ldr	r0, [sp, #52]	@ 0x34
 800825a:	e71e      	b.n	800809a <_vfiprintf_r+0x4e>
 800825c:	aa07      	add	r2, sp, #28
 800825e:	9200      	str	r2, [sp, #0]
 8008260:	0021      	movs	r1, r4
 8008262:	003a      	movs	r2, r7
 8008264:	4b06      	ldr	r3, [pc, #24]	@ (8008280 <_vfiprintf_r+0x234>)
 8008266:	9803      	ldr	r0, [sp, #12]
 8008268:	f7fc f88c 	bl	8004384 <_printf_i>
 800826c:	e7e3      	b.n	8008236 <_vfiprintf_r+0x1ea>
 800826e:	46c0      	nop			@ (mov r8, r8)
 8008270:	08008989 	.word	0x08008989
 8008274:	0800898f 	.word	0x0800898f
 8008278:	08008993 	.word	0x08008993
 800827c:	08003e29 	.word	0x08003e29
 8008280:	08008029 	.word	0x08008029

08008284 <__swbuf_r>:
 8008284:	b5f8      	push	{r3, r4, r5, r6, r7, lr}
 8008286:	0006      	movs	r6, r0
 8008288:	000d      	movs	r5, r1
 800828a:	0014      	movs	r4, r2
 800828c:	2800      	cmp	r0, #0
 800828e:	d004      	beq.n	800829a <__swbuf_r+0x16>
 8008290:	6a03      	ldr	r3, [r0, #32]
 8008292:	2b00      	cmp	r3, #0
 8008294:	d101      	bne.n	800829a <__swbuf_r+0x16>
 8008296:	f7fc fc21 	bl	8004adc <__sinit>
 800829a:	69a3      	ldr	r3, [r4, #24]
 800829c:	60a3      	str	r3, [r4, #8]
 800829e:	89a3      	ldrh	r3, [r4, #12]
 80082a0:	071b      	lsls	r3, r3, #28
 80082a2:	d502      	bpl.n	80082aa <__swbuf_r+0x26>
 80082a4:	6923      	ldr	r3, [r4, #16]
 80082a6:	2b00      	cmp	r3, #0
 80082a8:	d109      	bne.n	80082be <__swbuf_r+0x3a>
 80082aa:	0021      	movs	r1, r4
 80082ac:	0030      	movs	r0, r6
 80082ae:	f000 f82b 	bl	8008308 <__swsetup_r>
 80082b2:	2800      	cmp	r0, #0
 80082b4:	d003      	beq.n	80082be <__swbuf_r+0x3a>
 80082b6:	2501      	movs	r5, #1
 80082b8:	426d      	negs	r5, r5
 80082ba:	0028      	movs	r0, r5
 80082bc:	bdf8      	pop	{r3, r4, r5, r6, r7, pc}
 80082be:	6923      	ldr	r3, [r4, #16]
 80082c0:	6820      	ldr	r0, [r4, #0]
 80082c2:	b2ef      	uxtb	r7, r5
 80082c4:	1ac0      	subs	r0, r0, r3
 80082c6:	6963      	ldr	r3, [r4, #20]
 80082c8:	b2ed      	uxtb	r5, r5
 80082ca:	4283      	cmp	r3, r0
 80082cc:	dc05      	bgt.n	80082da <__swbuf_r+0x56>
 80082ce:	0021      	movs	r1, r4
 80082d0:	0030      	movs	r0, r6
 80082d2:	f7ff fa19 	bl	8007708 <_fflush_r>
 80082d6:	2800      	cmp	r0, #0
 80082d8:	d1ed      	bne.n	80082b6 <__swbuf_r+0x32>
 80082da:	68a3      	ldr	r3, [r4, #8]
 80082dc:	3001      	adds	r0, #1
 80082de:	3b01      	subs	r3, #1
 80082e0:	60a3      	str	r3, [r4, #8]
 80082e2:	6823      	ldr	r3, [r4, #0]
 80082e4:	1c5a      	adds	r2, r3, #1
 80082e6:	6022      	str	r2, [r4, #0]
 80082e8:	701f      	strb	r7, [r3, #0]
 80082ea:	6963      	ldr	r3, [r4, #20]
 80082ec:	4283      	cmp	r3, r0
 80082ee:	d004      	beq.n	80082fa <__swbuf_r+0x76>
 80082f0:	89a3      	ldrh	r3, [r4, #12]
 80082f2:	07db      	lsls	r3, r3, #31
 80082f4:	d5e1      	bpl.n	80082ba <__swbuf_r+0x36>
 80082f6:	2d0a      	cmp	r5, #10
 80082f8:	d1df      	bne.n	80082ba <__swbuf_r+0x36>
 80082fa:	0021      	movs	r1, r4
 80082fc:	0030      	movs	r0, r6
 80082fe:	f7ff fa03 	bl	8007708 <_fflush_r>
 8008302:	2800      	cmp	r0, #0
 8008304:	d0d9      	beq.n	80082ba <__swbuf_r+0x36>
 8008306:	e7d6      	b.n	80082b6 <__swbuf_r+0x32>

08008308 <__swsetup_r>:
 8008308:	4b2d      	ldr	r3, [pc, #180]	@ (80083c0 <__swsetup_r+0xb8>)
 800830a:	b570      	push	{r4, r5, r6, lr}
 800830c:	0005      	movs	r5, r0
 800830e:	6818      	ldr	r0, [r3, #0]
 8008310:	000c      	movs	r4, r1
 8008312:	2800      	cmp	r0, #0
 8008314:	d004      	beq.n	8008320 <__swsetup_r+0x18>
 8008316:	6a03      	ldr	r3, [r0, #32]
 8008318:	2b00      	cmp	r3, #0
 800831a:	d101      	bne.n	8008320 <__swsetup_r+0x18>
 800831c:	f7fc fbde 	bl	8004adc <__sinit>
 8008320:	230c      	movs	r3, #12
 8008322:	5ee2      	ldrsh	r2, [r4, r3]
 8008324:	0713      	lsls	r3, r2, #28
 8008326:	d423      	bmi.n	8008370 <__swsetup_r+0x68>
 8008328:	06d3      	lsls	r3, r2, #27
 800832a:	d407      	bmi.n	800833c <__swsetup_r+0x34>
 800832c:	2309      	movs	r3, #9
 800832e:	602b      	str	r3, [r5, #0]
 8008330:	2340      	movs	r3, #64	@ 0x40
 8008332:	2001      	movs	r0, #1
 8008334:	4313      	orrs	r3, r2
 8008336:	81a3      	strh	r3, [r4, #12]
 8008338:	4240      	negs	r0, r0
 800833a:	e03a      	b.n	80083b2 <__swsetup_r+0xaa>
 800833c:	0752      	lsls	r2, r2, #29
 800833e:	d513      	bpl.n	8008368 <__swsetup_r+0x60>
 8008340:	6b61      	ldr	r1, [r4, #52]	@ 0x34
 8008342:	2900      	cmp	r1, #0
 8008344:	d008      	beq.n	8008358 <__swsetup_r+0x50>
 8008346:	0023      	movs	r3, r4
 8008348:	3344      	adds	r3, #68	@ 0x44
 800834a:	4299      	cmp	r1, r3
 800834c:	d002      	beq.n	8008354 <__swsetup_r+0x4c>
 800834e:	0028      	movs	r0, r5
 8008350:	f7fd fb86 	bl	8005a60 <_free_r>
 8008354:	2300      	movs	r3, #0
 8008356:	6363      	str	r3, [r4, #52]	@ 0x34
 8008358:	2224      	movs	r2, #36	@ 0x24
 800835a:	89a3      	ldrh	r3, [r4, #12]
 800835c:	4393      	bics	r3, r2
 800835e:	81a3      	strh	r3, [r4, #12]
 8008360:	2300      	movs	r3, #0
 8008362:	6063      	str	r3, [r4, #4]
 8008364:	6923      	ldr	r3, [r4, #16]
 8008366:	6023      	str	r3, [r4, #0]
 8008368:	2308      	movs	r3, #8
 800836a:	89a2      	ldrh	r2, [r4, #12]
 800836c:	4313      	orrs	r3, r2
 800836e:	81a3      	strh	r3, [r4, #12]
 8008370:	6923      	ldr	r3, [r4, #16]
 8008372:	2b00      	cmp	r3, #0
 8008374:	d10b      	bne.n	800838e <__swsetup_r+0x86>
 8008376:	21a0      	movs	r1, #160	@ 0xa0
 8008378:	2280      	movs	r2, #128	@ 0x80
 800837a:	89a3      	ldrh	r3, [r4, #12]
 800837c:	0089      	lsls	r1, r1, #2
 800837e:	0092      	lsls	r2, r2, #2
 8008380:	400b      	ands	r3, r1
 8008382:	4293      	cmp	r3, r2
 8008384:	d003      	beq.n	800838e <__swsetup_r+0x86>
 8008386:	0021      	movs	r1, r4
 8008388:	0028      	movs	r0, r5
 800838a:	f000 f88f 	bl	80084ac <__smakebuf_r>
 800838e:	230c      	movs	r3, #12
 8008390:	5ee2      	ldrsh	r2, [r4, r3]
 8008392:	2101      	movs	r1, #1
 8008394:	0013      	movs	r3, r2
 8008396:	400b      	ands	r3, r1
 8008398:	420a      	tst	r2, r1
 800839a:	d00b      	beq.n	80083b4 <__swsetup_r+0xac>
 800839c:	2300      	movs	r3, #0
 800839e:	60a3      	str	r3, [r4, #8]
 80083a0:	6963      	ldr	r3, [r4, #20]
 80083a2:	425b      	negs	r3, r3
 80083a4:	61a3      	str	r3, [r4, #24]
 80083a6:	2000      	movs	r0, #0
 80083a8:	6923      	ldr	r3, [r4, #16]
 80083aa:	4283      	cmp	r3, r0
 80083ac:	d101      	bne.n	80083b2 <__swsetup_r+0xaa>
 80083ae:	0613      	lsls	r3, r2, #24
 80083b0:	d4be      	bmi.n	8008330 <__swsetup_r+0x28>
 80083b2:	bd70      	pop	{r4, r5, r6, pc}
 80083b4:	0791      	lsls	r1, r2, #30
 80083b6:	d400      	bmi.n	80083ba <__swsetup_r+0xb2>
 80083b8:	6963      	ldr	r3, [r4, #20]
 80083ba:	60a3      	str	r3, [r4, #8]
 80083bc:	e7f3      	b.n	80083a6 <__swsetup_r+0x9e>
 80083be:	46c0      	nop			@ (mov r8, r8)
 80083c0:	20000010 	.word	0x20000010

080083c4 <_raise_r>:
 80083c4:	b570      	push	{r4, r5, r6, lr}
 80083c6:	0004      	movs	r4, r0
 80083c8:	000d      	movs	r5, r1
 80083ca:	291f      	cmp	r1, #31
 80083cc:	d904      	bls.n	80083d8 <_raise_r+0x14>
 80083ce:	2316      	movs	r3, #22
 80083d0:	6003      	str	r3, [r0, #0]
 80083d2:	2001      	movs	r0, #1
 80083d4:	4240      	negs	r0, r0
 80083d6:	bd70      	pop	{r4, r5, r6, pc}
 80083d8:	6bc3      	ldr	r3, [r0, #60]	@ 0x3c
 80083da:	2b00      	cmp	r3, #0
 80083dc:	d004      	beq.n	80083e8 <_raise_r+0x24>
 80083de:	008a      	lsls	r2, r1, #2
 80083e0:	189b      	adds	r3, r3, r2
 80083e2:	681a      	ldr	r2, [r3, #0]
 80083e4:	2a00      	cmp	r2, #0
 80083e6:	d108      	bne.n	80083fa <_raise_r+0x36>
 80083e8:	0020      	movs	r0, r4
 80083ea:	f000 f831 	bl	8008450 <_getpid_r>
 80083ee:	002a      	movs	r2, r5
 80083f0:	0001      	movs	r1, r0
 80083f2:	0020      	movs	r0, r4
 80083f4:	f000 f81a 	bl	800842c <_kill_r>
 80083f8:	e7ed      	b.n	80083d6 <_raise_r+0x12>
 80083fa:	2a01      	cmp	r2, #1
 80083fc:	d009      	beq.n	8008412 <_raise_r+0x4e>
 80083fe:	1c51      	adds	r1, r2, #1
 8008400:	d103      	bne.n	800840a <_raise_r+0x46>
 8008402:	2316      	movs	r3, #22
 8008404:	6003      	str	r3, [r0, #0]
 8008406:	2001      	movs	r0, #1
 8008408:	e7e5      	b.n	80083d6 <_raise_r+0x12>
 800840a:	2100      	movs	r1, #0
 800840c:	0028      	movs	r0, r5
 800840e:	6019      	str	r1, [r3, #0]
 8008410:	4790      	blx	r2
 8008412:	2000      	movs	r0, #0
 8008414:	e7df      	b.n	80083d6 <_raise_r+0x12>
	...

08008418 <raise>:
 8008418:	b510      	push	{r4, lr}
 800841a:	4b03      	ldr	r3, [pc, #12]	@ (8008428 <raise+0x10>)
 800841c:	0001      	movs	r1, r0
 800841e:	6818      	ldr	r0, [r3, #0]
 8008420:	f7ff ffd0 	bl	80083c4 <_raise_r>
 8008424:	bd10      	pop	{r4, pc}
 8008426:	46c0      	nop			@ (mov r8, r8)
 8008428:	20000010 	.word	0x20000010

0800842c <_kill_r>:
 800842c:	2300      	movs	r3, #0
 800842e:	b570      	push	{r4, r5, r6, lr}
 8008430:	4d06      	ldr	r5, [pc, #24]	@ (800844c <_kill_r+0x20>)
 8008432:	0004      	movs	r4, r0
 8008434:	0008      	movs	r0, r1
 8008436:	0011      	movs	r1, r2
 8008438:	602b      	str	r3, [r5, #0]
 800843a:	f7fb fa49 	bl	80038d0 <_kill>
 800843e:	1c43      	adds	r3, r0, #1
 8008440:	d103      	bne.n	800844a <_kill_r+0x1e>
 8008442:	682b      	ldr	r3, [r5, #0]
 8008444:	2b00      	cmp	r3, #0
 8008446:	d000      	beq.n	800844a <_kill_r+0x1e>
 8008448:	6023      	str	r3, [r4, #0]
 800844a:	bd70      	pop	{r4, r5, r6, pc}
 800844c:	20000344 	.word	0x20000344

08008450 <_getpid_r>:
 8008450:	b510      	push	{r4, lr}
 8008452:	f7fb fa37 	bl	80038c4 <_getpid>
 8008456:	bd10      	pop	{r4, pc}

08008458 <__swhatbuf_r>:
 8008458:	b570      	push	{r4, r5, r6, lr}
 800845a:	000e      	movs	r6, r1
 800845c:	001d      	movs	r5, r3
 800845e:	230e      	movs	r3, #14
 8008460:	5ec9      	ldrsh	r1, [r1, r3]
 8008462:	0014      	movs	r4, r2
 8008464:	b096      	sub	sp, #88	@ 0x58
 8008466:	2900      	cmp	r1, #0
 8008468:	da0c      	bge.n	8008484 <__swhatbuf_r+0x2c>
 800846a:	89b2      	ldrh	r2, [r6, #12]
 800846c:	2380      	movs	r3, #128	@ 0x80
 800846e:	0011      	movs	r1, r2
 8008470:	4019      	ands	r1, r3
 8008472:	421a      	tst	r2, r3
 8008474:	d114      	bne.n	80084a0 <__swhatbuf_r+0x48>
 8008476:	2380      	movs	r3, #128	@ 0x80
 8008478:	00db      	lsls	r3, r3, #3
 800847a:	2000      	movs	r0, #0
 800847c:	6029      	str	r1, [r5, #0]
 800847e:	6023      	str	r3, [r4, #0]
 8008480:	b016      	add	sp, #88	@ 0x58
 8008482:	bd70      	pop	{r4, r5, r6, pc}
 8008484:	466a      	mov	r2, sp
 8008486:	f000 f853 	bl	8008530 <_fstat_r>
 800848a:	2800      	cmp	r0, #0
 800848c:	dbed      	blt.n	800846a <__swhatbuf_r+0x12>
 800848e:	23f0      	movs	r3, #240	@ 0xf0
 8008490:	9901      	ldr	r1, [sp, #4]
 8008492:	021b      	lsls	r3, r3, #8
 8008494:	4019      	ands	r1, r3
 8008496:	4b04      	ldr	r3, [pc, #16]	@ (80084a8 <__swhatbuf_r+0x50>)
 8008498:	18c9      	adds	r1, r1, r3
 800849a:	424b      	negs	r3, r1
 800849c:	4159      	adcs	r1, r3
 800849e:	e7ea      	b.n	8008476 <__swhatbuf_r+0x1e>
 80084a0:	2100      	movs	r1, #0
 80084a2:	2340      	movs	r3, #64	@ 0x40
 80084a4:	e7e9      	b.n	800847a <__swhatbuf_r+0x22>
 80084a6:	46c0      	nop			@ (mov r8, r8)
 80084a8:	ffffe000 	.word	0xffffe000

080084ac <__smakebuf_r>:
 80084ac:	b5f0      	push	{r4, r5, r6, r7, lr}
 80084ae:	2602      	movs	r6, #2
 80084b0:	898b      	ldrh	r3, [r1, #12]
 80084b2:	0005      	movs	r5, r0
 80084b4:	000c      	movs	r4, r1
 80084b6:	b085      	sub	sp, #20
 80084b8:	4233      	tst	r3, r6
 80084ba:	d007      	beq.n	80084cc <__smakebuf_r+0x20>
 80084bc:	0023      	movs	r3, r4
 80084be:	3347      	adds	r3, #71	@ 0x47
 80084c0:	6023      	str	r3, [r4, #0]
 80084c2:	6123      	str	r3, [r4, #16]
 80084c4:	2301      	movs	r3, #1
 80084c6:	6163      	str	r3, [r4, #20]
 80084c8:	b005      	add	sp, #20
 80084ca:	bdf0      	pop	{r4, r5, r6, r7, pc}
 80084cc:	ab03      	add	r3, sp, #12
 80084ce:	aa02      	add	r2, sp, #8
 80084d0:	f7ff ffc2 	bl	8008458 <__swhatbuf_r>
 80084d4:	9f02      	ldr	r7, [sp, #8]
 80084d6:	9001      	str	r0, [sp, #4]
 80084d8:	0039      	movs	r1, r7
 80084da:	0028      	movs	r0, r5
 80084dc:	f7fd fb36 	bl	8005b4c <_malloc_r>
 80084e0:	2800      	cmp	r0, #0
 80084e2:	d108      	bne.n	80084f6 <__smakebuf_r+0x4a>
 80084e4:	220c      	movs	r2, #12
 80084e6:	5ea3      	ldrsh	r3, [r4, r2]
 80084e8:	059a      	lsls	r2, r3, #22
 80084ea:	d4ed      	bmi.n	80084c8 <__smakebuf_r+0x1c>
 80084ec:	2203      	movs	r2, #3
 80084ee:	4393      	bics	r3, r2
 80084f0:	431e      	orrs	r6, r3
 80084f2:	81a6      	strh	r6, [r4, #12]
 80084f4:	e7e2      	b.n	80084bc <__smakebuf_r+0x10>
 80084f6:	2380      	movs	r3, #128	@ 0x80
 80084f8:	89a2      	ldrh	r2, [r4, #12]
 80084fa:	6020      	str	r0, [r4, #0]
 80084fc:	4313      	orrs	r3, r2
 80084fe:	81a3      	strh	r3, [r4, #12]
 8008500:	9b03      	ldr	r3, [sp, #12]
 8008502:	6120      	str	r0, [r4, #16]
 8008504:	6167      	str	r7, [r4, #20]
 8008506:	2b00      	cmp	r3, #0
 8008508:	d00c      	beq.n	8008524 <__smakebuf_r+0x78>
 800850a:	0028      	movs	r0, r5
 800850c:	230e      	movs	r3, #14
 800850e:	5ee1      	ldrsh	r1, [r4, r3]
 8008510:	f000 f820 	bl	8008554 <_isatty_r>
 8008514:	2800      	cmp	r0, #0
 8008516:	d005      	beq.n	8008524 <__smakebuf_r+0x78>
 8008518:	2303      	movs	r3, #3
 800851a:	89a2      	ldrh	r2, [r4, #12]
 800851c:	439a      	bics	r2, r3
 800851e:	3b02      	subs	r3, #2
 8008520:	4313      	orrs	r3, r2
 8008522:	81a3      	strh	r3, [r4, #12]
 8008524:	89a3      	ldrh	r3, [r4, #12]
 8008526:	9a01      	ldr	r2, [sp, #4]
 8008528:	4313      	orrs	r3, r2
 800852a:	81a3      	strh	r3, [r4, #12]
 800852c:	e7cc      	b.n	80084c8 <__smakebuf_r+0x1c>
	...

08008530 <_fstat_r>:
 8008530:	2300      	movs	r3, #0
 8008532:	b570      	push	{r4, r5, r6, lr}
 8008534:	4d06      	ldr	r5, [pc, #24]	@ (8008550 <_fstat_r+0x20>)
 8008536:	0004      	movs	r4, r0
 8008538:	0008      	movs	r0, r1
 800853a:	0011      	movs	r1, r2
 800853c:	602b      	str	r3, [r5, #0]
 800853e:	f7fb fa27 	bl	8003990 <_fstat>
 8008542:	1c43      	adds	r3, r0, #1
 8008544:	d103      	bne.n	800854e <_fstat_r+0x1e>
 8008546:	682b      	ldr	r3, [r5, #0]
 8008548:	2b00      	cmp	r3, #0
 800854a:	d000      	beq.n	800854e <_fstat_r+0x1e>
 800854c:	6023      	str	r3, [r4, #0]
 800854e:	bd70      	pop	{r4, r5, r6, pc}
 8008550:	20000344 	.word	0x20000344

08008554 <_isatty_r>:
 8008554:	2300      	movs	r3, #0
 8008556:	b570      	push	{r4, r5, r6, lr}
 8008558:	4d06      	ldr	r5, [pc, #24]	@ (8008574 <_isatty_r+0x20>)
 800855a:	0004      	movs	r4, r0
 800855c:	0008      	movs	r0, r1
 800855e:	602b      	str	r3, [r5, #0]
 8008560:	f7fb fa24 	bl	80039ac <_isatty>
 8008564:	1c43      	adds	r3, r0, #1
 8008566:	d103      	bne.n	8008570 <_isatty_r+0x1c>
 8008568:	682b      	ldr	r3, [r5, #0]
 800856a:	2b00      	cmp	r3, #0
 800856c:	d000      	beq.n	8008570 <_isatty_r+0x1c>
 800856e:	6023      	str	r3, [r4, #0]
 8008570:	bd70      	pop	{r4, r5, r6, pc}
 8008572:	46c0      	nop			@ (mov r8, r8)
 8008574:	20000344 	.word	0x20000344

08008578 <_init>:
 8008578:	b5f8      	push	{r3, r4, r5, r6, r7, lr}
 800857a:	46c0      	nop			@ (mov r8, r8)
 800857c:	bcf8      	pop	{r3, r4, r5, r6, r7}
 800857e:	bc08      	pop	{r3}
 8008580:	469e      	mov	lr, r3
 8008582:	4770      	bx	lr

08008584 <_fini>:
 8008584:	b5f8      	push	{r3, r4, r5, r6, r7, lr}
 8008586:	46c0      	nop			@ (mov r8, r8)
 8008588:	bcf8      	pop	{r3, r4, r5, r6, r7}
 800858a:	bc08      	pop	{r3}
 800858c:	469e      	mov	lr, r3
 800858e:	4770      	bx	lr
